
/home/zero/risc_v_tool/riscv_tool_lib/riscv64-unknown-elf/bin/pk：     文件格式 elf64-littleriscv


Disassembly of section .text:

0000000080000000 <_ftext>:
    80000000:	1f80006f          	j	800001f8 <do_reset>

0000000080000004 <trap_vector>:
    80000004:	34011173          	csrrw	sp,mscratch,sp
    80000008:	1a010863          	beqz	sp,800001b8 <restore_regs+0x80>
    8000000c:	04a13823          	sd	a0,80(sp)
    80000010:	04b13c23          	sd	a1,88(sp)
    80000014:	342025f3          	csrr	a1,mcause
    80000018:	0805d263          	bgez	a1,8000009c <trap_vector+0x98>
    8000001c:	00159593          	sll	a1,a1,0x1
    80000020:	00e00513          	li	a0,14
    80000024:	02b51263          	bne	a0,a1,80000048 <trap_vector+0x44>
    80000028:	08000513          	li	a0,128
    8000002c:	30453073          	csrc	mie,a0
    80000030:	02000513          	li	a0,32
    80000034:	34452073          	csrs	mip,a0
    80000038:	05013503          	ld	a0,80(sp)
    8000003c:	05813583          	ld	a1,88(sp)
    80000040:	34011173          	csrrw	sp,mscratch,sp
    80000044:	30200073          	mret
    80000048:	00600513          	li	a0,6
    8000004c:	18b51263          	bne	a0,a1,800001d0 <restore_regs+0x98>
    80000050:	10013503          	ld	a0,256(sp)
    80000054:	00052023          	sw	zero,0(a0)
    80000058:	0ff0000f          	fence
    8000005c:	10810513          	add	a0,sp,264
    80000060:	0805252f          	amoswap.w	a0,zero,(a0)
    80000064:	00157593          	and	a1,a0,1
    80000068:	00058463          	beqz	a1,80000070 <trap_vector+0x6c>
    8000006c:	34416073          	csrs	mip,2
    80000070:	00257593          	and	a1,a0,2
    80000074:	00058463          	beqz	a1,8000007c <trap_vector+0x78>
    80000078:	0000100f          	fence.i
    8000007c:	00457593          	and	a1,a0,4
    80000080:	00058463          	beqz	a1,80000088 <trap_vector+0x84>
    80000084:	12000073          	sfence.vma
    80000088:	00857593          	and	a1,a0,8
    8000008c:	00058663          	beqz	a1,80000098 <trap_vector+0x94>
    80000090:	10500073          	wfi
    80000094:	ff5ff06f          	j	80000088 <trap_vector+0x84>
    80000098:	fa1ff06f          	j	80000038 <trap_vector+0x34>
    8000009c:	00113423          	sd	ra,8(sp)
    800000a0:	00313c23          	sd	gp,24(sp)
    800000a4:	02413023          	sd	tp,32(sp)
    800000a8:	02513423          	sd	t0,40(sp)
    800000ac:	0000c297          	auipc	t0,0xc
    800000b0:	02613823          	sd	t1,48(sp)
    800000b4:	00359313          	sll	t1,a1,0x3
    800000b8:	02713c23          	sd	t2,56(sp)
    800000bc:	00628333          	add	t1,t0,t1
    800000c0:	04813023          	sd	s0,64(sp)
    800000c4:	35433303          	ld	t1,852(t1)
    800000c8:	04913423          	sd	s1,72(sp)
    800000cc:	00010513          	mv	a0,sp
    800000d0:	06c13023          	sd	a2,96(sp)
    800000d4:	34102673          	csrr	a2,mepc
    800000d8:	06d13423          	sd	a3,104(sp)
    800000dc:	340012f3          	csrrw	t0,mscratch,zero
    800000e0:	06e13823          	sd	a4,112(sp)
    800000e4:	06f13c23          	sd	a5,120(sp)
    800000e8:	09013023          	sd	a6,128(sp)
    800000ec:	09113423          	sd	a7,136(sp)
    800000f0:	09213823          	sd	s2,144(sp)
    800000f4:	09313c23          	sd	s3,152(sp)
    800000f8:	0b413023          	sd	s4,160(sp)
    800000fc:	0b513423          	sd	s5,168(sp)
    80000100:	0b613823          	sd	s6,176(sp)
    80000104:	0b713c23          	sd	s7,184(sp)
    80000108:	0d813023          	sd	s8,192(sp)
    8000010c:	0d913423          	sd	s9,200(sp)
    80000110:	0da13823          	sd	s10,208(sp)
    80000114:	0db13c23          	sd	s11,216(sp)
    80000118:	0fc13023          	sd	t3,224(sp)
    8000011c:	0fd13423          	sd	t4,232(sp)
    80000120:	0fe13823          	sd	t5,240(sp)
    80000124:	0ff13c23          	sd	t6,248(sp)
    80000128:	00513823          	sd	t0,16(sp)
    8000012c:	00013023          	sd	zero,0(sp)
    80000130:	000300e7          	jalr	t1

0000000080000134 <restore_mscratch>:
    80000134:	34011073          	csrw	mscratch,sp

0000000080000138 <restore_regs>:
    80000138:	00813083          	ld	ra,8(sp)
    8000013c:	01813183          	ld	gp,24(sp)
    80000140:	02013203          	ld	tp,32(sp)
    80000144:	02813283          	ld	t0,40(sp)
    80000148:	03013303          	ld	t1,48(sp)
    8000014c:	03813383          	ld	t2,56(sp)
    80000150:	04013403          	ld	s0,64(sp)
    80000154:	04813483          	ld	s1,72(sp)
    80000158:	05013503          	ld	a0,80(sp)
    8000015c:	05813583          	ld	a1,88(sp)
    80000160:	06013603          	ld	a2,96(sp)
    80000164:	06813683          	ld	a3,104(sp)
    80000168:	07013703          	ld	a4,112(sp)
    8000016c:	07813783          	ld	a5,120(sp)
    80000170:	08013803          	ld	a6,128(sp)
    80000174:	08813883          	ld	a7,136(sp)
    80000178:	09013903          	ld	s2,144(sp)
    8000017c:	09813983          	ld	s3,152(sp)
    80000180:	0a013a03          	ld	s4,160(sp)
    80000184:	0a813a83          	ld	s5,168(sp)
    80000188:	0b013b03          	ld	s6,176(sp)
    8000018c:	0b813b83          	ld	s7,184(sp)
    80000190:	0c013c03          	ld	s8,192(sp)
    80000194:	0c813c83          	ld	s9,200(sp)
    80000198:	0d013d03          	ld	s10,208(sp)
    8000019c:	0d813d83          	ld	s11,216(sp)
    800001a0:	0e013e03          	ld	t3,224(sp)
    800001a4:	0e813e83          	ld	t4,232(sp)
    800001a8:	0f013f03          	ld	t5,240(sp)
    800001ac:	0f813f83          	ld	t6,248(sp)
    800001b0:	01013103          	ld	sp,16(sp)
    800001b4:	30200073          	mret
    800001b8:	34002173          	csrr	sp,mscratch
    800001bc:	f0010113          	add	sp,sp,-256
    800001c0:	04a13823          	sd	a0,80(sp)
    800001c4:	04b13c23          	sd	a1,88(sp)
    800001c8:	00d00593          	li	a1,13
    800001cc:	ed1ff06f          	j	8000009c <trap_vector+0x98>
    800001d0:	00000593          	li	a1,0
    800001d4:	ec9ff06f          	j	8000009c <trap_vector+0x98>

00000000800001d8 <__redirect_trap>:
    800001d8:	000012b7          	lui	t0,0x1
    800001dc:	00510133          	add	sp,sp,t0
    800001e0:	405002b3          	neg	t0,t0
    800001e4:	00517133          	and	sp,sp,t0
    800001e8:	ec010113          	add	sp,sp,-320
    800001ec:	f49ff06f          	j	80000134 <restore_mscratch>

00000000800001f0 <__trap_from_machine_mode>:
    800001f0:	7eb020ef          	jal	800031da <trap_from_machine_mode>
    800001f4:	f45ff06f          	j	80000138 <restore_regs>

00000000800001f8 <do_reset>:
    800001f8:	00000093          	li	ra,0
    800001fc:	00000113          	li	sp,0
    80000200:	00000193          	li	gp,0
    80000204:	00000213          	li	tp,0
    80000208:	00000293          	li	t0,0
    8000020c:	00000313          	li	t1,0
    80000210:	00000393          	li	t2,0
    80000214:	00000413          	li	s0,0
    80000218:	00000493          	li	s1,0
    8000021c:	00000613          	li	a2,0
    80000220:	00000693          	li	a3,0
    80000224:	00000713          	li	a4,0
    80000228:	00000793          	li	a5,0
    8000022c:	00000813          	li	a6,0
    80000230:	00000893          	li	a7,0
    80000234:	00000913          	li	s2,0
    80000238:	00000993          	li	s3,0
    8000023c:	00000a13          	li	s4,0
    80000240:	00000a93          	li	s5,0
    80000244:	00000b13          	li	s6,0
    80000248:	00000b93          	li	s7,0
    8000024c:	00000c13          	li	s8,0
    80000250:	00000c93          	li	s9,0
    80000254:	00000d13          	li	s10,0
    80000258:	00000d93          	li	s11,0
    8000025c:	00000e13          	li	t3,0
    80000260:	00000e93          	li	t4,0
    80000264:	00000f13          	li	t5,0
    80000268:	00000f93          	li	t6,0
    8000026c:	34001073          	csrw	mscratch,zero
    80000270:	00000297          	auipc	t0,0x0
    80000274:	d9428293          	add	t0,t0,-620 # 80000004 <trap_vector>
    80000278:	30529073          	csrw	mtvec,t0
    8000027c:	30502373          	csrr	t1,mtvec
    80000280:	00629063          	bne	t0,t1,80000280 <do_reset+0x88>
    80000284:	00010117          	auipc	sp,0x10
    80000288:	c3c10113          	add	sp,sp,-964 # 8000fec0 <stacks+0xec0>
    8000028c:	f14026f3          	csrr	a3,mhartid
    80000290:	00c69613          	sll	a2,a3,0xc
    80000294:	00c10133          	add	sp,sp,a2
    80000298:	00069463          	bnez	a3,800002a0 <do_reset+0xa8>
    8000029c:	2c20306f          	j	8000355e <init_first_hart>
    800002a0:	00800613          	li	a2,8
    800002a4:	30461073          	csrw	mie,a2
    800002a8:	10500073          	wfi
    800002ac:	00017717          	auipc	a4,0x17
    800002b0:	d7470713          	add	a4,a4,-652 # 80017020 <disabled_hart_mask>
    800002b4:	00073703          	ld	a4,0(a4)
    800002b8:	00d75733          	srl	a4,a4,a3
    800002bc:	00177713          	and	a4,a4,1
    800002c0:	fe0714e3          	bnez	a4,800002a8 <do_reset+0xb0>
    800002c4:	34402673          	csrr	a2,mip
    800002c8:	00867613          	and	a2,a2,8
    800002cc:	fc060ee3          	beqz	a2,800002a8 <do_reset+0xb0>
    800002d0:	0ff0000f          	fence
    800002d4:	00800613          	li	a2,8
    800002d8:	00c6f463          	bgeu	a3,a2,800002e0 <do_reset+0xe8>
    800002dc:	39c0306f          	j	80003678 <init_other_hart>
    800002e0:	10500073          	wfi
    800002e4:	fc5ff06f          	j	800002a8 <do_reset+0xb0>

Disassembly of section .text:

00000000800002e8 <rest_of_boot_loader>:
    800002e8:	812a                	mv	sp,a0
    800002ea:	aaf9                	j	800004c8 <rest_of_boot_loader_2>

00000000800002ec <run_loaded_program.constprop.0>:
    800002ec:	7141                	add	sp,sp,-496
    800002ee:	f3a2                	sd	s0,480(sp)
    800002f0:	6785                	lui	a5,0x1
    800002f2:	00017417          	auipc	s0,0x17
    800002f6:	dbe43403          	ld	s0,-578(s0) # 800170b0 <mem_size>
    800002fa:	e3d2                	sd	s4,448(sp)
    800002fc:	fb5a                	sd	s6,432(sp)
    800002fe:	f786                	sd	ra,488(sp)
    80000300:	efa6                	sd	s1,472(sp)
    80000302:	ebca                	sd	s2,464(sp)
    80000304:	e7ce                	sd	s3,456(sp)
    80000306:	ff56                	sd	s5,440(sp)
    80000308:	f75e                	sd	s7,424(sp)
    8000030a:	8045                	srl	s0,s0,0x11
    8000030c:	80078793          	add	a5,a5,-2048 # 800 <_ftext-0x7ffff800>
    80000310:	8b2a                	mv	s6,a0
    80000312:	8a2e                	mv	s4,a1
    80000314:	0087f363          	bgeu	a5,s0,8000031a <run_loaded_program.constprop.0+0x2e>
    80000318:	843e                	mv	s0,a5
    8000031a:	0000d997          	auipc	s3,0xd
    8000031e:	ce698993          	add	s3,s3,-794 # 8000d000 <current>
    80000322:	0489b503          	ld	a0,72(s3)
    80000326:	0432                	sll	s0,s0,0xc
    80000328:	4781                	li	a5,0
    8000032a:	4701                	li	a4,0
    8000032c:	03200693          	li	a3,50
    80000330:	461d                	li	a2,7
    80000332:	85a2                	mv	a1,s0
    80000334:	8d01                	sub	a0,a0,s0
    80000336:	158010ef          	jal	8000148e <__do_mmap>
    8000033a:	57fd                	li	a5,-1
    8000033c:	18f50063          	beq	a0,a5,800004bc <run_loaded_program.constprop.0+0x1d0>
    80000340:	0189b603          	ld	a2,24(s3)
    80000344:	00a407b3          	add	a5,s0,a0
    80000348:	0109b583          	ld	a1,16(s3)
    8000034c:	40c78433          	sub	s0,a5,a2
    80000350:	8522                	mv	a0,s0
    80000352:	04f9b823          	sd	a5,80(s3)
    80000356:	15d010ef          	jal	80001cb2 <memcpy_to_user>
    8000035a:	0089b823          	sd	s0,16(s3)
    8000035e:	020b0963          	beqz	s6,80000390 <run_loaded_program.constprop.0+0xa4>
    80000362:	0000d497          	auipc	s1,0xd
    80000366:	11648493          	add	s1,s1,278 # 8000d478 <args.1>
    8000036a:	4901                	li	s2,0
    8000036c:	0004ba83          	ld	s5,0(s1)
    80000370:	04a1                	add	s1,s1,8
    80000372:	0905                	add	s2,s2,1
    80000374:	8556                	mv	a0,s5
    80000376:	327080ef          	jal	80008e9c <strlen>
    8000037a:	00150613          	add	a2,a0,1
    8000037e:	8c11                	sub	s0,s0,a2
    80000380:	85d6                	mv	a1,s5
    80000382:	8522                	mv	a0,s0
    80000384:	12f010ef          	jal	80001cb2 <memcpy_to_user>
    80000388:	fe84bc23          	sd	s0,-8(s1)
    8000038c:	ff6910e3          	bne	s2,s6,8000036c <run_loaded_program.constprop.0+0x80>
    80000390:	0109b783          	ld	a5,16(s3)
    80000394:	013b0a93          	add	s5,s6,19
    80000398:	9861                	and	s0,s0,-8
    8000039a:	0289b803          	ld	a6,40(s3)
    8000039e:	0049a683          	lw	a3,4(s3)
    800003a2:	0009a703          	lw	a4,0(s3)
    800003a6:	0a8e                	sll	s5,s5,0x3
    800003a8:	fc3e                	sd	a5,56(sp)
    800003aa:	4799                	li	a5,6
    800003ac:	41540ab3          	sub	s5,s0,s5
    800003b0:	e0be                	sd	a5,64(sp)
    800003b2:	6785                	lui	a5,0x1
    800003b4:	ff0afa93          	and	s5,s5,-16
    800003b8:	08010913          	add	s2,sp,128
    800003bc:	e4be                	sd	a5,72(sp)
    800003be:	47dd                	li	a5,23
    800003c0:	48a5                	li	a7,9
    800003c2:	e442                	sd	a6,8(sp)
    800003c4:	ec36                	sd	a3,24(sp)
    800003c6:	4815                	li	a6,5
    800003c8:	4691                	li	a3,4
    800003ca:	f43a                	sd	a4,40(sp)
    800003cc:	e8be                	sd	a5,80(sp)
    800003ce:	470d                	li	a4,3
    800003d0:	47e5                	li	a5,25
    800003d2:	4611                	li	a2,4
    800003d4:	85ca                	mv	a1,s2
    800003d6:	8556                	mv	a0,s5
    800003d8:	f4a2                	sd	s0,104(sp)
    800003da:	e046                	sd	a7,0(sp)
    800003dc:	e842                	sd	a6,16(sp)
    800003de:	f036                	sd	a3,32(sp)
    800003e0:	f83a                	sd	a4,48(sp)
    800003e2:	ec82                	sd	zero,88(sp)
    800003e4:	f0be                	sd	a5,96(sp)
    800003e6:	f882                	sd	zero,112(sp)
    800003e8:	fc82                	sd	zero,120(sp)
    800003ea:	c15a                	sw	s6,128(sp)
    800003ec:	008a8413          	add	s0,s5,8
    800003f0:	0c3010ef          	jal	80001cb2 <memcpy_to_user>
    800003f4:	020b0b63          	beqz	s6,8000042a <run_loaded_program.constprop.0+0x13e>
    800003f8:	4481                	li	s1,0
    800003fa:	4781                	li	a5,0
    800003fc:	0000db97          	auipc	s7,0xd
    80000400:	07cb8b93          	add	s7,s7,124 # 8000d478 <args.1>
    80000404:	078e                	sll	a5,a5,0x3
    80000406:	97de                	add	a5,a5,s7
    80000408:	639c                	ld	a5,0(a5)
    8000040a:	8522                	mv	a0,s0
    8000040c:	4621                	li	a2,8
    8000040e:	85ca                	mv	a1,s2
    80000410:	e13e                	sd	a5,128(sp)
    80000412:	0a1010ef          	jal	80001cb2 <memcpy_to_user>
    80000416:	0014871b          	addw	a4,s1,1
    8000041a:	02071793          	sll	a5,a4,0x20
    8000041e:	9381                	srl	a5,a5,0x20
    80000420:	0421                	add	s0,s0,8
    80000422:	0007049b          	sext.w	s1,a4
    80000426:	fd67efe3          	bltu	a5,s6,80000404 <run_loaded_program.constprop.0+0x118>
    8000042a:	8522                	mv	a0,s0
    8000042c:	4621                	li	a2,8
    8000042e:	85ca                	mv	a1,s2
    80000430:	e102                	sd	zero,128(sp)
    80000432:	081010ef          	jal	80001cb2 <memcpy_to_user>
    80000436:	00840513          	add	a0,s0,8
    8000043a:	4621                	li	a2,8
    8000043c:	85ca                	mv	a1,s2
    8000043e:	e102                	sd	zero,128(sp)
    80000440:	0441                	add	s0,s0,16
    80000442:	071010ef          	jal	80001cb2 <memcpy_to_user>
    80000446:	848a                	mv	s1,sp
    80000448:	609c                	ld	a5,0(s1)
    8000044a:	8522                	mv	a0,s0
    8000044c:	4621                	li	a2,8
    8000044e:	85ca                	mv	a1,s2
    80000450:	e13e                	sd	a5,128(sp)
    80000452:	061010ef          	jal	80001cb2 <memcpy_to_user>
    80000456:	649c                	ld	a5,8(s1)
    80000458:	00840513          	add	a0,s0,8
    8000045c:	04c1                	add	s1,s1,16
    8000045e:	4621                	li	a2,8
    80000460:	85ca                	mv	a1,s2
    80000462:	e13e                	sd	a5,128(sp)
    80000464:	0441                	add	s0,s0,16
    80000466:	04d010ef          	jal	80001cb2 <memcpy_to_user>
    8000046a:	fc991fe3          	bne	s2,s1,80000448 <run_loaded_program.constprop.0+0x15c>
    8000046e:	0689b783          	ld	a5,104(s3)
    80000472:	cf89                	beqz	a5,8000048c <run_loaded_program.constprop.0+0x1a0>
    80000474:	c01027f3          	rdtime	a5
    80000478:	06f9b023          	sd	a5,96(s3)
    8000047c:	c00027f3          	rdcycle	a5
    80000480:	06f9b423          	sd	a5,104(s3)
    80000484:	c02027f3          	rdinstret	a5
    80000488:	06f9b823          	sd	a5,112(s3)
    8000048c:	12000613          	li	a2,288
    80000490:	4581                	li	a1,0
    80000492:	854a                	mv	a0,s2
    80000494:	0289b403          	ld	s0,40(s3)
    80000498:	1c5080ef          	jal	80008e5c <memset>
    8000049c:	100027f3          	csrr	a5,sstatus
    800004a0:	edd7f793          	and	a5,a5,-291
    800004a4:	0207e793          	or	a5,a5,32
    800004a8:	e33e                	sd	a5,384(sp)
    800004aa:	e956                	sd	s5,144(sp)
    800004ac:	e722                	sd	s0,392(sp)
    800004ae:	29f030ef          	jal	80003f4c <__riscv_flush_icache>
    800004b2:	140a1073          	csrw	sscratch,s4
    800004b6:	854a                	mv	a0,s2
    800004b8:	191010ef          	jal	80001e48 <start_user>
    800004bc:	0000a517          	auipc	a0,0xa
    800004c0:	8d450513          	add	a0,a0,-1836 # 80009d90 <softfloat_countLeadingZeros8+0x158>
    800004c4:	24f000ef          	jal	80000f12 <kassert_fail>

00000000800004c8 <rest_of_boot_loader_2>:
    800004c8:	7119                	add	sp,sp,-128
    800004ca:	f8a2                	sd	s0,112(sp)
    800004cc:	f4a6                	sd	s1,104(sp)
    800004ce:	e0da                	sd	s6,64(sp)
    800004d0:	fc86                	sd	ra,120(sp)
    800004d2:	f0ca                	sd	s2,96(sp)
    800004d4:	ecce                	sd	s3,88(sp)
    800004d6:	e8d2                	sd	s4,80(sp)
    800004d8:	e4d6                	sd	s5,72(sp)
    800004da:	fc5e                	sd	s7,56(sp)
    800004dc:	f862                	sd	s8,48(sp)
    800004de:	f466                	sd	s9,40(sp)
    800004e0:	f06a                	sd	s10,32(sp)
    800004e2:	ec6e                	sd	s11,24(sp)
    800004e4:	e42a                	sd	a0,8(sp)
    800004e6:	00017417          	auipc	s0,0x17
    800004ea:	b9a40413          	add	s0,s0,-1126 # 80017080 <kva2pa_offset>
    800004ee:	324000ef          	jal	80000812 <file_init>
    800004f2:	600c                	ld	a1,0(s0)
    800004f4:	0000db17          	auipc	s6,0xd
    800004f8:	f84b0b13          	add	s6,s6,-124 # 8000d478 <args.1>
    800004fc:	6485                	lui	s1,0x1
    800004fe:	4881                	li	a7,0
    80000500:	4801                	li	a6,0
    80000502:	4781                	li	a5,0
    80000504:	4701                	li	a4,0
    80000506:	4681                	li	a3,0
    80000508:	80048613          	add	a2,s1,-2048 # 800 <_ftext-0x7ffff800>
    8000050c:	40bb05b3          	sub	a1,s6,a1
    80000510:	7db00513          	li	a0,2011
    80000514:	608000ef          	jal	80000b1c <frontend_syscall>
    80000518:	18051c63          	bnez	a0,800006b0 <rest_of_boot_loader_2+0x1e8>
    8000051c:	000b3903          	ld	s2,0(s6)
    80000520:	4705                	li	a4,1
    80000522:	13277563          	bgeu	a4,s2,8000064c <rest_of_boot_loader_2+0x184>
    80000526:	6004                	ld	s1,0(s0)
    80000528:	8c5a                	mv	s8,s6
    8000052a:	0000dc97          	auipc	s9,0xd
    8000052e:	f5ec8c93          	add	s9,s9,-162 # 8000d488 <args.1+0x10>
    80000532:	4d05                	li	s10,1
    80000534:	02d00993          	li	s3,45
    80000538:	0000aa17          	auipc	s4,0xa
    8000053c:	898a0a13          	add	s4,s4,-1896 # 80009dd0 <softfloat_countLeadingZeros8+0x198>
    80000540:	00017b97          	auipc	s7,0x17
    80000544:	b00b8b93          	add	s7,s7,-1280 # 80017040 <randomize_mapping>
    80000548:	4a85                	li	s5,1
    8000054a:	a01d                	j	80000570 <rest_of_boot_loader_2+0xa8>
    8000054c:	00144683          	lbu	a3,1(s0)
    80000550:	f8d6869b          	addw	a3,a3,-115
    80000554:	eab1                	bnez	a3,800005a8 <rest_of_boot_loader_2+0xe0>
    80000556:	00244683          	lbu	a3,2(s0)
    8000055a:	e6b9                	bnez	a3,800005a8 <rest_of_boot_loader_2+0xe0>
    8000055c:	0000d797          	auipc	a5,0xd
    80000560:	aa478793          	add	a5,a5,-1372 # 8000d000 <current>
    80000564:	0757b423          	sd	s5,104(a5)
    80000568:	0d05                	add	s10,s10,1
    8000056a:	0ca1                	add	s9,s9,8
    8000056c:	07a90463          	beq	s2,s10,800005d4 <rest_of_boot_loader_2+0x10c>
    80000570:	000cb403          	ld	s0,0(s9)
    80000574:	9426                	add	s0,s0,s1
    80000576:	00044683          	lbu	a3,0(s0)
    8000057a:	09369163          	bne	a3,s3,800005fc <rest_of_boot_loader_2+0x134>
    8000057e:	00044d83          	lbu	s11,0(s0)
    80000582:	fd3d869b          	addw	a3,s11,-45
    80000586:	ea89                	bnez	a3,80000598 <rest_of_boot_loader_2+0xd0>
    80000588:	00144683          	lbu	a3,1(s0)
    8000058c:	f986869b          	addw	a3,a3,-104
    80000590:	e681                	bnez	a3,80000598 <rest_of_boot_loader_2+0xd0>
    80000592:	00244683          	lbu	a3,2(s0)
    80000596:	cedd                	beqz	a3,80000654 <rest_of_boot_loader_2+0x18c>
    80000598:	85d2                	mv	a1,s4
    8000059a:	8522                	mv	a0,s0
    8000059c:	11b080ef          	jal	80008eb6 <strcmp>
    800005a0:	c955                	beqz	a0,80000654 <rest_of_boot_loader_2+0x18c>
    800005a2:	fd3d869b          	addw	a3,s11,-45
    800005a6:	d2dd                	beqz	a3,8000054c <rest_of_boot_loader_2+0x84>
    800005a8:	fd3d8d9b          	addw	s11,s11,-45
    800005ac:	020d9d63          	bnez	s11,800005e6 <rest_of_boot_loader_2+0x11e>
    800005b0:	00144d83          	lbu	s11,1(s0)
    800005b4:	f90d8d9b          	addw	s11,s11,-112
    800005b8:	020d9763          	bnez	s11,800005e6 <rest_of_boot_loader_2+0x11e>
    800005bc:	00244d83          	lbu	s11,2(s0)
    800005c0:	020d9363          	bnez	s11,800005e6 <rest_of_boot_loader_2+0x11e>
    800005c4:	0000c697          	auipc	a3,0xc
    800005c8:	ee06a823          	sw	zero,-272(a3) # 8000c4b4 <demand_paging>
    800005cc:	0d05                	add	s10,s10,1
    800005ce:	0ca1                	add	s9,s9,8
    800005d0:	fba910e3          	bne	s2,s10,80000570 <rest_of_boot_loader_2+0xa8>
    800005d4:	4901                	li	s2,0
    800005d6:	04091763          	bnez	s2,80000624 <rest_of_boot_loader_2+0x15c>
    800005da:	0000a517          	auipc	a0,0xa
    800005de:	94650513          	add	a0,a0,-1722 # 80009f20 <softfloat_countLeadingZeros8+0x2e8>
    800005e2:	10d000ef          	jal	80000eee <do_panic>
    800005e6:	0000a597          	auipc	a1,0xa
    800005ea:	90258593          	add	a1,a1,-1790 # 80009ee8 <softfloat_countLeadingZeros8+0x2b0>
    800005ee:	8522                	mv	a0,s0
    800005f0:	0c7080ef          	jal	80008eb6 <strcmp>
    800005f4:	e55d                	bnez	a0,800006a2 <rest_of_boot_loader_2+0x1da>
    800005f6:	015bb023          	sd	s5,0(s7)
    800005fa:	b7bd                	j	80000568 <rest_of_boot_loader_2+0xa0>
    800005fc:	0d2d7263          	bgeu	s10,s2,800006c0 <rest_of_boot_loader_2+0x1f8>
    80000600:	41a90933          	sub	s2,s2,s10
    80000604:	00391613          	sll	a2,s2,0x3
    80000608:	965a                	add	a2,a2,s6
    8000060a:	003d1713          	sll	a4,s10,0x3
    8000060e:	00ec06b3          	add	a3,s8,a4
    80000612:	6694                	ld	a3,8(a3)
    80000614:	0c21                	add	s8,s8,8
    80000616:	96a6                	add	a3,a3,s1
    80000618:	fedc3c23          	sd	a3,-8(s8)
    8000061c:	ff8619e3          	bne	a2,s8,8000060e <rest_of_boot_loader_2+0x146>
    80000620:	fa090de3          	beqz	s2,800005da <rest_of_boot_loader_2+0x112>
    80000624:	000b3503          	ld	a0,0(s6)
    80000628:	0000d597          	auipc	a1,0xd
    8000062c:	9d858593          	add	a1,a1,-1576 # 8000d000 <current>
    80000630:	0000d797          	auipc	a5,0xd
    80000634:	a4878793          	add	a5,a5,-1464 # 8000d078 <phdrs.0>
    80000638:	e99c                	sd	a5,16(a1)
    8000063a:	40000793          	li	a5,1024
    8000063e:	ed9c                	sd	a5,24(a1)
    80000640:	56c000ef          	jal	80000bac <load_elf>
    80000644:	65a2                	ld	a1,8(sp)
    80000646:	854a                	mv	a0,s2
    80000648:	ca5ff0ef          	jal	800002ec <run_loaded_program.constprop.0>
    8000064c:	197d                	add	s2,s2,-1
    8000064e:	fc091be3          	bnez	s2,80000624 <rest_of_boot_loader_2+0x15c>
    80000652:	b761                	j	800005da <rest_of_boot_loader_2+0x112>
    80000654:	00009517          	auipc	a0,0x9
    80000658:	78450513          	add	a0,a0,1924 # 80009dd8 <softfloat_countLeadingZeros8+0x1a0>
    8000065c:	7ca000ef          	jal	80000e26 <printk>
    80000660:	00009517          	auipc	a0,0x9
    80000664:	78850513          	add	a0,a0,1928 # 80009de8 <softfloat_countLeadingZeros8+0x1b0>
    80000668:	7be000ef          	jal	80000e26 <printk>
    8000066c:	00009517          	auipc	a0,0x9
    80000670:	7bc50513          	add	a0,a0,1980 # 80009e28 <softfloat_countLeadingZeros8+0x1f0>
    80000674:	7b2000ef          	jal	80000e26 <printk>
    80000678:	00009517          	auipc	a0,0x9
    8000067c:	7c050513          	add	a0,a0,1984 # 80009e38 <softfloat_countLeadingZeros8+0x200>
    80000680:	7a6000ef          	jal	80000e26 <printk>
    80000684:	00009517          	auipc	a0,0x9
    80000688:	7ec50513          	add	a0,a0,2028 # 80009e70 <softfloat_countLeadingZeros8+0x238>
    8000068c:	79a000ef          	jal	80000e26 <printk>
    80000690:	0000a517          	auipc	a0,0xa
    80000694:	82050513          	add	a0,a0,-2016 # 80009eb0 <softfloat_countLeadingZeros8+0x278>
    80000698:	78e000ef          	jal	80000e26 <printk>
    8000069c:	4501                	li	a0,0
    8000069e:	4f2000ef          	jal	80000b90 <shutdown>
    800006a2:	85a2                	mv	a1,s0
    800006a4:	0000a517          	auipc	a0,0xa
    800006a8:	85c50513          	add	a0,a0,-1956 # 80009f00 <softfloat_countLeadingZeros8+0x2c8>
    800006ac:	043000ef          	jal	80000eee <do_panic>
    800006b0:	80048593          	add	a1,s1,-2048
    800006b4:	00009517          	auipc	a0,0x9
    800006b8:	6fc50513          	add	a0,a0,1788 # 80009db0 <softfloat_countLeadingZeros8+0x178>
    800006bc:	033000ef          	jal	80000eee <do_panic>
    800006c0:	41a90933          	sub	s2,s2,s10
    800006c4:	f60910e3          	bnez	s2,80000624 <rest_of_boot_loader_2+0x15c>
    800006c8:	bf09                	j	800005da <rest_of_boot_loader_2+0x112>

00000000800006ca <boot_loader>:
    800006ca:	1141                	add	sp,sp,-16
    800006cc:	e406                	sd	ra,8(sp)
    800006ce:	3d2010ef          	jal	80001aa0 <pk_vm_init>
    800006d2:	00017717          	auipc	a4,0x17
    800006d6:	9ae73703          	ld	a4,-1618(a4) # 80017080 <kva2pa_offset>
    800006da:	00001797          	auipc	a5,0x1
    800006de:	6f278793          	add	a5,a5,1778 # 80001dcc <trap_entry>
    800006e2:	97ba                	add	a5,a5,a4
    800006e4:	10579073          	csrw	stvec,a5
    800006e8:	14005073          	csrw	sscratch,0
    800006ec:	10405073          	csrw	sie,0
    800006f0:	6799                	lui	a5,0x6
    800006f2:	6007879b          	addw	a5,a5,1536 # 6600 <_ftext-0x7fff9a00>
    800006f6:	1007a7f3          	csrrs	a5,sstatus,a5
    800006fa:	00a705b3          	add	a1,a4,a0
    800006fe:	00000517          	auipc	a0,0x0
    80000702:	bea50513          	add	a0,a0,-1046 # 800002e8 <rest_of_boot_loader>
    80000706:	4601                	li	a2,0
    80000708:	953a                	add	a0,a0,a4
    8000070a:	7a9020ef          	jal	800036b2 <enter_supervisor_mode>

000000008000070e <boot_other_hart>:
    8000070e:	10500073          	wfi
    80000712:	bff5                	j	8000070e <boot_other_hart>

0000000080000714 <file_incref>:
    80000714:	4705                	li	a4,1
    80000716:	00450693          	add	a3,a0,4
    8000071a:	0f50000f          	fence	iorw,ow
    8000071e:	04e6a7af          	amoadd.w.aq	a5,a4,(a3)
    80000722:	2781                	sext.w	a5,a5
    80000724:	c391                	beqz	a5,80000728 <file_incref+0x14>
    80000726:	8082                	ret
    80000728:	1141                	add	sp,sp,-16
    8000072a:	0000a517          	auipc	a0,0xa
    8000072e:	81650513          	add	a0,a0,-2026 # 80009f40 <softfloat_countLeadingZeros8+0x308>
    80000732:	e406                	sd	ra,8(sp)
    80000734:	7de000ef          	jal	80000f12 <kassert_fail>

0000000080000738 <file_decref>:
    80000738:	577d                	li	a4,-1
    8000073a:	00450693          	add	a3,a0,4
    8000073e:	0f50000f          	fence	iorw,ow
    80000742:	04e6a7af          	amoadd.w.aq	a5,a4,(a3)
    80000746:	2781                	sext.w	a5,a5
    80000748:	4709                	li	a4,2
    8000074a:	00e78363          	beq	a5,a4,80000750 <file_decref+0x18>
    8000074e:	8082                	ret
    80000750:	410c                	lw	a1,0(a0)
    80000752:	0ff0000f          	fence
    80000756:	4881                	li	a7,0
    80000758:	00052223          	sw	zero,4(a0)
    8000075c:	4801                	li	a6,0
    8000075e:	4781                	li	a5,0
    80000760:	4701                	li	a4,0
    80000762:	4681                	li	a3,0
    80000764:	4601                	li	a2,0
    80000766:	03900513          	li	a0,57
    8000076a:	ae4d                	j	80000b1c <frontend_syscall>

000000008000076c <file_dup>:
    8000076c:	86aa                	mv	a3,a0
    8000076e:	0000d797          	auipc	a5,0xd
    80000772:	50a78793          	add	a5,a5,1290 # 8000dc78 <fds>
    80000776:	4501                	li	a0,0
    80000778:	08000613          	li	a2,128
    8000077c:	a029                	j	80000786 <file_dup+0x1a>
    8000077e:	2505                	addw	a0,a0,1
    80000780:	07a1                	add	a5,a5,8
    80000782:	02c50463          	beq	a0,a2,800007aa <file_dup+0x3e>
    80000786:	0f50000f          	fence	iorw,ow
    8000078a:	1407b72f          	lr.d.aq	a4,(a5)
    8000078e:	e701                	bnez	a4,80000796 <file_dup+0x2a>
    80000790:	1cd7b5af          	sc.d.aq	a1,a3,(a5)
    80000794:	f9fd                	bnez	a1,8000078a <file_dup+0x1e>
    80000796:	f765                	bnez	a4,8000077e <file_dup+0x12>
    80000798:	4705                	li	a4,1
    8000079a:	0691                	add	a3,a3,4
    8000079c:	0f50000f          	fence	iorw,ow
    800007a0:	04e6a7af          	amoadd.w.aq	a5,a4,(a3)
    800007a4:	2781                	sext.w	a5,a5
    800007a6:	c781                	beqz	a5,800007ae <file_dup+0x42>
    800007a8:	8082                	ret
    800007aa:	557d                	li	a0,-1
    800007ac:	8082                	ret
    800007ae:	1141                	add	sp,sp,-16
    800007b0:	00009517          	auipc	a0,0x9
    800007b4:	79050513          	add	a0,a0,1936 # 80009f40 <softfloat_countLeadingZeros8+0x308>
    800007b8:	e406                	sd	ra,8(sp)
    800007ba:	758000ef          	jal	80000f12 <kassert_fail>

00000000800007be <file_dup3>:
    800007be:	07f00713          	li	a4,127
    800007c2:	02b76e63          	bltu	a4,a1,800007fe <file_dup3+0x40>
    800007c6:	00359693          	sll	a3,a1,0x3
    800007ca:	0000d717          	auipc	a4,0xd
    800007ce:	4ae70713          	add	a4,a4,1198 # 8000dc78 <fds>
    800007d2:	87aa                	mv	a5,a0
    800007d4:	9736                	add	a4,a4,a3
    800007d6:	852e                	mv	a0,a1
    800007d8:	0f50000f          	fence	iorw,ow
    800007dc:	140736af          	lr.d.aq	a3,(a4)
    800007e0:	e681                	bnez	a3,800007e8 <file_dup3+0x2a>
    800007e2:	1cf7362f          	sc.d.aq	a2,a5,(a4)
    800007e6:	fa7d                	bnez	a2,800007dc <file_dup3+0x1e>
    800007e8:	ea99                	bnez	a3,800007fe <file_dup3+0x40>
    800007ea:	4685                	li	a3,1
    800007ec:	0791                	add	a5,a5,4
    800007ee:	0f50000f          	fence	iorw,ow
    800007f2:	04d7a72f          	amoadd.w.aq	a4,a3,(a5)
    800007f6:	0007079b          	sext.w	a5,a4
    800007fa:	c781                	beqz	a5,80000802 <file_dup3+0x44>
    800007fc:	8082                	ret
    800007fe:	557d                	li	a0,-1
    80000800:	8082                	ret
    80000802:	1141                	add	sp,sp,-16
    80000804:	00009517          	auipc	a0,0x9
    80000808:	73c50513          	add	a0,a0,1852 # 80009f40 <softfloat_countLeadingZeros8+0x308>
    8000080c:	e406                	sd	ra,8(sp)
    8000080e:	704000ef          	jal	80000f12 <kassert_fail>

0000000080000812 <file_init>:
    80000812:	4301                	li	t1,0
    80000814:	0000e817          	auipc	a6,0xe
    80000818:	86480813          	add	a6,a6,-1948 # 8000e078 <magic_mem.0>
    8000081c:	4889                	li	a7,2
    8000081e:	0000c697          	auipc	a3,0xc
    80000822:	be268693          	add	a3,a3,-1054 # 8000c400 <trap_table>
    80000826:	4e85                	li	t4,1
    80000828:	4e0d                	li	t3,3
    8000082a:	0000b797          	auipc	a5,0xb
    8000082e:	7d678793          	add	a5,a5,2006 # 8000c000 <files>
    80000832:	a021                	j	8000083a <file_init+0x28>
    80000834:	07a1                	add	a5,a5,8
    80000836:	06d78063          	beq	a5,a3,80000896 <file_init+0x84>
    8000083a:	43d8                	lw	a4,4(a5)
    8000083c:	ff65                	bnez	a4,80000834 <file_init+0x22>
    8000083e:	85be                	mv	a1,a5
    80000840:	00478513          	add	a0,a5,4
    80000844:	0f50000f          	fence	iorw,ow
    80000848:	1405272f          	lr.w.aq	a4,(a0)
    8000084c:	e701                	bnez	a4,80000854 <file_init+0x42>
    8000084e:	1d15262f          	sc.w.aq	a2,a7,(a0)
    80000852:	fa7d                	bnez	a2,80000848 <file_init+0x36>
    80000854:	2701                	sext.w	a4,a4
    80000856:	ff79                	bnez	a4,80000834 <file_init+0x22>
    80000858:	0067a023          	sw	t1,0(a5)
    8000085c:	0000d717          	auipc	a4,0xd
    80000860:	41c70713          	add	a4,a4,1052 # 8000dc78 <fds>
    80000864:	a021                	j	8000086c <file_init+0x5a>
    80000866:	0721                	add	a4,a4,8
    80000868:	03070363          	beq	a4,a6,8000088e <file_init+0x7c>
    8000086c:	0f50000f          	fence	iorw,ow
    80000870:	1407362f          	lr.d.aq	a2,(a4)
    80000874:	e601                	bnez	a2,8000087c <file_init+0x6a>
    80000876:	1cb7352f          	sc.d.aq	a0,a1,(a4)
    8000087a:	f97d                	bnez	a0,80000870 <file_init+0x5e>
    8000087c:	f66d                	bnez	a2,80000866 <file_init+0x54>
    8000087e:	0791                	add	a5,a5,4
    80000880:	0f50000f          	fence	iorw,ow
    80000884:	05d7a72f          	amoadd.w.aq	a4,t4,(a5)
    80000888:	0007079b          	sext.w	a5,a4
    8000088c:	cb81                	beqz	a5,8000089c <file_init+0x8a>
    8000088e:	2305                	addw	t1,t1,1
    80000890:	f9c31de3          	bne	t1,t3,8000082a <file_init+0x18>
    80000894:	8082                	ret
    80000896:	4581                	li	a1,0
    80000898:	4781                	li	a5,0
    8000089a:	bf7d                	j	80000858 <file_init+0x46>
    8000089c:	1141                	add	sp,sp,-16
    8000089e:	00009517          	auipc	a0,0x9
    800008a2:	6a250513          	add	a0,a0,1698 # 80009f40 <softfloat_countLeadingZeros8+0x308>
    800008a6:	e406                	sd	ra,8(sp)
    800008a8:	66a000ef          	jal	80000f12 <kassert_fail>

00000000800008ac <file_get>:
    800008ac:	07f00793          	li	a5,127
    800008b0:	02a7ef63          	bltu	a5,a0,800008ee <file_get+0x42>
    800008b4:	050e                	sll	a0,a0,0x3
    800008b6:	0000d797          	auipc	a5,0xd
    800008ba:	3c278793          	add	a5,a5,962 # 8000dc78 <fds>
    800008be:	97aa                	add	a5,a5,a0
    800008c0:	6388                	ld	a0,0(a5)
    800008c2:	e105                	bnez	a0,800008e2 <file_get+0x36>
    800008c4:	a02d                	j	800008ee <file_get+0x42>
    800008c6:	00450593          	add	a1,a0,4
    800008ca:	0f50000f          	fence	iorw,ow
    800008ce:	1405a72f          	lr.w.aq	a4,(a1)
    800008d2:	00f71563          	bne	a4,a5,800008dc <file_get+0x30>
    800008d6:	1cd5a62f          	sc.w.aq	a2,a3,(a1)
    800008da:	fa75                	bnez	a2,800008ce <file_get+0x22>
    800008dc:	2701                	sext.w	a4,a4
    800008de:	00e78a63          	beq	a5,a4,800008f2 <file_get+0x46>
    800008e2:	4158                	lw	a4,4(a0)
    800008e4:	0007079b          	sext.w	a5,a4
    800008e8:	0017869b          	addw	a3,a5,1
    800008ec:	ff69                	bnez	a4,800008c6 <file_get+0x1a>
    800008ee:	4501                	li	a0,0
    800008f0:	8082                	ret
    800008f2:	8082                	ret

00000000800008f4 <file_openat>:
    800008f4:	7179                	add	sp,sp,-48
    800008f6:	f022                	sd	s0,32(sp)
    800008f8:	ec26                	sd	s1,24(sp)
    800008fa:	e84a                	sd	s2,16(sp)
    800008fc:	e44e                	sd	s3,8(sp)
    800008fe:	e052                	sd	s4,0(sp)
    80000900:	f406                	sd	ra,40(sp)
    80000902:	892a                	mv	s2,a0
    80000904:	84ae                	mv	s1,a1
    80000906:	89b2                	mv	s3,a2
    80000908:	8a36                	mv	s4,a3
    8000090a:	0000b417          	auipc	s0,0xb
    8000090e:	6f640413          	add	s0,s0,1782 # 8000c000 <files>
    80000912:	4309                	li	t1,2
    80000914:	0000c897          	auipc	a7,0xc
    80000918:	aec88893          	add	a7,a7,-1300 # 8000c400 <trap_table>
    8000091c:	a021                	j	80000924 <file_openat+0x30>
    8000091e:	0421                	add	s0,s0,8
    80000920:	07140663          	beq	s0,a7,8000098c <file_openat+0x98>
    80000924:	00442803          	lw	a6,4(s0)
    80000928:	fe081be3          	bnez	a6,8000091e <file_openat+0x2a>
    8000092c:	00440793          	add	a5,s0,4
    80000930:	0f50000f          	fence	iorw,ow
    80000934:	1407a82f          	lr.w.aq	a6,(a5)
    80000938:	00081663          	bnez	a6,80000944 <file_openat+0x50>
    8000093c:	1c67ae2f          	sc.w.aq	t3,t1,(a5)
    80000940:	fe0e1ae3          	bnez	t3,80000934 <file_openat+0x40>
    80000944:	2801                	sext.w	a6,a6
    80000946:	fc081ce3          	bnez	a6,8000091e <file_openat+0x2a>
    8000094a:	8526                	mv	a0,s1
    8000094c:	550080ef          	jal	80008e9c <strlen>
    80000950:	00016617          	auipc	a2,0x16
    80000954:	73063603          	ld	a2,1840(a2) # 80017080 <kva2pa_offset>
    80000958:	00150693          	add	a3,a0,1
    8000095c:	40c48633          	sub	a2,s1,a2
    80000960:	4881                	li	a7,0
    80000962:	4801                	li	a6,0
    80000964:	87d2                	mv	a5,s4
    80000966:	874e                	mv	a4,s3
    80000968:	85ca                	mv	a1,s2
    8000096a:	03800513          	li	a0,56
    8000096e:	1ae000ef          	jal	80000b1c <frontend_syscall>
    80000972:	84aa                	mv	s1,a0
    80000974:	00054e63          	bltz	a0,80000990 <file_openat+0x9c>
    80000978:	c008                	sw	a0,0(s0)
    8000097a:	70a2                	ld	ra,40(sp)
    8000097c:	8522                	mv	a0,s0
    8000097e:	7402                	ld	s0,32(sp)
    80000980:	64e2                	ld	s1,24(sp)
    80000982:	6942                	ld	s2,16(sp)
    80000984:	69a2                	ld	s3,8(sp)
    80000986:	6a02                	ld	s4,0(sp)
    80000988:	6145                	add	sp,sp,48
    8000098a:	8082                	ret
    8000098c:	5451                	li	s0,-12
    8000098e:	b7f5                	j	8000097a <file_openat+0x86>
    80000990:	8522                	mv	a0,s0
    80000992:	da7ff0ef          	jal	80000738 <file_decref>
    80000996:	8426                	mv	s0,s1
    80000998:	b7cd                	j	8000097a <file_openat+0x86>

000000008000099a <file_open>:
    8000099a:	86b2                	mv	a3,a2
    8000099c:	862e                	mv	a2,a1
    8000099e:	85aa                	mv	a1,a0
    800009a0:	f9c00513          	li	a0,-100
    800009a4:	bf81                	j	800008f4 <file_openat>

00000000800009a6 <fd_close>:
    800009a6:	07f00793          	li	a5,127
    800009aa:	0aa7eb63          	bltu	a5,a0,80000a60 <fd_close+0xba>
    800009ae:	0000d597          	auipc	a1,0xd
    800009b2:	2ca58593          	add	a1,a1,714 # 8000dc78 <fds>
    800009b6:	050e                	sll	a0,a0,0x3
    800009b8:	1101                	add	sp,sp,-32
    800009ba:	00a587b3          	add	a5,a1,a0
    800009be:	e822                	sd	s0,16(sp)
    800009c0:	6380                	ld	s0,0(a5)
    800009c2:	ec06                	sd	ra,24(sp)
    800009c4:	e426                	sd	s1,8(sp)
    800009c6:	e005                	bnez	s0,800009e6 <fd_close+0x40>
    800009c8:	a02d                	j	800009f2 <fd_close+0x4c>
    800009ca:	00440493          	add	s1,s0,4
    800009ce:	0f50000f          	fence	iorw,ow
    800009d2:	1404a72f          	lr.w.aq	a4,(s1)
    800009d6:	00f71563          	bne	a4,a5,800009e0 <fd_close+0x3a>
    800009da:	1cd4a62f          	sc.w.aq	a2,a3,(s1)
    800009de:	fa75                	bnez	a2,800009d2 <fd_close+0x2c>
    800009e0:	2701                	sext.w	a4,a4
    800009e2:	00e78e63          	beq	a5,a4,800009fe <fd_close+0x58>
    800009e6:	4058                	lw	a4,4(s0)
    800009e8:	0007079b          	sext.w	a5,a4
    800009ec:	0017869b          	addw	a3,a5,1
    800009f0:	ff69                	bnez	a4,800009ca <fd_close+0x24>
    800009f2:	60e2                	ld	ra,24(sp)
    800009f4:	6442                	ld	s0,16(sp)
    800009f6:	64a2                	ld	s1,8(sp)
    800009f8:	557d                	li	a0,-1
    800009fa:	6105                	add	sp,sp,32
    800009fc:	8082                	ret
    800009fe:	00a587b3          	add	a5,a1,a0
    80000a02:	0f50000f          	fence	iorw,ow
    80000a06:	1407b4af          	lr.d.aq	s1,(a5)
    80000a0a:	00849563          	bne	s1,s0,80000a14 <fd_close+0x6e>
    80000a0e:	1c07b72f          	sc.d.aq	a4,zero,(a5)
    80000a12:	fb75                	bnez	a4,80000a06 <fd_close+0x60>
    80000a14:	577d                	li	a4,-1
    80000a16:	00440693          	add	a3,s0,4
    80000a1a:	0f50000f          	fence	iorw,ow
    80000a1e:	04e6a7af          	amoadd.w.aq	a5,a4,(a3)
    80000a22:	2781                	sext.w	a5,a5
    80000a24:	4709                	li	a4,2
    80000a26:	00e78d63          	beq	a5,a4,80000a40 <fd_close+0x9a>
    80000a2a:	fc9414e3          	bne	s0,s1,800009f2 <fd_close+0x4c>
    80000a2e:	8522                	mv	a0,s0
    80000a30:	d09ff0ef          	jal	80000738 <file_decref>
    80000a34:	60e2                	ld	ra,24(sp)
    80000a36:	6442                	ld	s0,16(sp)
    80000a38:	64a2                	ld	s1,8(sp)
    80000a3a:	4501                	li	a0,0
    80000a3c:	6105                	add	sp,sp,32
    80000a3e:	8082                	ret
    80000a40:	400c                	lw	a1,0(s0)
    80000a42:	0ff0000f          	fence
    80000a46:	4881                	li	a7,0
    80000a48:	00042223          	sw	zero,4(s0)
    80000a4c:	4801                	li	a6,0
    80000a4e:	4781                	li	a5,0
    80000a50:	4701                	li	a4,0
    80000a52:	4681                	li	a3,0
    80000a54:	4601                	li	a2,0
    80000a56:	03900513          	li	a0,57
    80000a5a:	0c2000ef          	jal	80000b1c <frontend_syscall>
    80000a5e:	b7f1                	j	80000a2a <fd_close+0x84>
    80000a60:	557d                	li	a0,-1
    80000a62:	8082                	ret

0000000080000a64 <file_read>:
    80000a64:	832e                	mv	t1,a1
    80000a66:	410c                	lw	a1,0(a0)
    80000a68:	86b2                	mv	a3,a2
    80000a6a:	00016617          	auipc	a2,0x16
    80000a6e:	61663603          	ld	a2,1558(a2) # 80017080 <kva2pa_offset>
    80000a72:	4881                	li	a7,0
    80000a74:	4801                	li	a6,0
    80000a76:	4781                	li	a5,0
    80000a78:	4701                	li	a4,0
    80000a7a:	40c30633          	sub	a2,t1,a2
    80000a7e:	03f00513          	li	a0,63
    80000a82:	a869                	j	80000b1c <frontend_syscall>

0000000080000a84 <file_pread>:
    80000a84:	832e                	mv	t1,a1
    80000a86:	410c                	lw	a1,0(a0)
    80000a88:	8736                	mv	a4,a3
    80000a8a:	86b2                	mv	a3,a2
    80000a8c:	00016617          	auipc	a2,0x16
    80000a90:	5f463603          	ld	a2,1524(a2) # 80017080 <kva2pa_offset>
    80000a94:	4881                	li	a7,0
    80000a96:	4801                	li	a6,0
    80000a98:	4781                	li	a5,0
    80000a9a:	40c30633          	sub	a2,t1,a2
    80000a9e:	04300513          	li	a0,67
    80000aa2:	a8ad                	j	80000b1c <frontend_syscall>

0000000080000aa4 <file_write>:
    80000aa4:	832e                	mv	t1,a1
    80000aa6:	410c                	lw	a1,0(a0)
    80000aa8:	86b2                	mv	a3,a2
    80000aaa:	00016617          	auipc	a2,0x16
    80000aae:	5d663603          	ld	a2,1494(a2) # 80017080 <kva2pa_offset>
    80000ab2:	4881                	li	a7,0
    80000ab4:	4801                	li	a6,0
    80000ab6:	4781                	li	a5,0
    80000ab8:	4701                	li	a4,0
    80000aba:	40c30633          	sub	a2,t1,a2
    80000abe:	04000513          	li	a0,64
    80000ac2:	a8a9                	j	80000b1c <frontend_syscall>

0000000080000ac4 <file_pwrite>:
    80000ac4:	832e                	mv	t1,a1
    80000ac6:	410c                	lw	a1,0(a0)
    80000ac8:	8736                	mv	a4,a3
    80000aca:	86b2                	mv	a3,a2
    80000acc:	00016617          	auipc	a2,0x16
    80000ad0:	5b463603          	ld	a2,1460(a2) # 80017080 <kva2pa_offset>
    80000ad4:	4881                	li	a7,0
    80000ad6:	4801                	li	a6,0
    80000ad8:	4781                	li	a5,0
    80000ada:	40c30633          	sub	a2,t1,a2
    80000ade:	04400513          	li	a0,68
    80000ae2:	a82d                	j	80000b1c <frontend_syscall>

0000000080000ae4 <file_truncate>:
    80000ae4:	862e                	mv	a2,a1
    80000ae6:	410c                	lw	a1,0(a0)
    80000ae8:	1141                	add	sp,sp,-16
    80000aea:	4881                	li	a7,0
    80000aec:	4801                	li	a6,0
    80000aee:	4781                	li	a5,0
    80000af0:	4701                	li	a4,0
    80000af2:	4681                	li	a3,0
    80000af4:	02e00513          	li	a0,46
    80000af8:	e406                	sd	ra,8(sp)
    80000afa:	022000ef          	jal	80000b1c <frontend_syscall>
    80000afe:	60a2                	ld	ra,8(sp)
    80000b00:	2501                	sext.w	a0,a0
    80000b02:	0141                	add	sp,sp,16
    80000b04:	8082                	ret

0000000080000b06 <file_lseek>:
    80000b06:	832e                	mv	t1,a1
    80000b08:	410c                	lw	a1,0(a0)
    80000b0a:	86b2                	mv	a3,a2
    80000b0c:	4881                	li	a7,0
    80000b0e:	4801                	li	a6,0
    80000b10:	4781                	li	a5,0
    80000b12:	4701                	li	a4,0
    80000b14:	861a                	mv	a2,t1
    80000b16:	03e00513          	li	a0,62
    80000b1a:	a009                	j	80000b1c <frontend_syscall>

0000000080000b1c <frontend_syscall>:
    80000b1c:	1141                	add	sp,sp,-16
    80000b1e:	e406                	sd	ra,8(sp)
    80000b20:	e022                	sd	s0,0(sp)
    80000b22:	00016e17          	auipc	t3,0x16
    80000b26:	506e0e13          	add	t3,t3,1286 # 80017028 <lock.1>
    80000b2a:	5efd                	li	t4,-1
    80000b2c:	000e2303          	lw	t1,0(t3)
    80000b30:	fe031ee3          	bnez	t1,80000b2c <frontend_syscall+0x10>
    80000b34:	8376                	mv	t1,t4
    80000b36:	0c6e232f          	amoswap.w.aq	t1,t1,(t3)
    80000b3a:	2301                	sext.w	t1,t1
    80000b3c:	0ff0000f          	fence
    80000b40:	fe0316e3          	bnez	t1,80000b2c <frontend_syscall+0x10>
    80000b44:	0000d417          	auipc	s0,0xd
    80000b48:	53440413          	add	s0,s0,1332 # 8000e078 <magic_mem.0>
    80000b4c:	e008                	sd	a0,0(s0)
    80000b4e:	e40c                	sd	a1,8(s0)
    80000b50:	e810                	sd	a2,16(s0)
    80000b52:	ec14                	sd	a3,24(s0)
    80000b54:	f018                	sd	a4,32(s0)
    80000b56:	f41c                	sd	a5,40(s0)
    80000b58:	03043823          	sd	a6,48(s0)
    80000b5c:	57fd                	li	a5,-1
    80000b5e:	03143c23          	sd	a7,56(s0)
    80000b62:	179a                	sll	a5,a5,0x26
    80000b64:	8522                	mv	a0,s0
    80000b66:	00f46863          	bltu	s0,a5,80000b76 <frontend_syscall+0x5a>
    80000b6a:	00016517          	auipc	a0,0x16
    80000b6e:	51653503          	ld	a0,1302(a0) # 80017080 <kva2pa_offset>
    80000b72:	40a40533          	sub	a0,s0,a0
    80000b76:	513020ef          	jal	80003888 <htif_syscall>
    80000b7a:	6008                	ld	a0,0(s0)
    80000b7c:	0ff0000f          	fence
    80000b80:	60a2                	ld	ra,8(sp)
    80000b82:	6402                	ld	s0,0(sp)
    80000b84:	00016797          	auipc	a5,0x16
    80000b88:	4a07a223          	sw	zero,1188(a5) # 80017028 <lock.1>
    80000b8c:	0141                	add	sp,sp,16
    80000b8e:	8082                	ret

0000000080000b90 <shutdown>:
    80000b90:	1141                	add	sp,sp,-16
    80000b92:	85aa                	mv	a1,a0
    80000b94:	4881                	li	a7,0
    80000b96:	4801                	li	a6,0
    80000b98:	4781                	li	a5,0
    80000b9a:	4701                	li	a4,0
    80000b9c:	4681                	li	a3,0
    80000b9e:	4601                	li	a2,0
    80000ba0:	05d00513          	li	a0,93
    80000ba4:	e406                	sd	ra,8(sp)
    80000ba6:	f77ff0ef          	jal	80000b1c <frontend_syscall>
    80000baa:	a001                	j	80000baa <shutdown+0x1a>

0000000080000bac <load_elf>:
    80000bac:	7131                	add	sp,sp,-192
    80000bae:	f14a                	sd	s2,160(sp)
    80000bb0:	4601                	li	a2,0
    80000bb2:	892e                	mv	s2,a1
    80000bb4:	4581                	li	a1,0
    80000bb6:	fd06                	sd	ra,184(sp)
    80000bb8:	f922                	sd	s0,176(sp)
    80000bba:	f526                	sd	s1,168(sp)
    80000bbc:	ed4e                	sd	s3,152(sp)
    80000bbe:	e952                	sd	s4,144(sp)
    80000bc0:	e556                	sd	s5,136(sp)
    80000bc2:	e15a                	sd	s6,128(sp)
    80000bc4:	fcde                	sd	s7,120(sp)
    80000bc6:	f8e2                	sd	s8,112(sp)
    80000bc8:	f4e6                	sd	s9,104(sp)
    80000bca:	f0ea                	sd	s10,96(sp)
    80000bcc:	ecee                	sd	s11,88(sp)
    80000bce:	e42a                	sd	a0,8(sp)
    80000bd0:	dcbff0ef          	jal	8000099a <file_open>
    80000bd4:	77fd                	lui	a5,0xfffff
    80000bd6:	18f57663          	bgeu	a0,a5,80000d62 <load_elf+0x1b6>
    80000bda:	4681                	li	a3,0
    80000bdc:	04000613          	li	a2,64
    80000be0:	080c                	add	a1,sp,16
    80000be2:	8a2a                	mv	s4,a0
    80000be4:	ea1ff0ef          	jal	80000a84 <file_pread>
    80000be8:	03f00793          	li	a5,63
    80000bec:	16a7db63          	bge	a5,a0,80000d62 <load_elf+0x1b6>
    80000bf0:	67c2                	ld	a5,16(sp)
    80000bf2:	464c4737          	lui	a4,0x464c4
    80000bf6:	57f70713          	add	a4,a4,1407 # 464c457f <_ftext-0x39b3ba81>
    80000bfa:	02079693          	sll	a3,a5,0x20
    80000bfe:	9281                	srl	a3,a3,0x20
    80000c00:	54fd                	li	s1,-1
    80000c02:	16e69063          	bne	a3,a4,80000d62 <load_elf+0x1b6>
    80000c06:	0184d713          	srl	a4,s1,0x18
    80000c0a:	8ff9                	and	a5,a5,a4
    80000c0c:	0000c717          	auipc	a4,0xc
    80000c10:	87473703          	ld	a4,-1932(a4) # 8000c480 <trap_table+0x80>
    80000c14:	18e79e63          	bne	a5,a4,80000db0 <load_elf+0x204>
    80000c18:	04815783          	lhu	a5,72(sp)
    80000c1c:	01893703          	ld	a4,24(s2)
    80000c20:	00379413          	sll	s0,a5,0x3
    80000c24:	8c1d                	sub	s0,s0,a5
    80000c26:	040e                	sll	s0,s0,0x3
    80000c28:	12876d63          	bltu	a4,s0,80000d62 <load_elf+0x1b6>
    80000c2c:	76c2                	ld	a3,48(sp)
    80000c2e:	01093583          	ld	a1,16(s2)
    80000c32:	8622                	mv	a2,s0
    80000c34:	8552                	mv	a0,s4
    80000c36:	e4fff0ef          	jal	80000a84 <file_pread>
    80000c3a:	12854463          	blt	a0,s0,80000d62 <load_elf+0x1b6>
    80000c3e:	02015983          	lhu	s3,32(sp)
    80000c42:	04815703          	lhu	a4,72(sp)
    80000c46:	76a2                	ld	a3,40(sp)
    80000c48:	19f5                	add	s3,s3,-3
    80000c4a:	0019b993          	seqz	s3,s3
    80000c4e:	09b2                	sll	s3,s3,0xc
    80000c50:	0007079b          	sext.w	a5,a4
    80000c54:	03800613          	li	a2,56
    80000c58:	96ce                	add	a3,a3,s3
    80000c5a:	00f92223          	sw	a5,4(s2)
    80000c5e:	00c92023          	sw	a2,0(s2)
    80000c62:	02d93423          	sd	a3,40(s2)
    80000c66:	37fd                	addw	a5,a5,-1 # ffffffffffffefff <_end+0xffffffff7ffe6fff>
    80000c68:	01093603          	ld	a2,16(s2)
    80000c6c:	10978a63          	beq	a5,s1,80000d80 <load_elf+0x1d4>
    80000c70:	fff7069b          	addw	a3,a4,-1
    80000c74:	00371c93          	sll	s9,a4,0x3
    80000c78:	1682                	sll	a3,a3,0x20
    80000c7a:	9281                	srl	a3,a3,0x20
    80000c7c:	40ec8cb3          	sub	s9,s9,a4
    80000c80:	00379413          	sll	s0,a5,0x3
    80000c84:	0c8e                	sll	s9,s9,0x3
    80000c86:	00369713          	sll	a4,a3,0x3
    80000c8a:	8c1d                	sub	s0,s0,a5
    80000c8c:	f90c8c93          	add	s9,s9,-112
    80000c90:	40d707b3          	sub	a5,a4,a3
    80000c94:	040e                	sll	s0,s0,0x3
    80000c96:	9cb2                	add	s9,s9,a2
    80000c98:	078e                	sll	a5,a5,0x3
    80000c9a:	6a85                	lui	s5,0x1
    80000c9c:	9432                	add	s0,s0,a2
    80000c9e:	40fc8cb3          	sub	s9,s9,a5
    80000ca2:	4d8d                	li	s11,3
    80000ca4:	4b05                	li	s6,1
    80000ca6:	1afd                	add	s5,s5,-1 # fff <_ftext-0x7ffff001>
    80000ca8:	a029                	j	80000cb2 <load_elf+0x106>
    80000caa:	fc840413          	add	s0,s0,-56
    80000cae:	0c8c8963          	beq	s9,s0,80000d80 <load_elf+0x1d4>
    80000cb2:	401c                	lw	a5,0(s0)
    80000cb4:	0fb78863          	beq	a5,s11,80000da4 <load_elf+0x1f8>
    80000cb8:	ff6799e3          	bne	a5,s6,80000caa <load_elf+0xfe>
    80000cbc:	741c                	ld	a5,40(s0)
    80000cbe:	d7f5                	beqz	a5,80000caa <load_elf+0xfe>
    80000cc0:	01043c03          	ld	s8,16(s0)
    80000cc4:	03093703          	ld	a4,48(s2)
    80000cc8:	013c0bb3          	add	s7,s8,s3
    80000ccc:	97de                	add	a5,a5,s7
    80000cce:	015c7c33          	and	s8,s8,s5
    80000cd2:	00f77463          	bgeu	a4,a5,80000cda <load_elf+0x12e>
    80000cd6:	02f93823          	sd	a5,48(s2)
    80000cda:	4058                	lw	a4,4(s0)
    80000cdc:	641c                	ld	a5,8(s0)
    80000cde:	700c                	ld	a1,32(s0)
    80000ce0:	0027149b          	sllw	s1,a4,0x2
    80000ce4:	0027561b          	srlw	a2,a4,0x2
    80000ce8:	018036b3          	snez	a3,s8
    80000cec:	8a05                	and	a2,a2,1
    80000cee:	8891                	and	s1,s1,4
    80000cf0:	00f6969b          	sllw	a3,a3,0xf
    80000cf4:	8cd1                	or	s1,s1,a2
    80000cf6:	418b8d33          	sub	s10,s7,s8
    80000cfa:	0126e693          	or	a3,a3,18
    80000cfe:	00277813          	and	a6,a4,2
    80000d02:	0024e613          	or	a2,s1,2
    80000d06:	418787b3          	sub	a5,a5,s8
    80000d0a:	8752                	mv	a4,s4
    80000d0c:	2681                	sext.w	a3,a3
    80000d0e:	95e2                	add	a1,a1,s8
    80000d10:	856a                	mv	a0,s10
    80000d12:	0104e4b3          	or	s1,s1,a6
    80000d16:	778000ef          	jal	8000148e <__do_mmap>
    80000d1a:	04ad1463          	bne	s10,a0,80000d62 <load_elf+0x1b6>
    80000d1e:	8662                	mv	a2,s8
    80000d20:	4581                	li	a1,0
    80000d22:	73d000ef          	jal	80001c5e <memset_user>
    80000d26:	0024f793          	and	a5,s1,2
    80000d2a:	c3b9                	beqz	a5,80000d70 <load_elf+0x1c4>
    80000d2c:	02043803          	ld	a6,32(s0)
    80000d30:	740c                	ld	a1,40(s0)
    80000d32:	187d                	add	a6,a6,-1
    80000d34:	9862                	add	a6,a6,s8
    80000d36:	00c85813          	srl	a6,a6,0xc
    80000d3a:	0805                	add	a6,a6,1
    80000d3c:	0832                	sll	a6,a6,0xc
    80000d3e:	418807b3          	sub	a5,a6,s8
    80000d42:	f6b7f4e3          	bgeu	a5,a1,80000caa <load_elf+0xfe>
    80000d46:	9bbe                	add	s7,s7,a5
    80000d48:	95e2                	add	a1,a1,s8
    80000d4a:	4781                	li	a5,0
    80000d4c:	4701                	li	a4,0
    80000d4e:	03200693          	li	a3,50
    80000d52:	8626                	mv	a2,s1
    80000d54:	410585b3          	sub	a1,a1,a6
    80000d58:	855e                	mv	a0,s7
    80000d5a:	734000ef          	jal	8000148e <__do_mmap>
    80000d5e:	f4ab86e3          	beq	s7,a0,80000caa <load_elf+0xfe>
    80000d62:	65a2                	ld	a1,8(sp)
    80000d64:	00009517          	auipc	a0,0x9
    80000d68:	25450513          	add	a0,a0,596 # 80009fb8 <softfloat_countLeadingZeros8+0x380>
    80000d6c:	182000ef          	jal	80000eee <do_panic>
    80000d70:	700c                	ld	a1,32(s0)
    80000d72:	8626                	mv	a2,s1
    80000d74:	856a                	mv	a0,s10
    80000d76:	95e2                	add	a1,a1,s8
    80000d78:	357000ef          	jal	800018ce <do_mprotect>
    80000d7c:	d945                	beqz	a0,80000d2c <load_elf+0x180>
    80000d7e:	b7d5                	j	80000d62 <load_elf+0x1b6>
    80000d80:	8552                	mv	a0,s4
    80000d82:	9b7ff0ef          	jal	80000738 <file_decref>
    80000d86:	70ea                	ld	ra,184(sp)
    80000d88:	744a                	ld	s0,176(sp)
    80000d8a:	74aa                	ld	s1,168(sp)
    80000d8c:	790a                	ld	s2,160(sp)
    80000d8e:	69ea                	ld	s3,152(sp)
    80000d90:	6a4a                	ld	s4,144(sp)
    80000d92:	6aaa                	ld	s5,136(sp)
    80000d94:	6b0a                	ld	s6,128(sp)
    80000d96:	7be6                	ld	s7,120(sp)
    80000d98:	7c46                	ld	s8,112(sp)
    80000d9a:	7ca6                	ld	s9,104(sp)
    80000d9c:	7d06                	ld	s10,96(sp)
    80000d9e:	6de6                	ld	s11,88(sp)
    80000da0:	6129                	add	sp,sp,192
    80000da2:	8082                	ret
    80000da4:	00009517          	auipc	a0,0x9
    80000da8:	1ec50513          	add	a0,a0,492 # 80009f90 <softfloat_countLeadingZeros8+0x358>
    80000dac:	142000ef          	jal	80000eee <do_panic>
    80000db0:	00009517          	auipc	a0,0x9
    80000db4:	1c050513          	add	a0,a0,448 # 80009f70 <softfloat_countLeadingZeros8+0x338>
    80000db8:	00009697          	auipc	a3,0x9
    80000dbc:	19868693          	add	a3,a3,408 # 80009f50 <softfloat_countLeadingZeros8+0x318>
    80000dc0:	02900613          	li	a2,41
    80000dc4:	00009597          	auipc	a1,0x9
    80000dc8:	19c58593          	add	a1,a1,412 # 80009f60 <softfloat_countLeadingZeros8+0x328>
    80000dcc:	304020ef          	jal	800030d0 <printm>
    80000dd0:	6541                	lui	a0,0x10
    80000dd2:	157d                	add	a0,a0,-1 # ffff <_ftext-0x7fff0001>
    80000dd4:	3a8020ef          	jal	8000317c <poweroff>

0000000080000dd8 <vprintk>:
    80000dd8:	716d                	add	sp,sp,-272
    80000dda:	e222                	sd	s0,256(sp)
    80000ddc:	840a                	mv	s0,sp
    80000dde:	86ae                	mv	a3,a1
    80000de0:	862a                	mv	a2,a0
    80000de2:	10000593          	li	a1,256
    80000de6:	8522                	mv	a0,s0
    80000de8:	e606                	sd	ra,264(sp)
    80000dea:	5bf070ef          	jal	80008ba8 <vsnprintf>
    80000dee:	0005071b          	sext.w	a4,a0
    80000df2:	0ff00793          	li	a5,255
    80000df6:	10000693          	li	a3,256
    80000dfa:	00e7e363          	bltu	a5,a4,80000e00 <vprintk+0x28>
    80000dfe:	86aa                	mv	a3,a0
    80000e00:	00016617          	auipc	a2,0x16
    80000e04:	28063603          	ld	a2,640(a2) # 80017080 <kva2pa_offset>
    80000e08:	40c40633          	sub	a2,s0,a2
    80000e0c:	4881                	li	a7,0
    80000e0e:	4801                	li	a6,0
    80000e10:	4781                	li	a5,0
    80000e12:	4701                	li	a4,0
    80000e14:	4589                	li	a1,2
    80000e16:	04000513          	li	a0,64
    80000e1a:	d03ff0ef          	jal	80000b1c <frontend_syscall>
    80000e1e:	60b2                	ld	ra,264(sp)
    80000e20:	6412                	ld	s0,256(sp)
    80000e22:	6151                	add	sp,sp,272
    80000e24:	8082                	ret

0000000080000e26 <printk>:
    80000e26:	711d                	add	sp,sp,-96
    80000e28:	02810313          	add	t1,sp,40
    80000e2c:	f42e                	sd	a1,40(sp)
    80000e2e:	859a                	mv	a1,t1
    80000e30:	ec06                	sd	ra,24(sp)
    80000e32:	f832                	sd	a2,48(sp)
    80000e34:	fc36                	sd	a3,56(sp)
    80000e36:	e0ba                	sd	a4,64(sp)
    80000e38:	e4be                	sd	a5,72(sp)
    80000e3a:	e8c2                	sd	a6,80(sp)
    80000e3c:	ecc6                	sd	a7,88(sp)
    80000e3e:	e41a                	sd	t1,8(sp)
    80000e40:	f99ff0ef          	jal	80000dd8 <vprintk>
    80000e44:	60e2                	ld	ra,24(sp)
    80000e46:	6125                	add	sp,sp,96
    80000e48:	8082                	ret

0000000080000e4a <dump_tf>:
    80000e4a:	715d                	add	sp,sp,-80
    80000e4c:	f44e                	sd	s3,40(sp)
    80000e4e:	f052                	sd	s4,32(sp)
    80000e50:	ec56                	sd	s5,24(sp)
    80000e52:	e85a                	sd	s6,16(sp)
    80000e54:	e45e                	sd	s7,8(sp)
    80000e56:	e062                	sd	s8,0(sp)
    80000e58:	e486                	sd	ra,72(sp)
    80000e5a:	e0a2                	sd	s0,64(sp)
    80000e5c:	fc26                	sd	s1,56(sp)
    80000e5e:	f84a                	sd	s2,48(sp)
    80000e60:	8c2a                	mv	s8,a0
    80000e62:	00053023          	sd	zero,0(a0)
    80000e66:	00008b97          	auipc	s7,0x8
    80000e6a:	0f2b8b93          	add	s7,s7,242 # 80008f58 <regnames.0>
    80000e6e:	8b2a                	mv	s6,a0
    80000e70:	4a81                	li	s5,0
    80000e72:	4a0d                	li	s4,3
    80000e74:	00009997          	auipc	s3,0x9
    80000e78:	16498993          	add	s3,s3,356 # 80009fd8 <softfloat_countLeadingZeros8+0x3a0>
    80000e7c:	895a                	mv	s2,s6
    80000e7e:	845e                	mv	s0,s7
    80000e80:	4481                	li	s1,0
    80000e82:	00093603          	ld	a2,0(s2)
    80000e86:	85a2                	mv	a1,s0
    80000e88:	02000693          	li	a3,32
    80000e8c:	854e                	mv	a0,s3
    80000e8e:	01448f63          	beq	s1,s4,80000eac <dump_tf+0x62>
    80000e92:	f95ff0ef          	jal	80000e26 <printk>
    80000e96:	040d                	add	s0,s0,3
    80000e98:	2485                	addw	s1,s1,1
    80000e9a:	0921                	add	s2,s2,8
    80000e9c:	85a2                	mv	a1,s0
    80000e9e:	02000693          	li	a3,32
    80000ea2:	854e                	mv	a0,s3
    80000ea4:	00093603          	ld	a2,0(s2)
    80000ea8:	ff4495e3          	bne	s1,s4,80000e92 <dump_tf+0x48>
    80000eac:	46a9                	li	a3,10
    80000eae:	f79ff0ef          	jal	80000e26 <printk>
    80000eb2:	2a91                	addw	s5,s5,4
    80000eb4:	02000793          	li	a5,32
    80000eb8:	0bb1                	add	s7,s7,12
    80000eba:	020b0b13          	add	s6,s6,32
    80000ebe:	fafa9fe3          	bne	s5,a5,80000e7c <dump_tf+0x32>
    80000ec2:	6406                	ld	s0,64(sp)
    80000ec4:	100c3683          	ld	a3,256(s8)
    80000ec8:	110c3603          	ld	a2,272(s8)
    80000ecc:	108c3583          	ld	a1,264(s8)
    80000ed0:	60a6                	ld	ra,72(sp)
    80000ed2:	74e2                	ld	s1,56(sp)
    80000ed4:	7942                	ld	s2,48(sp)
    80000ed6:	79a2                	ld	s3,40(sp)
    80000ed8:	7a02                	ld	s4,32(sp)
    80000eda:	6ae2                	ld	s5,24(sp)
    80000edc:	6b42                	ld	s6,16(sp)
    80000ede:	6ba2                	ld	s7,8(sp)
    80000ee0:	6c02                	ld	s8,0(sp)
    80000ee2:	00009517          	auipc	a0,0x9
    80000ee6:	10650513          	add	a0,a0,262 # 80009fe8 <softfloat_countLeadingZeros8+0x3b0>
    80000eea:	6161                	add	sp,sp,80
    80000eec:	bf2d                	j	80000e26 <printk>

0000000080000eee <do_panic>:
    80000eee:	711d                	add	sp,sp,-96
    80000ef0:	02810313          	add	t1,sp,40
    80000ef4:	f42e                	sd	a1,40(sp)
    80000ef6:	859a                	mv	a1,t1
    80000ef8:	ec06                	sd	ra,24(sp)
    80000efa:	f832                	sd	a2,48(sp)
    80000efc:	fc36                	sd	a3,56(sp)
    80000efe:	e0ba                	sd	a4,64(sp)
    80000f00:	e4be                	sd	a5,72(sp)
    80000f02:	e8c2                	sd	a6,80(sp)
    80000f04:	ecc6                	sd	a7,88(sp)
    80000f06:	e41a                	sd	t1,8(sp)
    80000f08:	ed1ff0ef          	jal	80000dd8 <vprintk>
    80000f0c:	557d                	li	a0,-1
    80000f0e:	c83ff0ef          	jal	80000b90 <shutdown>

0000000080000f12 <kassert_fail>:
    80000f12:	1141                	add	sp,sp,-16
    80000f14:	862a                	mv	a2,a0
    80000f16:	8586                	mv	a1,ra
    80000f18:	00009517          	auipc	a0,0x9
    80000f1c:	0f050513          	add	a0,a0,240 # 8000a008 <softfloat_countLeadingZeros8+0x3d0>
    80000f20:	e406                	sd	ra,8(sp)
    80000f22:	fcdff0ef          	jal	80000eee <do_panic>

0000000080000f26 <__vm_alloc_at>:
    80000f26:	882a                	mv	a6,a0
    80000f28:	06a5e763          	bltu	a1,a0,80000f96 <__vm_alloc_at+0x70>
    80000f2c:	fff60e13          	add	t3,a2,-1
    80000f30:	00016897          	auipc	a7,0x16
    80000f34:	1408b883          	ld	a7,320(a7) # 80017070 <root_page_table>
    80000f38:	00016617          	auipc	a2,0x16
    80000f3c:	14863603          	ld	a2,328(a2) # 80017080 <kva2pa_offset>
    80000f40:	0e32                	sll	t3,t3,0xc
    80000f42:	737d                	lui	t1,0xfffff
    80000f44:	6e85                	lui	t4,0x1
    80000f46:	01e85793          	srl	a5,a6,0x1e
    80000f4a:	1ff7f793          	and	a5,a5,511
    80000f4e:	078e                	sll	a5,a5,0x3
    80000f50:	97c6                	add	a5,a5,a7
    80000f52:	6398                	ld	a4,0(a5)
    80000f54:	00177793          	and	a5,a4,1
    80000f58:	c3a9                	beqz	a5,80000f9a <__vm_alloc_at+0x74>
    80000f5a:	01585793          	srl	a5,a6,0x15
    80000f5e:	1ff7f793          	and	a5,a5,511
    80000f62:	8329                	srl	a4,a4,0xa
    80000f64:	078e                	sll	a5,a5,0x3
    80000f66:	0732                	sll	a4,a4,0xc
    80000f68:	97b2                	add	a5,a5,a2
    80000f6a:	97ba                	add	a5,a5,a4
    80000f6c:	639c                	ld	a5,0(a5)
    80000f6e:	0017f713          	and	a4,a5,1
    80000f72:	c705                	beqz	a4,80000f9a <__vm_alloc_at+0x74>
    80000f74:	83a9                	srl	a5,a5,0xa
    80000f76:	00c85713          	srl	a4,a6,0xc
    80000f7a:	07b2                	sll	a5,a5,0xc
    80000f7c:	1ff77713          	and	a4,a4,511
    80000f80:	97b2                	add	a5,a5,a2
    80000f82:	070e                	sll	a4,a4,0x3
    80000f84:	97ba                	add	a5,a5,a4
    80000f86:	cb91                	beqz	a5,80000f9a <__vm_alloc_at+0x74>
    80000f88:	639c                	ld	a5,0(a5)
    80000f8a:	cb81                	beqz	a5,80000f9a <__vm_alloc_at+0x74>
    80000f8c:	8542                	mv	a0,a6
    80000f8e:	01d50833          	add	a6,a0,t4
    80000f92:	fb05fae3          	bgeu	a1,a6,80000f46 <__vm_alloc_at+0x20>
    80000f96:	4501                	li	a0,0
    80000f98:	8082                	ret
    80000f9a:	010e0533          	add	a0,t3,a6
    80000f9e:	fea87de3          	bgeu	a6,a0,80000f98 <__vm_alloc_at+0x72>
    80000fa2:	01e55713          	srl	a4,a0,0x1e
    80000fa6:	1ff77713          	and	a4,a4,511
    80000faa:	070e                	sll	a4,a4,0x3
    80000fac:	9746                	add	a4,a4,a7
    80000fae:	6314                	ld	a3,0(a4)
    80000fb0:	01555793          	srl	a5,a0,0x15
    80000fb4:	1ff7f793          	and	a5,a5,511
    80000fb8:	00a6df13          	srl	t5,a3,0xa
    80000fbc:	078e                	sll	a5,a5,0x3
    80000fbe:	00c55713          	srl	a4,a0,0xc
    80000fc2:	97b2                	add	a5,a5,a2
    80000fc4:	1ff77713          	and	a4,a4,511
    80000fc8:	0f32                	sll	t5,t5,0xc
    80000fca:	8a85                	and	a3,a3,1
    80000fcc:	97fa                	add	a5,a5,t5
    80000fce:	070e                	sll	a4,a4,0x3
    80000fd0:	ce99                	beqz	a3,80000fee <__vm_alloc_at+0xc8>
    80000fd2:	6394                	ld	a3,0(a5)
    80000fd4:	00a6d793          	srl	a5,a3,0xa
    80000fd8:	07b2                	sll	a5,a5,0xc
    80000fda:	97b2                	add	a5,a5,a2
    80000fdc:	8a85                	and	a3,a3,1
    80000fde:	97ba                	add	a5,a5,a4
    80000fe0:	c699                	beqz	a3,80000fee <__vm_alloc_at+0xc8>
    80000fe2:	c791                	beqz	a5,80000fee <__vm_alloc_at+0xc8>
    80000fe4:	639c                	ld	a5,0(a5)
    80000fe6:	c781                	beqz	a5,80000fee <__vm_alloc_at+0xc8>
    80000fe8:	faa863e3          	bltu	a6,a0,80000f8e <__vm_alloc_at+0x68>
    80000fec:	8082                	ret
    80000fee:	951a                	add	a0,a0,t1
    80000ff0:	faa869e3          	bltu	a6,a0,80000fa2 <__vm_alloc_at+0x7c>
    80000ff4:	8082                	ret

0000000080000ff6 <__augment_page_freelist>:
    80000ff6:	00016697          	auipc	a3,0x16
    80000ffa:	06268693          	add	a3,a3,98 # 80017058 <next_free_page>
    80000ffe:	629c                	ld	a5,0(a3)
    80001000:	00178713          	add	a4,a5,1
    80001004:	cb31                	beqz	a4,80001058 <__augment_page_freelist+0x62>
    80001006:	00016617          	auipc	a2,0x16
    8000100a:	04a63603          	ld	a2,74(a2) # 80017050 <free_pages>
    8000100e:	04e66563          	bltu	a2,a4,80001058 <__augment_page_freelist+0x62>
    80001012:	1141                	add	sp,sp,-16
    80001014:	e022                	sd	s0,0(sp)
    80001016:	e406                	sd	ra,8(sp)
    80001018:	07b2                	sll	a5,a5,0xc
    8000101a:	00016617          	auipc	a2,0x16
    8000101e:	04663603          	ld	a2,70(a2) # 80017060 <first_free_page>
    80001022:	00c78433          	add	s0,a5,a2
    80001026:	e298                	sd	a4,0(a3)
    80001028:	4501                	li	a0,0
    8000102a:	c01d                	beqz	s0,80001050 <__augment_page_freelist+0x5a>
    8000102c:	030000ef          	jal	8000105c <__maybe_fuzz_page_freelist>
    80001030:	00016717          	auipc	a4,0x16
    80001034:	00870713          	add	a4,a4,8 # 80017038 <page_freelist_depth>
    80001038:	631c                	ld	a5,0(a4)
    8000103a:	4505                	li	a0,1
    8000103c:	00178693          	add	a3,a5,1
    80001040:	e314                	sd	a3,0(a4)
    80001042:	078e                	sll	a5,a5,0x3
    80001044:	00016717          	auipc	a4,0x16
    80001048:	fec73703          	ld	a4,-20(a4) # 80017030 <page_freelist_storage>
    8000104c:	97ba                	add	a5,a5,a4
    8000104e:	e380                	sd	s0,0(a5)
    80001050:	60a2                	ld	ra,8(sp)
    80001052:	6402                	ld	s0,0(sp)
    80001054:	0141                	add	sp,sp,16
    80001056:	8082                	ret
    80001058:	4501                	li	a0,0
    8000105a:	8082                	ret

000000008000105c <__maybe_fuzz_page_freelist>:
    8000105c:	00016717          	auipc	a4,0x16
    80001060:	fe470713          	add	a4,a4,-28 # 80017040 <randomize_mapping>
    80001064:	631c                	ld	a5,0(a4)
    80001066:	c7b9                	beqz	a5,800010b4 <__maybe_fuzz_page_freelist+0x58>
    80001068:	0017d693          	srl	a3,a5,0x1
    8000106c:	8fb5                	xor	a5,a5,a3
    8000106e:	8b85                	and	a5,a5,1
    80001070:	17fa                	sll	a5,a5,0x3e
    80001072:	8fd5                	or	a5,a5,a3
    80001074:	e31c                	sd	a5,0(a4)
    80001076:	0017f693          	and	a3,a5,1
    8000107a:	ea9d                	bnez	a3,800010b0 <__maybe_fuzz_page_freelist+0x54>
    8000107c:	00016597          	auipc	a1,0x16
    80001080:	fbc58593          	add	a1,a1,-68 # 80017038 <page_freelist_depth>
    80001084:	6194                	ld	a3,0(a1)
    80001086:	c68d                	beqz	a3,800010b0 <__maybe_fuzz_page_freelist+0x54>
    80001088:	02d7f7b3          	remu	a5,a5,a3
    8000108c:	00016617          	auipc	a2,0x16
    80001090:	fa463603          	ld	a2,-92(a2) # 80017030 <page_freelist_storage>
    80001094:	068e                	sll	a3,a3,0x3
    80001096:	96b2                	add	a3,a3,a2
    80001098:	ff86b503          	ld	a0,-8(a3)
    8000109c:	078e                	sll	a5,a5,0x3
    8000109e:	97b2                	add	a5,a5,a2
    800010a0:	6394                	ld	a3,0(a5)
    800010a2:	e388                	sd	a0,0(a5)
    800010a4:	619c                	ld	a5,0(a1)
    800010a6:	078e                	sll	a5,a5,0x3
    800010a8:	963e                	add	a2,a2,a5
    800010aa:	fed63c23          	sd	a3,-8(a2)
    800010ae:	631c                	ld	a5,0(a4)
    800010b0:	8bbd                	and	a5,a5,15
    800010b2:	c391                	beqz	a5,800010b6 <__maybe_fuzz_page_freelist+0x5a>
    800010b4:	8082                	ret
    800010b6:	b781                	j	80000ff6 <__augment_page_freelist>

00000000800010b8 <__do_munmap>:
    800010b8:	711d                	add	sp,sp,-96
    800010ba:	f852                	sd	s4,48(sp)
    800010bc:	ec86                	sd	ra,88(sp)
    800010be:	e8a2                	sd	s0,80(sp)
    800010c0:	e4a6                	sd	s1,72(sp)
    800010c2:	e0ca                	sd	s2,64(sp)
    800010c4:	fc4e                	sd	s3,56(sp)
    800010c6:	f456                	sd	s5,40(sp)
    800010c8:	f05a                	sd	s6,32(sp)
    800010ca:	ec5e                	sd	s7,24(sp)
    800010cc:	e862                	sd	s8,16(sp)
    800010ce:	e466                	sd	s9,8(sp)
    800010d0:	e06a                	sd	s10,0(sp)
    800010d2:	00b50a33          	add	s4,a0,a1
    800010d6:	0f457a63          	bgeu	a0,s4,800011ca <__do_munmap+0x112>
    800010da:	89aa                	mv	s3,a0
    800010dc:	00016b17          	auipc	s6,0x16
    800010e0:	f94b0b13          	add	s6,s6,-108 # 80017070 <root_page_table>
    800010e4:	00016b97          	auipc	s7,0x16
    800010e8:	f9cb8b93          	add	s7,s7,-100 # 80017080 <kva2pa_offset>
    800010ec:	00016c97          	auipc	s9,0x16
    800010f0:	f5cc8c93          	add	s9,s9,-164 # 80017048 <pages_promised>
    800010f4:	00016917          	auipc	s2,0x16
    800010f8:	f8490913          	add	s2,s2,-124 # 80017078 <vmr_freelist_head>
    800010fc:	00016497          	auipc	s1,0x16
    80001100:	f3448493          	add	s1,s1,-204 # 80017030 <page_freelist_storage>
    80001104:	00016c17          	auipc	s8,0x16
    80001108:	f34c0c13          	add	s8,s8,-204 # 80017038 <page_freelist_depth>
    8000110c:	6a85                	lui	s5,0x1
    8000110e:	a805                	j	8000113e <__do_munmap+0x86>
    80001110:	f4dff0ef          	jal	8000105c <__maybe_fuzz_page_freelist>
    80001114:	000c3783          	ld	a5,0(s8)
    80001118:	6098                	ld	a4,0(s1)
    8000111a:	00ad5d13          	srl	s10,s10,0xa
    8000111e:	00178693          	add	a3,a5,1
    80001122:	078e                	sll	a5,a5,0x3
    80001124:	00dc3023          	sd	a3,0(s8)
    80001128:	97ba                	add	a5,a5,a4
    8000112a:	0d32                	sll	s10,s10,0xc
    8000112c:	01a7b023          	sd	s10,0(a5)
    80001130:	00043023          	sd	zero,0(s0)
    80001134:	12098073          	sfence.vma	s3
    80001138:	99d6                	add	s3,s3,s5
    8000113a:	0949f863          	bgeu	s3,s4,800011ca <__do_munmap+0x112>
    8000113e:	000b3703          	ld	a4,0(s6)
    80001142:	01e9d793          	srl	a5,s3,0x1e
    80001146:	1ff7f793          	and	a5,a5,511
    8000114a:	078e                	sll	a5,a5,0x3
    8000114c:	97ba                	add	a5,a5,a4
    8000114e:	6398                	ld	a4,0(a5)
    80001150:	00177793          	and	a5,a4,1
    80001154:	d3f5                	beqz	a5,80001138 <__do_munmap+0x80>
    80001156:	000bb683          	ld	a3,0(s7)
    8000115a:	0159d793          	srl	a5,s3,0x15
    8000115e:	1ff7f793          	and	a5,a5,511
    80001162:	8329                	srl	a4,a4,0xa
    80001164:	078e                	sll	a5,a5,0x3
    80001166:	0732                	sll	a4,a4,0xc
    80001168:	97b6                	add	a5,a5,a3
    8000116a:	97ba                	add	a5,a5,a4
    8000116c:	639c                	ld	a5,0(a5)
    8000116e:	0017f713          	and	a4,a5,1
    80001172:	d379                	beqz	a4,80001138 <__do_munmap+0x80>
    80001174:	00a7d413          	srl	s0,a5,0xa
    80001178:	00c9d793          	srl	a5,s3,0xc
    8000117c:	0432                	sll	s0,s0,0xc
    8000117e:	1ff7f793          	and	a5,a5,511
    80001182:	9436                	add	s0,s0,a3
    80001184:	078e                	sll	a5,a5,0x3
    80001186:	943e                	add	s0,s0,a5
    80001188:	d845                	beqz	s0,80001138 <__do_munmap+0x80>
    8000118a:	00043d03          	ld	s10,0(s0)
    8000118e:	fa0d05e3          	beqz	s10,80001138 <__do_munmap+0x80>
    80001192:	001d7793          	and	a5,s10,1
    80001196:	ffad                	bnez	a5,80001110 <__do_munmap+0x58>
    80001198:	000cb703          	ld	a4,0(s9)
    8000119c:	028d2783          	lw	a5,40(s10)
    800011a0:	177d                	add	a4,a4,-1
    800011a2:	37fd                	addw	a5,a5,-1
    800011a4:	00ecb023          	sd	a4,0(s9)
    800011a8:	02fd2423          	sw	a5,40(s10)
    800011ac:	0007871b          	sext.w	a4,a5
    800011b0:	f341                	bnez	a4,80001130 <__do_munmap+0x78>
    800011b2:	018d3503          	ld	a0,24(s10)
    800011b6:	c119                	beqz	a0,800011bc <__do_munmap+0x104>
    800011b8:	d80ff0ef          	jal	80000738 <file_decref>
    800011bc:	00093783          	ld	a5,0(s2)
    800011c0:	01a93023          	sd	s10,0(s2)
    800011c4:	00fd3023          	sd	a5,0(s10)
    800011c8:	b7a5                	j	80001130 <__do_munmap+0x78>
    800011ca:	60e6                	ld	ra,88(sp)
    800011cc:	6446                	ld	s0,80(sp)
    800011ce:	64a6                	ld	s1,72(sp)
    800011d0:	6906                	ld	s2,64(sp)
    800011d2:	79e2                	ld	s3,56(sp)
    800011d4:	7a42                	ld	s4,48(sp)
    800011d6:	7aa2                	ld	s5,40(sp)
    800011d8:	7b02                	ld	s6,32(sp)
    800011da:	6be2                	ld	s7,24(sp)
    800011dc:	6c42                	ld	s8,16(sp)
    800011de:	6ca2                	ld	s9,8(sp)
    800011e0:	6d02                	ld	s10,0(sp)
    800011e2:	6125                	add	sp,sp,96
    800011e4:	8082                	ret

00000000800011e6 <__page_alloc>:
    800011e6:	1101                	add	sp,sp,-32
    800011e8:	e426                	sd	s1,8(sp)
    800011ea:	00016497          	auipc	s1,0x16
    800011ee:	e4e48493          	add	s1,s1,-434 # 80017038 <page_freelist_depth>
    800011f2:	e822                	sd	s0,16(sp)
    800011f4:	6080                	ld	s0,0(s1)
    800011f6:	ec06                	sd	ra,24(sp)
    800011f8:	e401                	bnez	s0,80001200 <__page_alloc+0x1a>
    800011fa:	dfdff0ef          	jal	80000ff6 <__augment_page_freelist>
    800011fe:	c51d                	beqz	a0,8000122c <__page_alloc+0x46>
    80001200:	e5dff0ef          	jal	8000105c <__maybe_fuzz_page_freelist>
    80001204:	609c                	ld	a5,0(s1)
    80001206:	00016517          	auipc	a0,0x16
    8000120a:	e7a53503          	ld	a0,-390(a0) # 80017080 <kva2pa_offset>
    8000120e:	6605                	lui	a2,0x1
    80001210:	17fd                	add	a5,a5,-1
    80001212:	00379713          	sll	a4,a5,0x3
    80001216:	e09c                	sd	a5,0(s1)
    80001218:	00016797          	auipc	a5,0x16
    8000121c:	e187b783          	ld	a5,-488(a5) # 80017030 <page_freelist_storage>
    80001220:	97ba                	add	a5,a5,a4
    80001222:	6380                	ld	s0,0(a5)
    80001224:	4581                	li	a1,0
    80001226:	9522                	add	a0,a0,s0
    80001228:	435070ef          	jal	80008e5c <memset>
    8000122c:	60e2                	ld	ra,24(sp)
    8000122e:	8522                	mv	a0,s0
    80001230:	6442                	ld	s0,16(sp)
    80001232:	64a2                	ld	s1,8(sp)
    80001234:	6105                	add	sp,sp,32
    80001236:	8082                	ret

0000000080001238 <__handle_page_fault>:
    80001238:	7179                	add	sp,sp,-48
    8000123a:	77fd                	lui	a5,0xfffff
    8000123c:	e84a                	sd	s2,16(sp)
    8000123e:	00f57933          	and	s2,a0,a5
    80001242:	01e95793          	srl	a5,s2,0x1e
    80001246:	1ff7f793          	and	a5,a5,511
    8000124a:	00016717          	auipc	a4,0x16
    8000124e:	e2673703          	ld	a4,-474(a4) # 80017070 <root_page_table>
    80001252:	078e                	sll	a5,a5,0x3
    80001254:	97ba                	add	a5,a5,a4
    80001256:	6398                	ld	a4,0(a5)
    80001258:	f406                	sd	ra,40(sp)
    8000125a:	f022                	sd	s0,32(sp)
    8000125c:	ec26                	sd	s1,24(sp)
    8000125e:	e44e                	sd	s3,8(sp)
    80001260:	e052                	sd	s4,0(sp)
    80001262:	00177793          	and	a5,a4,1
    80001266:	16078a63          	beqz	a5,800013da <__handle_page_fault+0x1a2>
    8000126a:	00016a17          	auipc	s4,0x16
    8000126e:	e16a0a13          	add	s4,s4,-490 # 80017080 <kva2pa_offset>
    80001272:	000a3683          	ld	a3,0(s4)
    80001276:	01595793          	srl	a5,s2,0x15
    8000127a:	1ff7f793          	and	a5,a5,511
    8000127e:	8329                	srl	a4,a4,0xa
    80001280:	078e                	sll	a5,a5,0x3
    80001282:	0732                	sll	a4,a4,0xc
    80001284:	97b6                	add	a5,a5,a3
    80001286:	97ba                	add	a5,a5,a4
    80001288:	639c                	ld	a5,0(a5)
    8000128a:	0017f713          	and	a4,a5,1
    8000128e:	14070663          	beqz	a4,800013da <__handle_page_fault+0x1a2>
    80001292:	00a7d413          	srl	s0,a5,0xa
    80001296:	00c95793          	srl	a5,s2,0xc
    8000129a:	0432                	sll	s0,s0,0xc
    8000129c:	1ff7f793          	and	a5,a5,511
    800012a0:	9436                	add	s0,s0,a3
    800012a2:	078e                	sll	a5,a5,0x3
    800012a4:	943e                	add	s0,s0,a5
    800012a6:	12040a63          	beqz	s0,800013da <__handle_page_fault+0x1a2>
    800012aa:	601c                	ld	a5,0(s0)
    800012ac:	12078763          	beqz	a5,800013da <__handle_page_fault+0x1a2>
    800012b0:	0000c717          	auipc	a4,0xc
    800012b4:	d9873703          	ld	a4,-616(a4) # 8000d048 <current+0x48>
    800012b8:	12e97163          	bgeu	s2,a4,800013da <__handle_page_fault+0x1a2>
    800012bc:	0017f713          	and	a4,a5,1
    800012c0:	84ae                	mv	s1,a1
    800012c2:	c331                	beqz	a4,80001306 <__handle_page_fault+0xce>
    800012c4:	0014f713          	and	a4,s1,1
    800012c8:	0024f693          	and	a3,s1,2
    800012cc:	8891                	and	s1,s1,4
    800012ce:	c715                	beqz	a4,800012fa <__handle_page_fault+0xc2>
    800012d0:	10069263          	bnez	a3,800013d4 <__handle_page_fault+0x19c>
    800012d4:	05b00713          	li	a4,91
    800012d8:	12048063          	beqz	s1,800013f8 <__handle_page_fault+0x1c0>
    800012dc:	70a2                	ld	ra,40(sp)
    800012de:	7402                	ld	s0,32(sp)
    800012e0:	00e7f533          	and	a0,a5,a4
    800012e4:	8d19                	sub	a0,a0,a4
    800012e6:	00a03533          	snez	a0,a0
    800012ea:	64e2                	ld	s1,24(sp)
    800012ec:	6942                	ld	s2,16(sp)
    800012ee:	69a2                	ld	s3,8(sp)
    800012f0:	6a02                	ld	s4,0(sp)
    800012f2:	40a00533          	neg	a0,a0
    800012f6:	6145                	add	sp,sp,48
    800012f8:	8082                	ret
    800012fa:	e6e9                	bnez	a3,800013c4 <__handle_page_fault+0x18c>
    800012fc:	05900713          	li	a4,89
    80001300:	fcf1                	bnez	s1,800012dc <__handle_page_fault+0xa4>
    80001302:	474d                	li	a4,19
    80001304:	bfe1                	j	800012dc <__handle_page_fault+0xa4>
    80001306:	ee1ff0ef          	jal	800011e6 <__page_alloc>
    8000130a:	87aa                	mv	a5,a0
    8000130c:	10050d63          	beqz	a0,80001426 <__handle_page_fault+0x1ee>
    80001310:	00c55993          	srl	s3,a0,0xc
    80001314:	09aa                	sll	s3,s3,0xa
    80001316:	0c79e713          	or	a4,s3,199
    8000131a:	000a3583          	ld	a1,0(s4)
    8000131e:	00043a03          	ld	s4,0(s0)
    80001322:	e018                	sd	a4,0(s0)
    80001324:	12090073          	sfence.vma	s2
    80001328:	018a3503          	ld	a0,24(s4)
    8000132c:	c90d                	beqz	a0,8000135e <__handle_page_fault+0x126>
    8000132e:	008a3703          	ld	a4,8(s4)
    80001332:	010a3603          	ld	a2,16(s4)
    80001336:	020a3683          	ld	a3,32(s4)
    8000133a:	6805                	lui	a6,0x1
    8000133c:	963a                	add	a2,a2,a4
    8000133e:	96ca                	add	a3,a3,s2
    80001340:	41260633          	sub	a2,a2,s2
    80001344:	8e99                	sub	a3,a3,a4
    80001346:	0ac86c63          	bltu	a6,a2,800013fe <__handle_page_fault+0x1c6>
    8000134a:	777d                	lui	a4,0xfffff
    8000134c:	8ff9                	and	a5,a5,a4
    8000134e:	95be                	add	a1,a1,a5
    80001350:	f34ff0ef          	jal	80000a84 <file_pread>
    80001354:	0ca05f63          	blez	a0,80001432 <__handle_page_fault+0x1fa>
    80001358:	6605                	lui	a2,0x1
    8000135a:	0ac54463          	blt	a0,a2,80001402 <__handle_page_fault+0x1ca>
    8000135e:	00016697          	auipc	a3,0x16
    80001362:	cea68693          	add	a3,a3,-790 # 80017048 <pages_promised>
    80001366:	6298                	ld	a4,0(a3)
    80001368:	028a2783          	lw	a5,40(s4)
    8000136c:	177d                	add	a4,a4,-1 # ffffffffffffefff <_end+0xffffffff7ffe6fff>
    8000136e:	37fd                	addw	a5,a5,-1 # ffffffffffffefff <_end+0xffffffff7ffe6fff>
    80001370:	e298                	sd	a4,0(a3)
    80001372:	02fa2423          	sw	a5,40(s4)
    80001376:	0007871b          	sext.w	a4,a5
    8000137a:	ef19                	bnez	a4,80001398 <__handle_page_fault+0x160>
    8000137c:	018a3503          	ld	a0,24(s4)
    80001380:	c119                	beqz	a0,80001386 <__handle_page_fault+0x14e>
    80001382:	bb6ff0ef          	jal	80000738 <file_decref>
    80001386:	00016797          	auipc	a5,0x16
    8000138a:	cf278793          	add	a5,a5,-782 # 80017078 <vmr_freelist_head>
    8000138e:	6398                	ld	a4,0(a5)
    80001390:	0147b023          	sd	s4,0(a5)
    80001394:	00ea3023          	sd	a4,0(s4)
    80001398:	02ca2783          	lw	a5,44(s4)
    8000139c:	0017f713          	and	a4,a5,1
    800013a0:	0047f693          	and	a3,a5,4
    800013a4:	8b89                	and	a5,a5,2
    800013a6:	c339                	beqz	a4,800013ec <__handle_page_fault+0x1b4>
    800013a8:	ebad                	bnez	a5,8000141a <__handle_page_fault+0x1e2>
    800013aa:	04a00793          	li	a5,74
    800013ae:	caad                	beqz	a3,80001420 <__handle_page_fault+0x1e8>
    800013b0:	00f9e9b3          	or	s3,s3,a5
    800013b4:	0119e993          	or	s3,s3,17
    800013b8:	01343023          	sd	s3,0(s0)
    800013bc:	12090073          	sfence.vma	s2
    800013c0:	601c                	ld	a5,0(s0)
    800013c2:	b709                	j	800012c4 <__handle_page_fault+0x8c>
    800013c4:	08400693          	li	a3,132
    800013c8:	0596e713          	or	a4,a3,89
    800013cc:	f881                	bnez	s1,800012dc <__handle_page_fault+0xa4>
    800013ce:	0116e713          	or	a4,a3,17
    800013d2:	b729                	j	800012dc <__handle_page_fault+0xa4>
    800013d4:	0c600693          	li	a3,198
    800013d8:	bfc5                	j	800013c8 <__handle_page_fault+0x190>
    800013da:	70a2                	ld	ra,40(sp)
    800013dc:	7402                	ld	s0,32(sp)
    800013de:	64e2                	ld	s1,24(sp)
    800013e0:	6942                	ld	s2,16(sp)
    800013e2:	69a2                	ld	s3,8(sp)
    800013e4:	6a02                	ld	s4,0(sp)
    800013e6:	557d                	li	a0,-1
    800013e8:	6145                	add	sp,sp,48
    800013ea:	8082                	ret
    800013ec:	e38d                	bnez	a5,8000140e <__handle_page_fault+0x1d6>
    800013ee:	04800793          	li	a5,72
    800013f2:	fedd                	bnez	a3,800013b0 <__handle_page_fault+0x178>
    800013f4:	4789                	li	a5,2
    800013f6:	bf6d                	j	800013b0 <__handle_page_fault+0x178>
    800013f8:	05300713          	li	a4,83
    800013fc:	b5c5                	j	800012dc <__handle_page_fault+0xa4>
    800013fe:	6605                	lui	a2,0x1
    80001400:	b7a9                	j	8000134a <__handle_page_fault+0x112>
    80001402:	8e09                	sub	a2,a2,a0
    80001404:	4581                	li	a1,0
    80001406:	954a                	add	a0,a0,s2
    80001408:	255070ef          	jal	80008e5c <memset>
    8000140c:	bf89                	j	8000135e <__handle_page_fault+0x126>
    8000140e:	08400793          	li	a5,132
    80001412:	ded9                	beqz	a3,800013b0 <__handle_page_fault+0x178>
    80001414:	0487e793          	or	a5,a5,72
    80001418:	bf61                	j	800013b0 <__handle_page_fault+0x178>
    8000141a:	0c600793          	li	a5,198
    8000141e:	bfd5                	j	80001412 <__handle_page_fault+0x1da>
    80001420:	04200793          	li	a5,66
    80001424:	b771                	j	800013b0 <__handle_page_fault+0x178>
    80001426:	00009517          	auipc	a0,0x9
    8000142a:	c0250513          	add	a0,a0,-1022 # 8000a028 <softfloat_countLeadingZeros8+0x3f0>
    8000142e:	ac1ff0ef          	jal	80000eee <do_panic>
    80001432:	00009517          	auipc	a0,0x9
    80001436:	c0650513          	add	a0,a0,-1018 # 8000a038 <softfloat_countLeadingZeros8+0x400>
    8000143a:	ad9ff0ef          	jal	80000f12 <kassert_fail>

000000008000143e <__valid_user_range>:
    8000143e:	15fd                	add	a1,a1,-1
    80001440:	95aa                	add	a1,a1,a0
    80001442:	00a5e963          	bltu	a1,a0,80001454 <__valid_user_range+0x16>
    80001446:	0000c517          	auipc	a0,0xc
    8000144a:	c0253503          	ld	a0,-1022(a0) # 8000d048 <current+0x48>
    8000144e:	00a5b533          	sltu	a0,a1,a0
    80001452:	8082                	ret
    80001454:	4501                	li	a0,0
    80001456:	8082                	ret

0000000080001458 <handle_page_fault>:
    80001458:	1141                	add	sp,sp,-16
    8000145a:	e406                	sd	ra,8(sp)
    8000145c:	00016717          	auipc	a4,0x16
    80001460:	c0c70713          	add	a4,a4,-1012 # 80017068 <vm_lock>
    80001464:	56fd                	li	a3,-1
    80001466:	431c                	lw	a5,0(a4)
    80001468:	fffd                	bnez	a5,80001466 <handle_page_fault+0xe>
    8000146a:	87b6                	mv	a5,a3
    8000146c:	0cf727af          	amoswap.w.aq	a5,a5,(a4)
    80001470:	2781                	sext.w	a5,a5
    80001472:	0ff0000f          	fence
    80001476:	fbe5                	bnez	a5,80001466 <handle_page_fault+0xe>
    80001478:	dc1ff0ef          	jal	80001238 <__handle_page_fault>
    8000147c:	0ff0000f          	fence
    80001480:	60a2                	ld	ra,8(sp)
    80001482:	00016797          	auipc	a5,0x16
    80001486:	be07a323          	sw	zero,-1050(a5) # 80017068 <vm_lock>
    8000148a:	0141                	add	sp,sp,16
    8000148c:	8082                	ret

000000008000148e <__do_mmap>:
    8000148e:	7119                	add	sp,sp,-128
    80001490:	ecce                	sd	s3,88(sp)
    80001492:	fff58993          	add	s3,a1,-1
    80001496:	e4d6                	sd	s5,72(sp)
    80001498:	00c9d993          	srl	s3,s3,0xc
    8000149c:	00016a97          	auipc	s5,0x16
    800014a0:	baca8a93          	add	s5,s5,-1108 # 80017048 <pages_promised>
    800014a4:	0985                	add	s3,s3,1
    800014a6:	f862                	sd	s8,48(sp)
    800014a8:	000abc03          	ld	s8,0(s5)
    800014ac:	00499813          	sll	a6,s3,0x4
    800014b0:	984e                	add	a6,a6,s3
    800014b2:	f8a2                	sd	s0,112(sp)
    800014b4:	00485813          	srl	a6,a6,0x4
    800014b8:	842e                	mv	s0,a1
    800014ba:	00016897          	auipc	a7,0x16
    800014be:	b968b883          	ld	a7,-1130(a7) # 80017050 <free_pages>
    800014c2:	010c0593          	add	a1,s8,16
    800014c6:	00016317          	auipc	t1,0x16
    800014ca:	b7233303          	ld	t1,-1166(t1) # 80017038 <page_freelist_depth>
    800014ce:	989a                	add	a7,a7,t1
    800014d0:	982e                	add	a6,a6,a1
    800014d2:	00016597          	auipc	a1,0x16
    800014d6:	b865b583          	ld	a1,-1146(a1) # 80017058 <next_free_page>
    800014da:	fc86                	sd	ra,120(sp)
    800014dc:	f4a6                	sd	s1,104(sp)
    800014de:	f0ca                	sd	s2,96(sp)
    800014e0:	e8d2                	sd	s4,80(sp)
    800014e2:	e0da                	sd	s6,64(sp)
    800014e4:	fc5e                	sd	s7,56(sp)
    800014e6:	f466                	sd	s9,40(sp)
    800014e8:	f06a                	sd	s10,32(sp)
    800014ea:	ec6e                	sd	s11,24(sp)
    800014ec:	40b888b3          	sub	a7,a7,a1
    800014f0:	17187a63          	bgeu	a6,a7,80001664 <__do_mmap+0x1d6>
    800014f4:	8cbe                	mv	s9,a5
    800014f6:	0106f793          	and	a5,a3,16
    800014fa:	8a32                	mv	s4,a2
    800014fc:	8b36                	mv	s6,a3
    800014fe:	8d3a                	mv	s10,a4
    80001500:	12078e63          	beqz	a5,8000163c <__do_mmap+0x1ae>
    80001504:	03451793          	sll	a5,a0,0x34
    80001508:	892a                	mv	s2,a0
    8000150a:	14079d63          	bnez	a5,80001664 <__do_mmap+0x1d6>
    8000150e:	fff50793          	add	a5,a0,-1
    80001512:	97a2                	add	a5,a5,s0
    80001514:	14a7e863          	bltu	a5,a0,80001664 <__do_mmap+0x1d6>
    80001518:	0000c717          	auipc	a4,0xc
    8000151c:	ae870713          	add	a4,a4,-1304 # 8000d000 <current>
    80001520:	e03a                	sd	a4,0(sp)
    80001522:	6738                	ld	a4,72(a4)
    80001524:	14e7f063          	bgeu	a5,a4,80001664 <__do_mmap+0x1d6>
    80001528:	00016d97          	auipc	s11,0x16
    8000152c:	b50d8d93          	add	s11,s11,-1200 # 80017078 <vmr_freelist_head>
    80001530:	000db483          	ld	s1,0(s11)
    80001534:	0009871b          	sext.w	a4,s3
    80001538:	18048363          	beqz	s1,800016be <__do_mmap+0x230>
    8000153c:	6094                	ld	a3,0(s1)
    8000153e:	02099793          	sll	a5,s3,0x20
    80001542:	9381                	srl	a5,a5,0x20
    80001544:	97e2                	add	a5,a5,s8
    80001546:	00ddb023          	sd	a3,0(s11)
    8000154a:	00fab023          	sd	a5,0(s5)
    8000154e:	140d0d63          	beqz	s10,800016a8 <__do_mmap+0x21a>
    80001552:	856a                	mv	a0,s10
    80001554:	e43a                	sd	a4,8(sp)
    80001556:	9beff0ef          	jal	80000714 <file_incref>
    8000155a:	6722                	ld	a4,8(sp)
    8000155c:	0124b423          	sd	s2,8(s1)
    80001560:	e880                	sd	s0,16(s1)
    80001562:	01a4bc23          	sd	s10,24(s1)
    80001566:	0394b023          	sd	s9,32(s1)
    8000156a:	d498                	sw	a4,40(s1)
    8000156c:	0344a623          	sw	s4,44(s1)
    80001570:	944a                	add	s0,s0,s2
    80001572:	0a897e63          	bgeu	s2,s0,8000162e <__do_mmap+0x1a0>
    80001576:	8cca                	mv	s9,s2
    80001578:	00016a97          	auipc	s5,0x16
    8000157c:	af8a8a93          	add	s5,s5,-1288 # 80017070 <root_page_table>
    80001580:	00016d97          	auipc	s11,0x16
    80001584:	b00d8d93          	add	s11,s11,-1280 # 80017080 <kva2pa_offset>
    80001588:	4d05                	li	s10,1
    8000158a:	000abc03          	ld	s8,0(s5)
    8000158e:	4b89                	li	s7,2
    80001590:	4689                	li	a3,2
    80001592:	a811                	j	800015a6 <__do_mmap+0x118>
    80001594:	000dbc03          	ld	s8,0(s11)
    80001598:	8129                	srl	a0,a0,0xa
    8000159a:	0532                	sll	a0,a0,0xc
    8000159c:	4685                	li	a3,1
    8000159e:	9c2a                	add	s8,s8,a0
    800015a0:	05ab8363          	beq	s7,s10,800015e6 <__do_mmap+0x158>
    800015a4:	4b85                	li	s7,1
    800015a6:	0036979b          	sllw	a5,a3,0x3
    800015aa:	9fb5                	addw	a5,a5,a3
    800015ac:	27b1                	addw	a5,a5,12
    800015ae:	00fcd7b3          	srl	a5,s9,a5
    800015b2:	1ff7f793          	and	a5,a5,511
    800015b6:	078e                	sll	a5,a5,0x3
    800015b8:	9c3e                	add	s8,s8,a5
    800015ba:	000c3503          	ld	a0,0(s8)
    800015be:	00157793          	and	a5,a0,1
    800015c2:	fbe9                	bnez	a5,80001594 <__do_mmap+0x106>
    800015c4:	c23ff0ef          	jal	800011e6 <__page_alloc>
    800015c8:	c179                	beqz	a0,8000168e <__do_mmap+0x200>
    800015ca:	8131                	srl	a0,a0,0xc
    800015cc:	00a51793          	sll	a5,a0,0xa
    800015d0:	0017e793          	or	a5,a5,1
    800015d4:	00fc3023          	sd	a5,0(s8)
    800015d8:	000dbc03          	ld	s8,0(s11)
    800015dc:	0532                	sll	a0,a0,0xc
    800015de:	4685                	li	a3,1
    800015e0:	9c2a                	add	s8,s8,a0
    800015e2:	fdab91e3          	bne	s7,s10,800015a4 <__do_mmap+0x116>
    800015e6:	00ccd793          	srl	a5,s9,0xc
    800015ea:	1ff7f793          	and	a5,a5,511
    800015ee:	078e                	sll	a5,a5,0x3
    800015f0:	9c3e                	add	s8,s8,a5
    800015f2:	080c0e63          	beqz	s8,8000168e <__do_mmap+0x200>
    800015f6:	000c3783          	ld	a5,0(s8)
    800015fa:	e7c9                	bnez	a5,80001684 <__do_mmap+0x1f6>
    800015fc:	6785                	lui	a5,0x1
    800015fe:	009c3023          	sd	s1,0(s8)
    80001602:	9cbe                	add	s9,s9,a5
    80001604:	f88ce3e3          	bltu	s9,s0,8000158a <__do_mmap+0xfc>
    80001608:	0000b797          	auipc	a5,0xb
    8000160c:	eac7a783          	lw	a5,-340(a5) # 8000c4b4 <demand_paging>
    80001610:	c789                	beqz	a5,8000161a <__do_mmap+0x18c>
    80001612:	00fb5793          	srl	a5,s6,0xf
    80001616:	8b85                	and	a5,a5,1
    80001618:	cb99                	beqz	a5,8000162e <__do_mmap+0x1a0>
    8000161a:	84ca                	mv	s1,s2
    8000161c:	6a85                	lui	s5,0x1
    8000161e:	85d2                	mv	a1,s4
    80001620:	8526                	mv	a0,s1
    80001622:	c17ff0ef          	jal	80001238 <__handle_page_fault>
    80001626:	e179                	bnez	a0,800016ec <__do_mmap+0x25e>
    80001628:	94d6                	add	s1,s1,s5
    8000162a:	fe84eae3          	bltu	s1,s0,8000161e <__do_mmap+0x190>
    8000162e:	6702                	ld	a4,0(sp)
    80001630:	00c99793          	sll	a5,s3,0xc
    80001634:	97ca                	add	a5,a5,s2
    80001636:	ef3c                	sd	a5,88(a4)
    80001638:	854a                	mv	a0,s2
    8000163a:	a035                	j	80001666 <__do_mmap+0x1d8>
    8000163c:	0000c797          	auipc	a5,0xc
    80001640:	9c478793          	add	a5,a5,-1596 # 8000d000 <current>
    80001644:	67a4                	ld	s1,72(a5)
    80001646:	6fa8                	ld	a0,88(a5)
    80001648:	e03e                	sd	a5,0(sp)
    8000164a:	00c99793          	sll	a5,s3,0xc
    8000164e:	8c9d                	sub	s1,s1,a5
    80001650:	e529                	bnez	a0,8000169a <__do_mmap+0x20c>
    80001652:	6782                	ld	a5,0(sp)
    80001654:	864e                	mv	a2,s3
    80001656:	85a6                	mv	a1,s1
    80001658:	7f88                	ld	a0,56(a5)
    8000165a:	8cdff0ef          	jal	80000f26 <__vm_alloc_at>
    8000165e:	892a                	mv	s2,a0
    80001660:	ec0514e3          	bnez	a0,80001528 <__do_mmap+0x9a>
    80001664:	557d                	li	a0,-1
    80001666:	70e6                	ld	ra,120(sp)
    80001668:	7446                	ld	s0,112(sp)
    8000166a:	74a6                	ld	s1,104(sp)
    8000166c:	7906                	ld	s2,96(sp)
    8000166e:	69e6                	ld	s3,88(sp)
    80001670:	6a46                	ld	s4,80(sp)
    80001672:	6aa6                	ld	s5,72(sp)
    80001674:	6b06                	ld	s6,64(sp)
    80001676:	7be2                	ld	s7,56(sp)
    80001678:	7c42                	ld	s8,48(sp)
    8000167a:	7ca2                	ld	s9,40(sp)
    8000167c:	7d02                	ld	s10,32(sp)
    8000167e:	6de2                	ld	s11,24(sp)
    80001680:	6109                	add	sp,sp,128
    80001682:	8082                	ret
    80001684:	6585                	lui	a1,0x1
    80001686:	8566                	mv	a0,s9
    80001688:	a31ff0ef          	jal	800010b8 <__do_munmap>
    8000168c:	bf85                	j	800015fc <__do_mmap+0x16e>
    8000168e:	00009517          	auipc	a0,0x9
    80001692:	9b250513          	add	a0,a0,-1614 # 8000a040 <softfloat_countLeadingZeros8+0x408>
    80001696:	87dff0ef          	jal	80000f12 <kassert_fail>
    8000169a:	864e                	mv	a2,s3
    8000169c:	85a6                	mv	a1,s1
    8000169e:	889ff0ef          	jal	80000f26 <__vm_alloc_at>
    800016a2:	892a                	mv	s2,a0
    800016a4:	d55d                	beqz	a0,80001652 <__do_mmap+0x1c4>
    800016a6:	b549                	j	80001528 <__do_mmap+0x9a>
    800016a8:	0124b423          	sd	s2,8(s1)
    800016ac:	e880                	sd	s0,16(s1)
    800016ae:	0004bc23          	sd	zero,24(s1)
    800016b2:	0394b023          	sd	s9,32(s1)
    800016b6:	d498                	sw	a4,40(s1)
    800016b8:	0344a623          	sw	s4,44(s1)
    800016bc:	bd55                	j	80001570 <__do_mmap+0xe2>
    800016be:	e43a                	sd	a4,8(sp)
    800016c0:	b27ff0ef          	jal	800011e6 <__page_alloc>
    800016c4:	00016797          	auipc	a5,0x16
    800016c8:	9bc7b783          	ld	a5,-1604(a5) # 80017080 <kva2pa_offset>
    800016cc:	00f504b3          	add	s1,a0,a5
    800016d0:	d8d1                	beqz	s1,80001664 <__do_mmap+0x1d6>
    800016d2:	6605                	lui	a2,0x1
    800016d4:	6722                	ld	a4,8(sp)
    800016d6:	1641                	add	a2,a2,-16 # ff0 <_ftext-0x7ffff010>
    800016d8:	03048693          	add	a3,s1,48
    800016dc:	9626                	add	a2,a2,s1
    800016de:	fcd6b823          	sd	a3,-48(a3)
    800016e2:	03068693          	add	a3,a3,48
    800016e6:	fec69ce3          	bne	a3,a2,800016de <__do_mmap+0x250>
    800016ea:	bd89                	j	8000153c <__do_mmap+0xae>
    800016ec:	00009517          	auipc	a0,0x9
    800016f0:	95c50513          	add	a0,a0,-1700 # 8000a048 <softfloat_countLeadingZeros8+0x410>
    800016f4:	81fff0ef          	jal	80000f12 <kassert_fail>

00000000800016f8 <do_munmap>:
    800016f8:	1141                	add	sp,sp,-16
    800016fa:	e406                	sd	ra,8(sp)
    800016fc:	e022                	sd	s0,0(sp)
    800016fe:	03451793          	sll	a5,a0,0x34
    80001702:	eba9                	bnez	a5,80001754 <do_munmap+0x5c>
    80001704:	fff58793          	add	a5,a1,-1 # fff <_ftext-0x7ffff001>
    80001708:	97aa                	add	a5,a5,a0
    8000170a:	04a7e563          	bltu	a5,a0,80001754 <do_munmap+0x5c>
    8000170e:	0000c717          	auipc	a4,0xc
    80001712:	93a73703          	ld	a4,-1734(a4) # 8000d048 <current+0x48>
    80001716:	02e7ff63          	bgeu	a5,a4,80001754 <do_munmap+0x5c>
    8000171a:	00016717          	auipc	a4,0x16
    8000171e:	94e70713          	add	a4,a4,-1714 # 80017068 <vm_lock>
    80001722:	56fd                	li	a3,-1
    80001724:	431c                	lw	a5,0(a4)
    80001726:	0007841b          	sext.w	s0,a5
    8000172a:	ffed                	bnez	a5,80001724 <do_munmap+0x2c>
    8000172c:	87b6                	mv	a5,a3
    8000172e:	0cf727af          	amoswap.w.aq	a5,a5,(a4)
    80001732:	2781                	sext.w	a5,a5
    80001734:	0ff0000f          	fence
    80001738:	f7f5                	bnez	a5,80001724 <do_munmap+0x2c>
    8000173a:	97fff0ef          	jal	800010b8 <__do_munmap>
    8000173e:	0ff0000f          	fence
    80001742:	60a2                	ld	ra,8(sp)
    80001744:	8522                	mv	a0,s0
    80001746:	6402                	ld	s0,0(sp)
    80001748:	00016797          	auipc	a5,0x16
    8000174c:	9207a023          	sw	zero,-1760(a5) # 80017068 <vm_lock>
    80001750:	0141                	add	sp,sp,16
    80001752:	8082                	ret
    80001754:	5429                	li	s0,-22
    80001756:	60a2                	ld	ra,8(sp)
    80001758:	8522                	mv	a0,s0
    8000175a:	6402                	ld	s0,0(sp)
    8000175c:	0141                	add	sp,sp,16
    8000175e:	8082                	ret

0000000080001760 <do_mmap>:
    80001760:	7139                	add	sp,sp,-64
    80001762:	f822                	sd	s0,48(sp)
    80001764:	fc06                	sd	ra,56(sp)
    80001766:	f426                	sd	s1,40(sp)
    80001768:	f04a                	sd	s2,32(sp)
    8000176a:	0026f813          	and	a6,a3,2
    8000176e:	5429                	li	s0,-22
    80001770:	08080063          	beqz	a6,800017f0 <do_mmap+0x90>
    80001774:	cdb5                	beqz	a1,800017f0 <do_mmap+0x90>
    80001776:	84aa                	mv	s1,a0
    80001778:	03479513          	sll	a0,a5,0x34
    8000177c:	e935                	bnez	a0,800017f0 <do_mmap+0x90>
    8000177e:	0206f513          	and	a0,a3,32
    80001782:	ed35                	bnez	a0,800017fe <do_mmap+0x9e>
    80001784:	853a                	mv	a0,a4
    80001786:	ec3e                	sd	a5,24(sp)
    80001788:	e836                	sd	a3,16(sp)
    8000178a:	e432                	sd	a2,8(sp)
    8000178c:	e02e                	sd	a1,0(sp)
    8000178e:	91eff0ef          	jal	800008ac <file_get>
    80001792:	6582                	ld	a1,0(sp)
    80001794:	6622                	ld	a2,8(sp)
    80001796:	66c2                	ld	a3,16(sp)
    80001798:	67e2                	ld	a5,24(sp)
    8000179a:	892a                	mv	s2,a0
    8000179c:	c13d                	beqz	a0,80001802 <do_mmap+0xa2>
    8000179e:	00016897          	auipc	a7,0x16
    800017a2:	8ca88893          	add	a7,a7,-1846 # 80017068 <vm_lock>
    800017a6:	537d                	li	t1,-1
    800017a8:	0008a803          	lw	a6,0(a7)
    800017ac:	fe081ee3          	bnez	a6,800017a8 <do_mmap+0x48>
    800017b0:	881a                	mv	a6,t1
    800017b2:	0d08a82f          	amoswap.w.aq	a6,a6,(a7)
    800017b6:	2801                	sext.w	a6,a6
    800017b8:	0ff0000f          	fence
    800017bc:	fe0816e3          	bnez	a6,800017a8 <do_mmap+0x48>
    800017c0:	874a                	mv	a4,s2
    800017c2:	8526                	mv	a0,s1
    800017c4:	ccbff0ef          	jal	8000148e <__do_mmap>
    800017c8:	0000c797          	auipc	a5,0xc
    800017cc:	83878793          	add	a5,a5,-1992 # 8000d000 <current>
    800017d0:	63b8                	ld	a4,64(a5)
    800017d2:	842a                	mv	s0,a0
    800017d4:	00e57363          	bgeu	a0,a4,800017da <do_mmap+0x7a>
    800017d8:	e3a8                	sd	a0,64(a5)
    800017da:	0ff0000f          	fence
    800017de:	00016797          	auipc	a5,0x16
    800017e2:	8807a523          	sw	zero,-1910(a5) # 80017068 <vm_lock>
    800017e6:	00090563          	beqz	s2,800017f0 <do_mmap+0x90>
    800017ea:	854a                	mv	a0,s2
    800017ec:	f4dfe0ef          	jal	80000738 <file_decref>
    800017f0:	70e2                	ld	ra,56(sp)
    800017f2:	8522                	mv	a0,s0
    800017f4:	7442                	ld	s0,48(sp)
    800017f6:	74a2                	ld	s1,40(sp)
    800017f8:	7902                	ld	s2,32(sp)
    800017fa:	6121                	add	sp,sp,64
    800017fc:	8082                	ret
    800017fe:	4901                	li	s2,0
    80001800:	bf79                	j	8000179e <do_mmap+0x3e>
    80001802:	545d                	li	s0,-9
    80001804:	b7f5                	j	800017f0 <do_mmap+0x90>

0000000080001806 <__do_brk>:
    80001806:	1101                	add	sp,sp,-32
    80001808:	e426                	sd	s1,8(sp)
    8000180a:	0000b497          	auipc	s1,0xb
    8000180e:	7f648493          	add	s1,s1,2038 # 8000d000 <current>
    80001812:	789c                	ld	a5,48(s1)
    80001814:	e04a                	sd	s2,0(sp)
    80001816:	ec06                	sd	ra,24(sp)
    80001818:	e822                	sd	s0,16(sp)
    8000181a:	893e                	mv	s2,a5
    8000181c:	00f56663          	bltu	a0,a5,80001828 <__do_brk+0x22>
    80001820:	0404b903          	ld	s2,64(s1)
    80001824:	03256b63          	bltu	a0,s2,8000185a <__do_brk+0x54>
    80001828:	7c88                	ld	a0,56(s1)
    8000182a:	e519                	bnez	a0,80001838 <__do_brk+0x32>
    8000182c:	17fd                	add	a5,a5,-1
    8000182e:	83b1                	srl	a5,a5,0xc
    80001830:	0785                	add	a5,a5,1
    80001832:	00c79513          	sll	a0,a5,0xc
    80001836:	fc88                	sd	a0,56(s1)
    80001838:	fff90413          	add	s0,s2,-1
    8000183c:	8031                	srl	s0,s0,0xc
    8000183e:	0405                	add	s0,s0,1
    80001840:	0432                	sll	s0,s0,0xc
    80001842:	04a46263          	bltu	s0,a0,80001886 <__do_brk+0x80>
    80001846:	00856c63          	bltu	a0,s0,8000185e <__do_brk+0x58>
    8000184a:	fc80                	sd	s0,56(s1)
    8000184c:	60e2                	ld	ra,24(sp)
    8000184e:	6442                	ld	s0,16(sp)
    80001850:	64a2                	ld	s1,8(sp)
    80001852:	854a                	mv	a0,s2
    80001854:	6902                	ld	s2,0(sp)
    80001856:	6105                	add	sp,sp,32
    80001858:	8082                	ret
    8000185a:	892a                	mv	s2,a0
    8000185c:	b7f1                	j	80001828 <__do_brk+0x22>
    8000185e:	4781                	li	a5,0
    80001860:	4701                	li	a4,0
    80001862:	03200693          	li	a3,50
    80001866:	567d                	li	a2,-1
    80001868:	40a405b3          	sub	a1,s0,a0
    8000186c:	c23ff0ef          	jal	8000148e <__do_mmap>
    80001870:	7c9c                	ld	a5,56(s1)
    80001872:	fcf50ce3          	beq	a0,a5,8000184a <__do_brk+0x44>
    80001876:	60e2                	ld	ra,24(sp)
    80001878:	6442                	ld	s0,16(sp)
    8000187a:	893e                	mv	s2,a5
    8000187c:	64a2                	ld	s1,8(sp)
    8000187e:	854a                	mv	a0,s2
    80001880:	6902                	ld	s2,0(sp)
    80001882:	6105                	add	sp,sp,32
    80001884:	8082                	ret
    80001886:	408505b3          	sub	a1,a0,s0
    8000188a:	8522                	mv	a0,s0
    8000188c:	82dff0ef          	jal	800010b8 <__do_munmap>
    80001890:	bf6d                	j	8000184a <__do_brk+0x44>

0000000080001892 <do_brk>:
    80001892:	1141                	add	sp,sp,-16
    80001894:	e406                	sd	ra,8(sp)
    80001896:	00015717          	auipc	a4,0x15
    8000189a:	7d270713          	add	a4,a4,2002 # 80017068 <vm_lock>
    8000189e:	56fd                	li	a3,-1
    800018a0:	431c                	lw	a5,0(a4)
    800018a2:	fffd                	bnez	a5,800018a0 <do_brk+0xe>
    800018a4:	87b6                	mv	a5,a3
    800018a6:	0cf727af          	amoswap.w.aq	a5,a5,(a4)
    800018aa:	2781                	sext.w	a5,a5
    800018ac:	0ff0000f          	fence
    800018b0:	fbe5                	bnez	a5,800018a0 <do_brk+0xe>
    800018b2:	f55ff0ef          	jal	80001806 <__do_brk>
    800018b6:	0ff0000f          	fence
    800018ba:	60a2                	ld	ra,8(sp)
    800018bc:	00015797          	auipc	a5,0x15
    800018c0:	7a07a623          	sw	zero,1964(a5) # 80017068 <vm_lock>
    800018c4:	0141                	add	sp,sp,16
    800018c6:	8082                	ret

00000000800018c8 <do_mremap>:
    800018c8:	fa800513          	li	a0,-88
    800018cc:	8082                	ret

00000000800018ce <do_mprotect>:
    800018ce:	03451793          	sll	a5,a0,0x34
    800018d2:	86aa                	mv	a3,a0
    800018d4:	0347d513          	srl	a0,a5,0x34
    800018d8:	1a079063          	bnez	a5,80001a78 <do_mprotect+0x1aa>
    800018dc:	00015717          	auipc	a4,0x15
    800018e0:	78c70713          	add	a4,a4,1932 # 80017068 <vm_lock>
    800018e4:	587d                	li	a6,-1
    800018e6:	431c                	lw	a5,0(a4)
    800018e8:	fffd                	bnez	a5,800018e6 <do_mprotect+0x18>
    800018ea:	87c2                	mv	a5,a6
    800018ec:	0cf727af          	amoswap.w.aq	a5,a5,(a4)
    800018f0:	2781                	sext.w	a5,a5
    800018f2:	0ff0000f          	fence
    800018f6:	fbe5                	bnez	a5,800018e6 <do_mprotect+0x18>
    800018f8:	95b6                	add	a1,a1,a3
    800018fa:	0eb6f463          	bgeu	a3,a1,800019e2 <do_mprotect+0x114>
    800018fe:	00167e13          	and	t3,a2,1
    80001902:	00267e93          	and	t4,a2,2
    80001906:	00015817          	auipc	a6,0x15
    8000190a:	76a80813          	add	a6,a6,1898 # 80017070 <root_page_table>
    8000190e:	00015317          	auipc	t1,0x15
    80001912:	77230313          	add	t1,t1,1906 # 80017080 <kva2pa_offset>
    80001916:	00467f13          	and	t5,a2,4
    8000191a:	6885                	lui	a7,0x1
    8000191c:	a821                	j	80001934 <do_mprotect+0x66>
    8000191e:	575c                	lw	a5,44(a4)
    80001920:	00f66fb3          	or	t6,a2,a5
    80001924:	12ff9663          	bne	t6,a5,80001a50 <do_mprotect+0x182>
    80001928:	d750                	sw	a2,44(a4)
    8000192a:	12068073          	sfence.vma	a3
    8000192e:	96c6                	add	a3,a3,a7
    80001930:	0ab6f963          	bgeu	a3,a1,800019e2 <do_mprotect+0x114>
    80001934:	00083703          	ld	a4,0(a6)
    80001938:	01e6d793          	srl	a5,a3,0x1e
    8000193c:	1ff7f793          	and	a5,a5,511
    80001940:	078e                	sll	a5,a5,0x3
    80001942:	97ba                	add	a5,a5,a4
    80001944:	6398                	ld	a4,0(a5)
    80001946:	00177793          	and	a5,a4,1
    8000194a:	cbd9                	beqz	a5,800019e0 <do_mprotect+0x112>
    8000194c:	00033f83          	ld	t6,0(t1)
    80001950:	0156d793          	srl	a5,a3,0x15
    80001954:	1ff7f793          	and	a5,a5,511
    80001958:	8329                	srl	a4,a4,0xa
    8000195a:	078e                	sll	a5,a5,0x3
    8000195c:	0732                	sll	a4,a4,0xc
    8000195e:	97fe                	add	a5,a5,t6
    80001960:	97ba                	add	a5,a5,a4
    80001962:	639c                	ld	a5,0(a5)
    80001964:	0017f713          	and	a4,a5,1
    80001968:	cf25                	beqz	a4,800019e0 <do_mprotect+0x112>
    8000196a:	83a9                	srl	a5,a5,0xa
    8000196c:	00c6d713          	srl	a4,a3,0xc
    80001970:	07b2                	sll	a5,a5,0xc
    80001972:	1ff77713          	and	a4,a4,511
    80001976:	97fe                	add	a5,a5,t6
    80001978:	070e                	sll	a4,a4,0x3
    8000197a:	97ba                	add	a5,a5,a4
    8000197c:	c3b5                	beqz	a5,800019e0 <do_mprotect+0x112>
    8000197e:	6398                	ld	a4,0(a5)
    80001980:	c325                	beqz	a4,800019e0 <do_mprotect+0x112>
    80001982:	00177f93          	and	t6,a4,1
    80001986:	f80f8ce3          	beqz	t6,8000191e <do_mprotect+0x50>
    8000198a:	01077f93          	and	t6,a4,16
    8000198e:	0c0f8163          	beqz	t6,80001a50 <do_mprotect+0x182>
    80001992:	020e0463          	beqz	t3,800019ba <do_mprotect+0xec>
    80001996:	00277f93          	and	t6,a4,2
    8000199a:	0a0f8b63          	beqz	t6,80001a50 <do_mprotect+0x182>
    8000199e:	080e9563          	bnez	t4,80001a28 <do_mprotect+0x15a>
    800019a2:	04200f93          	li	t6,66
    800019a6:	0a0f1163          	bnez	t5,80001a48 <do_mprotect+0x17a>
    800019aa:	c0077713          	and	a4,a4,-1024
    800019ae:	01f76733          	or	a4,a4,t6
    800019b2:	01176713          	or	a4,a4,17
    800019b6:	e398                	sd	a4,0(a5)
    800019b8:	bf8d                	j	8000192a <do_mprotect+0x5c>
    800019ba:	020e9b63          	bnez	t4,800019f0 <do_mprotect+0x122>
    800019be:	4f89                	li	t6,2
    800019c0:	fe0f05e3          	beqz	t5,800019aa <do_mprotect+0xdc>
    800019c4:	00877f93          	and	t6,a4,8
    800019c8:	080f8463          	beqz	t6,80001a50 <do_mprotect+0x182>
    800019cc:	04800f93          	li	t6,72
    800019d0:	c0077713          	and	a4,a4,-1024
    800019d4:	01f76733          	or	a4,a4,t6
    800019d8:	01176713          	or	a4,a4,17
    800019dc:	e398                	sd	a4,0(a5)
    800019de:	b7b1                	j	8000192a <do_mprotect+0x5c>
    800019e0:	5551                	li	a0,-12
    800019e2:	0ff0000f          	fence
    800019e6:	00015797          	auipc	a5,0x15
    800019ea:	6807a123          	sw	zero,1666(a5) # 80017068 <vm_lock>
    800019ee:	8082                	ret
    800019f0:	00477f93          	and	t6,a4,4
    800019f4:	040f8e63          	beqz	t6,80001a50 <do_mprotect+0x182>
    800019f8:	08400f93          	li	t6,132
    800019fc:	fa0f07e3          	beqz	t5,800019aa <do_mprotect+0xdc>
    80001a00:	00877f93          	and	t6,a4,8
    80001a04:	040f8663          	beqz	t6,80001a50 <do_mprotect+0x182>
    80001a08:	040e0c63          	beqz	t3,80001a60 <do_mprotect+0x192>
    80001a0c:	0ce00f93          	li	t6,206
    80001a10:	f80e9de3          	bnez	t4,800019aa <do_mprotect+0xdc>
    80001a14:	04a00f93          	li	t6,74
    80001a18:	c0077713          	and	a4,a4,-1024
    80001a1c:	01f76733          	or	a4,a4,t6
    80001a20:	01176713          	or	a4,a4,17
    80001a24:	e398                	sd	a4,0(a5)
    80001a26:	b711                	j	8000192a <do_mprotect+0x5c>
    80001a28:	00477f93          	and	t6,a4,4
    80001a2c:	020f8263          	beqz	t6,80001a50 <do_mprotect+0x182>
    80001a30:	fc0f18e3          	bnez	t5,80001a00 <do_mprotect+0x132>
    80001a34:	0c600f93          	li	t6,198
    80001a38:	c0077713          	and	a4,a4,-1024
    80001a3c:	01f76733          	or	a4,a4,t6
    80001a40:	01176713          	or	a4,a4,17
    80001a44:	e398                	sd	a4,0(a5)
    80001a46:	b5d5                	j	8000192a <do_mprotect+0x5c>
    80001a48:	00877f93          	and	t6,a4,8
    80001a4c:	fc0f94e3          	bnez	t6,80001a14 <do_mprotect+0x146>
    80001a50:	554d                	li	a0,-13
    80001a52:	0ff0000f          	fence
    80001a56:	00015797          	auipc	a5,0x15
    80001a5a:	6007a923          	sw	zero,1554(a5) # 80017068 <vm_lock>
    80001a5e:	8082                	ret
    80001a60:	0cc00f93          	li	t6,204
    80001a64:	f60e84e3          	beqz	t4,800019cc <do_mprotect+0xfe>
    80001a68:	c0077713          	and	a4,a4,-1024
    80001a6c:	01f76733          	or	a4,a4,t6
    80001a70:	01176713          	or	a4,a4,17
    80001a74:	e398                	sd	a4,0(a5)
    80001a76:	bd55                	j	8000192a <do_mprotect+0x5c>
    80001a78:	5529                	li	a0,-22
    80001a7a:	8082                	ret

0000000080001a7c <populate_mapping>:
    80001a7c:	77fd                	lui	a5,0xfffff
    80001a7e:	8fe9                	and	a5,a5,a0
    80001a80:	95aa                	add	a1,a1,a0
    80001a82:	8a09                	and	a2,a2,2
    80001a84:	6705                	lui	a4,0x1
    80001a86:	00b7f763          	bgeu	a5,a1,80001a94 <populate_mapping+0x18>
    80001a8a:	e611                	bnez	a2,80001a96 <populate_mapping+0x1a>
    80001a8c:	4394                	lw	a3,0(a5)
    80001a8e:	97ba                	add	a5,a5,a4
    80001a90:	feb7ede3          	bltu	a5,a1,80001a8a <populate_mapping+0xe>
    80001a94:	8082                	ret
    80001a96:	0f50000f          	fence	iorw,ow
    80001a9a:	0407a02f          	amoadd.w.aq	zero,zero,(a5)
    80001a9e:	bfc5                	j	80001a8e <populate_mapping+0x12>

0000000080001aa0 <pk_vm_init>:
    80001aa0:	7159                	add	sp,sp,-112
    80001aa2:	f0a2                	sd	s0,96(sp)
    80001aa4:	00015417          	auipc	s0,0x15
    80001aa8:	60c40413          	add	s0,s0,1548 # 800170b0 <mem_size>
    80001aac:	600c                	ld	a1,0(s0)
    80001aae:	4785                	li	a5,1
    80001ab0:	f486                	sd	ra,104(sp)
    80001ab2:	eca6                	sd	s1,88(sp)
    80001ab4:	e8ca                	sd	s2,80(sp)
    80001ab6:	e4ce                	sd	s3,72(sp)
    80001ab8:	e0d2                	sd	s4,64(sp)
    80001aba:	fc56                	sd	s5,56(sp)
    80001abc:	f85a                	sd	s6,48(sp)
    80001abe:	f45e                	sd	s7,40(sp)
    80001ac0:	f062                	sd	s8,32(sp)
    80001ac2:	ec66                	sd	s9,24(sp)
    80001ac4:	179a                	sll	a5,a5,0x26
    80001ac6:	00b7f363          	bgeu	a5,a1,80001acc <pk_vm_init+0x2c>
    80001aca:	85be                	mv	a1,a5
    80001acc:	00016797          	auipc	a5,0x16
    80001ad0:	53478793          	add	a5,a5,1332 # 80018000 <_end>
    80001ad4:	e43e                	sd	a5,8(sp)
    80001ad6:	6722                	ld	a4,8(sp)
    80001ad8:	00c5d793          	srl	a5,a1,0xc
    80001adc:	4605                	li	a2,1
    80001ade:	177d                	add	a4,a4,-1 # fff <_ftext-0x7ffff001>
    80001ae0:	078e                	sll	a5,a5,0x3
    80001ae2:	8331                	srl	a4,a4,0xc
    80001ae4:	01f61693          	sll	a3,a2,0x1f
    80001ae8:	17fd                	add	a5,a5,-1
    80001aea:	0705                	add	a4,a4,1
    80001aec:	0732                	sll	a4,a4,0xc
    80001aee:	00015897          	auipc	a7,0x15
    80001af2:	56a88893          	add	a7,a7,1386 # 80017058 <next_free_page>
    80001af6:	83b1                	srl	a5,a5,0xc
    80001af8:	96ae                	add	a3,a3,a1
    80001afa:	0008b503          	ld	a0,0(a7)
    80001afe:	0785                	add	a5,a5,1
    80001b00:	8e99                	sub	a3,a3,a4
    80001b02:	161a                	sll	a2,a2,0x26
    80001b04:	0000b817          	auipc	a6,0xb
    80001b08:	4fc80813          	add	a6,a6,1276 # 8000d000 <current>
    80001b0c:	07b2                	sll	a5,a5,0xc
    80001b0e:	82b1                	srl	a3,a3,0xc
    80001b10:	04c83023          	sd	a2,64(a6)
    80001b14:	04c83423          	sd	a2,72(a6)
    80001b18:	83b1                	srl	a5,a5,0xc
    80001b1a:	00015617          	auipc	a2,0x15
    80001b1e:	54e63323          	sd	a4,1350(a2) # 80017060 <first_free_page>
    80001b22:	00015617          	auipc	a2,0x15
    80001b26:	52d63723          	sd	a3,1326(a2) # 80017050 <free_pages>
    80001b2a:	e00c                	sd	a1,0(s0)
    80001b2c:	00a78633          	add	a2,a5,a0
    80001b30:	10f66363          	bltu	a2,a5,80001c36 <pk_vm_init+0x196>
    80001b34:	4781                	li	a5,0
    80001b36:	00c6e763          	bltu	a3,a2,80001b44 <pk_vm_init+0xa4>
    80001b3a:	0532                	sll	a0,a0,0xc
    80001b3c:	00c8b023          	sd	a2,0(a7)
    80001b40:	00e507b3          	add	a5,a0,a4
    80001b44:	00015497          	auipc	s1,0x15
    80001b48:	4ec48493          	add	s1,s1,1260 # 80017030 <page_freelist_storage>
    80001b4c:	e09c                	sd	a5,0(s1)
    80001b4e:	e98ff0ef          	jal	800011e6 <__page_alloc>
    80001b52:	8a2a                	mv	s4,a0
    80001b54:	0e050f63          	beqz	a0,80001c52 <pk_vm_init+0x1b2>
    80001b58:	00043a83          	ld	s5,0(s0)
    80001b5c:	00015c97          	auipc	s9,0x15
    80001b60:	514c8c93          	add	s9,s9,1300 # 80017070 <root_page_table>
    80001b64:	00acb023          	sd	a0,0(s9)
    80001b68:	02ba9793          	sll	a5,s5,0x2b
    80001b6c:	efe9                	bnez	a5,80001c46 <pk_vm_init+0x1a6>
    80001b6e:	59fd                	li	s3,-1
    80001b70:	199a                	sll	s3,s3,0x26
    80001b72:	040a8d63          	beqz	s5,80001bcc <pk_vm_init+0x12c>
    80001b76:	08100b13          	li	s6,129
    80001b7a:	0b7e                	sll	s6,s6,0x1f
    80001b7c:	00015c17          	auipc	s8,0x15
    80001b80:	504c0c13          	add	s8,s8,1284 # 80017080 <kva2pa_offset>
    80001b84:	00200bb7          	lui	s7,0x200
    80001b88:	9ace                	add	s5,s5,s3
    80001b8a:	01e9d413          	srl	s0,s3,0x1e
    80001b8e:	1ff47413          	and	s0,s0,511
    80001b92:	040e                	sll	s0,s0,0x3
    80001b94:	9452                	add	s0,s0,s4
    80001b96:	601c                	ld	a5,0(s0)
    80001b98:	01698933          	add	s2,s3,s6
    80001b9c:	0017f713          	and	a4,a5,1
    80001ba0:	c341                	beqz	a4,80001c20 <pk_vm_init+0x180>
    80001ba2:	83a9                	srl	a5,a5,0xa
    80001ba4:	000c3683          	ld	a3,0(s8)
    80001ba8:	0159d713          	srl	a4,s3,0x15
    80001bac:	07b2                	sll	a5,a5,0xc
    80001bae:	1ff77713          	and	a4,a4,511
    80001bb2:	97b6                	add	a5,a5,a3
    80001bb4:	070e                	sll	a4,a4,0x3
    80001bb6:	97ba                	add	a5,a5,a4
    80001bb8:	c3c9                	beqz	a5,80001c3a <pk_vm_init+0x19a>
    80001bba:	00c95713          	srl	a4,s2,0xc
    80001bbe:	072a                	sll	a4,a4,0xa
    80001bc0:	0cf76713          	or	a4,a4,207
    80001bc4:	e398                	sd	a4,0(a5)
    80001bc6:	99de                	add	s3,s3,s7
    80001bc8:	fd5991e3          	bne	s3,s5,80001b8a <pk_vm_init+0xea>
    80001bcc:	12000073          	sfence.vma
    80001bd0:	000cb403          	ld	s0,0(s9)
    80001bd4:	577d                	li	a4,-1
    80001bd6:	177e                	sll	a4,a4,0x3f
    80001bd8:	00c45793          	srl	a5,s0,0xc
    80001bdc:	8fd9                	or	a5,a5,a4
    80001bde:	18079073          	csrw	satp,a5
    80001be2:	e04ff0ef          	jal	800011e6 <__page_alloc>
    80001be6:	c535                	beqz	a0,80001c52 <pk_vm_init+0x1b2>
    80001be8:	f7f00793          	li	a5,-129
    80001bec:	6098                	ld	a4,0(s1)
    80001bee:	07fe                	sll	a5,a5,0x1f
    80001bf0:	943e                	add	s0,s0,a5
    80001bf2:	008cb023          	sd	s0,0(s9)
    80001bf6:	70a6                	ld	ra,104(sp)
    80001bf8:	7406                	ld	s0,96(sp)
    80001bfa:	973e                	add	a4,a4,a5
    80001bfc:	00015697          	auipc	a3,0x15
    80001c00:	48f6b223          	sd	a5,1156(a3) # 80017080 <kva2pa_offset>
    80001c04:	e098                	sd	a4,0(s1)
    80001c06:	6785                	lui	a5,0x1
    80001c08:	64e6                	ld	s1,88(sp)
    80001c0a:	6946                	ld	s2,80(sp)
    80001c0c:	69a6                	ld	s3,72(sp)
    80001c0e:	6a06                	ld	s4,64(sp)
    80001c10:	7ae2                	ld	s5,56(sp)
    80001c12:	7b42                	ld	s6,48(sp)
    80001c14:	7ba2                	ld	s7,40(sp)
    80001c16:	7c02                	ld	s8,32(sp)
    80001c18:	6ce2                	ld	s9,24(sp)
    80001c1a:	953e                	add	a0,a0,a5
    80001c1c:	6165                	add	sp,sp,112
    80001c1e:	8082                	ret
    80001c20:	dc6ff0ef          	jal	800011e6 <__page_alloc>
    80001c24:	c919                	beqz	a0,80001c3a <pk_vm_init+0x19a>
    80001c26:	00c55793          	srl	a5,a0,0xc
    80001c2a:	00a79713          	sll	a4,a5,0xa
    80001c2e:	00176713          	or	a4,a4,1
    80001c32:	e018                	sd	a4,0(s0)
    80001c34:	bf85                	j	80001ba4 <pk_vm_init+0x104>
    80001c36:	4781                	li	a5,0
    80001c38:	b731                	j	80001b44 <pk_vm_init+0xa4>
    80001c3a:	00008517          	auipc	a0,0x8
    80001c3e:	40650513          	add	a0,a0,1030 # 8000a040 <softfloat_countLeadingZeros8+0x408>
    80001c42:	ad0ff0ef          	jal	80000f12 <kassert_fail>
    80001c46:	00008517          	auipc	a0,0x8
    80001c4a:	42a50513          	add	a0,a0,1066 # 8000a070 <softfloat_countLeadingZeros8+0x438>
    80001c4e:	ac4ff0ef          	jal	80000f12 <kassert_fail>
    80001c52:	00008517          	auipc	a0,0x8
    80001c56:	3d650513          	add	a0,a0,982 # 8000a028 <softfloat_countLeadingZeros8+0x3f0>
    80001c5a:	a94ff0ef          	jal	80000eee <do_panic>

0000000080001c5e <memset_user>:
    80001c5e:	7179                	add	sp,sp,-48
    80001c60:	f022                	sd	s0,32(sp)
    80001c62:	ec26                	sd	s1,24(sp)
    80001c64:	e44e                	sd	s3,8(sp)
    80001c66:	f406                	sd	ra,40(sp)
    80001c68:	e84a                	sd	s2,16(sp)
    80001c6a:	00c507b3          	add	a5,a0,a2
    80001c6e:	842a                	mv	s0,a0
    80001c70:	84b2                	mv	s1,a2
    80001c72:	89ae                	mv	s3,a1
    80001c74:	00a7e963          	bltu	a5,a0,80001c86 <memset_user+0x28>
    80001c78:	fff60713          	add	a4,a2,-1
    80001c7c:	57fd                	li	a5,-1
    80001c7e:	972a                	add	a4,a4,a0
    80001c80:	179a                	sll	a5,a5,0x26
    80001c82:	00f76663          	bltu	a4,a5,80001c8e <memset_user+0x30>
    80001c86:	4589                	li	a1,2
    80001c88:	8522                	mv	a0,s0
    80001c8a:	fceff0ef          	jal	80001458 <handle_page_fault>
    80001c8e:	00040937          	lui	s2,0x40
    80001c92:	10092973          	csrrs	s2,sstatus,s2
    80001c96:	8626                	mv	a2,s1
    80001c98:	85ce                	mv	a1,s3
    80001c9a:	8522                	mv	a0,s0
    80001c9c:	1c0070ef          	jal	80008e5c <memset>
    80001ca0:	10091073          	csrw	sstatus,s2
    80001ca4:	70a2                	ld	ra,40(sp)
    80001ca6:	7402                	ld	s0,32(sp)
    80001ca8:	64e2                	ld	s1,24(sp)
    80001caa:	6942                	ld	s2,16(sp)
    80001cac:	69a2                	ld	s3,8(sp)
    80001cae:	6145                	add	sp,sp,48
    80001cb0:	8082                	ret

0000000080001cb2 <memcpy_to_user>:
    80001cb2:	7179                	add	sp,sp,-48
    80001cb4:	f022                	sd	s0,32(sp)
    80001cb6:	ec26                	sd	s1,24(sp)
    80001cb8:	e44e                	sd	s3,8(sp)
    80001cba:	f406                	sd	ra,40(sp)
    80001cbc:	e84a                	sd	s2,16(sp)
    80001cbe:	00c507b3          	add	a5,a0,a2
    80001cc2:	842a                	mv	s0,a0
    80001cc4:	84b2                	mv	s1,a2
    80001cc6:	89ae                	mv	s3,a1
    80001cc8:	00a7e963          	bltu	a5,a0,80001cda <memcpy_to_user+0x28>
    80001ccc:	fff60713          	add	a4,a2,-1
    80001cd0:	57fd                	li	a5,-1
    80001cd2:	972a                	add	a4,a4,a0
    80001cd4:	179a                	sll	a5,a5,0x26
    80001cd6:	00f76663          	bltu	a4,a5,80001ce2 <memcpy_to_user+0x30>
    80001cda:	4589                	li	a1,2
    80001cdc:	8522                	mv	a0,s0
    80001cde:	f7aff0ef          	jal	80001458 <handle_page_fault>
    80001ce2:	00040937          	lui	s2,0x40
    80001ce6:	10092973          	csrrs	s2,sstatus,s2
    80001cea:	8626                	mv	a2,s1
    80001cec:	85ce                	mv	a1,s3
    80001cee:	8522                	mv	a0,s0
    80001cf0:	10e070ef          	jal	80008dfe <memcpy>
    80001cf4:	10091073          	csrw	sstatus,s2
    80001cf8:	70a2                	ld	ra,40(sp)
    80001cfa:	7402                	ld	s0,32(sp)
    80001cfc:	64e2                	ld	s1,24(sp)
    80001cfe:	6942                	ld	s2,16(sp)
    80001d00:	69a2                	ld	s3,8(sp)
    80001d02:	6145                	add	sp,sp,48
    80001d04:	8082                	ret

0000000080001d06 <memcpy_from_user>:
    80001d06:	7179                	add	sp,sp,-48
    80001d08:	f022                	sd	s0,32(sp)
    80001d0a:	ec26                	sd	s1,24(sp)
    80001d0c:	e44e                	sd	s3,8(sp)
    80001d0e:	f406                	sd	ra,40(sp)
    80001d10:	e84a                	sd	s2,16(sp)
    80001d12:	00c587b3          	add	a5,a1,a2
    80001d16:	842e                	mv	s0,a1
    80001d18:	84b2                	mv	s1,a2
    80001d1a:	89aa                	mv	s3,a0
    80001d1c:	00b7e963          	bltu	a5,a1,80001d2e <memcpy_from_user+0x28>
    80001d20:	fff60713          	add	a4,a2,-1
    80001d24:	57fd                	li	a5,-1
    80001d26:	972e                	add	a4,a4,a1
    80001d28:	179a                	sll	a5,a5,0x26
    80001d2a:	00f76663          	bltu	a4,a5,80001d36 <memcpy_from_user+0x30>
    80001d2e:	4585                	li	a1,1
    80001d30:	8522                	mv	a0,s0
    80001d32:	f26ff0ef          	jal	80001458 <handle_page_fault>
    80001d36:	00040937          	lui	s2,0x40
    80001d3a:	10092973          	csrrs	s2,sstatus,s2
    80001d3e:	8626                	mv	a2,s1
    80001d40:	85a2                	mv	a1,s0
    80001d42:	854e                	mv	a0,s3
    80001d44:	0ba070ef          	jal	80008dfe <memcpy>
    80001d48:	10091073          	csrw	sstatus,s2
    80001d4c:	70a2                	ld	ra,40(sp)
    80001d4e:	7402                	ld	s0,32(sp)
    80001d50:	64e2                	ld	s1,24(sp)
    80001d52:	6942                	ld	s2,16(sp)
    80001d54:	69a2                	ld	s3,8(sp)
    80001d56:	6145                	add	sp,sp,48
    80001d58:	8082                	ret

0000000080001d5a <strcpy_from_user>:
    80001d5a:	7179                	add	sp,sp,-48
    80001d5c:	e052                	sd	s4,0(sp)
    80001d5e:	f406                	sd	ra,40(sp)
    80001d60:	f022                	sd	s0,32(sp)
    80001d62:	ec26                	sd	s1,24(sp)
    80001d64:	e84a                	sd	s2,16(sp)
    80001d66:	e44e                	sd	s3,8(sp)
    80001d68:	00040a37          	lui	s4,0x40
    80001d6c:	100a2a73          	csrrs	s4,sstatus,s4
    80001d70:	c605                	beqz	a2,80001d98 <strcpy_from_user+0x3e>
    80001d72:	59fd                	li	s3,-1
    80001d74:	84aa                	mv	s1,a0
    80001d76:	842e                	mv	s0,a1
    80001d78:	00c58933          	add	s2,a1,a2
    80001d7c:	199a                	sll	s3,s3,0x26
    80001d7e:	03347863          	bgeu	s0,s3,80001dae <strcpy_from_user+0x54>
    80001d82:	00044783          	lbu	a5,0(s0)
    80001d86:	0485                	add	s1,s1,1
    80001d88:	0405                	add	s0,s0,1
    80001d8a:	0ff7f793          	zext.b	a5,a5
    80001d8e:	fef48fa3          	sb	a5,-1(s1)
    80001d92:	cb9d                	beqz	a5,80001dc8 <strcpy_from_user+0x6e>
    80001d94:	fe8915e3          	bne	s2,s0,80001d7e <strcpy_from_user+0x24>
    80001d98:	4501                	li	a0,0
    80001d9a:	100a1073          	csrw	sstatus,s4
    80001d9e:	70a2                	ld	ra,40(sp)
    80001da0:	7402                	ld	s0,32(sp)
    80001da2:	64e2                	ld	s1,24(sp)
    80001da4:	6942                	ld	s2,16(sp)
    80001da6:	69a2                	ld	s3,8(sp)
    80001da8:	6a02                	ld	s4,0(sp)
    80001daa:	6145                	add	sp,sp,48
    80001dac:	8082                	ret
    80001dae:	8522                	mv	a0,s0
    80001db0:	4585                	li	a1,1
    80001db2:	ea6ff0ef          	jal	80001458 <handle_page_fault>
    80001db6:	00044783          	lbu	a5,0(s0)
    80001dba:	0485                	add	s1,s1,1
    80001dbc:	0405                	add	s0,s0,1
    80001dbe:	0ff7f793          	zext.b	a5,a5
    80001dc2:	fef48fa3          	sb	a5,-1(s1)
    80001dc6:	f7f9                	bnez	a5,80001d94 <strcpy_from_user+0x3a>
    80001dc8:	4505                	li	a0,1
    80001dca:	bfc1                	j	80001d9a <strcpy_from_user+0x40>

0000000080001dcc <trap_entry>:
    80001dcc:	14011173          	csrrw	sp,sscratch,sp
    80001dd0:	00011463          	bnez	sp,80001dd8 <trap_entry+0xc>
    80001dd4:	14002173          	csrr	sp,sscratch
    80001dd8:	7129                	add	sp,sp,-320
    80001dda:	e406                	sd	ra,8(sp)
    80001ddc:	ec0e                	sd	gp,24(sp)
    80001dde:	f012                	sd	tp,32(sp)
    80001de0:	f416                	sd	t0,40(sp)
    80001de2:	f81a                	sd	t1,48(sp)
    80001de4:	fc1e                	sd	t2,56(sp)
    80001de6:	e0a2                	sd	s0,64(sp)
    80001de8:	e4a6                	sd	s1,72(sp)
    80001dea:	e8aa                	sd	a0,80(sp)
    80001dec:	ecae                	sd	a1,88(sp)
    80001dee:	f0b2                	sd	a2,96(sp)
    80001df0:	f4b6                	sd	a3,104(sp)
    80001df2:	f8ba                	sd	a4,112(sp)
    80001df4:	fcbe                	sd	a5,120(sp)
    80001df6:	e142                	sd	a6,128(sp)
    80001df8:	e546                	sd	a7,136(sp)
    80001dfa:	e94a                	sd	s2,144(sp)
    80001dfc:	ed4e                	sd	s3,152(sp)
    80001dfe:	f152                	sd	s4,160(sp)
    80001e00:	f556                	sd	s5,168(sp)
    80001e02:	f95a                	sd	s6,176(sp)
    80001e04:	fd5e                	sd	s7,184(sp)
    80001e06:	e1e2                	sd	s8,192(sp)
    80001e08:	e5e6                	sd	s9,200(sp)
    80001e0a:	e9ea                	sd	s10,208(sp)
    80001e0c:	edee                	sd	s11,216(sp)
    80001e0e:	f1f2                	sd	t3,224(sp)
    80001e10:	f5f6                	sd	t4,232(sp)
    80001e12:	f9fa                	sd	t5,240(sp)
    80001e14:	fdfe                	sd	t6,248(sp)
    80001e16:	140012f3          	csrrw	t0,sscratch,zero
    80001e1a:	10002473          	csrr	s0,sstatus
    80001e1e:	14102373          	csrr	t1,sepc
    80001e22:	143023f3          	csrr	t2,stval
    80001e26:	14202e73          	csrr	t3,scause
    80001e2a:	e816                	sd	t0,16(sp)
    80001e2c:	e222                	sd	s0,256(sp)
    80001e2e:	e61a                	sd	t1,264(sp)
    80001e30:	ea1e                	sd	t2,272(sp)
    80001e32:	ee72                	sd	t3,280(sp)
    80001e34:	850a                	mv	a0,sp
    80001e36:	22c000ef          	jal	80002062 <handle_trap>
    80001e3a:	850a                	mv	a0,sp
    80001e3c:	10047413          	and	s0,s0,256
    80001e40:	e401                	bnez	s0,80001e48 <start_user>
    80001e42:	6131                	add	sp,sp,320
    80001e44:	14011073          	csrw	sscratch,sp

0000000080001e48 <start_user>:
    80001e48:	10053283          	ld	t0,256(a0)
    80001e4c:	10853303          	ld	t1,264(a0)
    80001e50:	10029073          	csrw	sstatus,t0
    80001e54:	14131073          	csrw	sepc,t1
    80001e58:	00853083          	ld	ra,8(a0)
    80001e5c:	01053103          	ld	sp,16(a0)
    80001e60:	01853183          	ld	gp,24(a0)
    80001e64:	02053203          	ld	tp,32(a0)
    80001e68:	02853283          	ld	t0,40(a0)
    80001e6c:	03053303          	ld	t1,48(a0)
    80001e70:	03853383          	ld	t2,56(a0)
    80001e74:	6120                	ld	s0,64(a0)
    80001e76:	6524                	ld	s1,72(a0)
    80001e78:	6d2c                	ld	a1,88(a0)
    80001e7a:	7130                	ld	a2,96(a0)
    80001e7c:	7534                	ld	a3,104(a0)
    80001e7e:	7938                	ld	a4,112(a0)
    80001e80:	7d3c                	ld	a5,120(a0)
    80001e82:	08053803          	ld	a6,128(a0)
    80001e86:	08853883          	ld	a7,136(a0)
    80001e8a:	09053903          	ld	s2,144(a0)
    80001e8e:	09853983          	ld	s3,152(a0)
    80001e92:	0a053a03          	ld	s4,160(a0)
    80001e96:	0a853a83          	ld	s5,168(a0)
    80001e9a:	0b053b03          	ld	s6,176(a0)
    80001e9e:	0b853b83          	ld	s7,184(a0)
    80001ea2:	0c053c03          	ld	s8,192(a0)
    80001ea6:	0c853c83          	ld	s9,200(a0)
    80001eaa:	0d053d03          	ld	s10,208(a0)
    80001eae:	0d853d83          	ld	s11,216(a0)
    80001eb2:	0e053e03          	ld	t3,224(a0)
    80001eb6:	0e853e83          	ld	t4,232(a0)
    80001eba:	0f053f03          	ld	t5,240(a0)
    80001ebe:	0f853f83          	ld	t6,248(a0)
    80001ec2:	6928                	ld	a0,80(a0)
    80001ec4:	10200073          	sret
	...

0000000080001eca <segfault>:
    80001eca:	1101                	add	sp,sp,-32
    80001ecc:	e822                	sd	s0,16(sp)
    80001ece:	e426                	sd	s1,8(sp)
    80001ed0:	e04a                	sd	s2,0(sp)
    80001ed2:	84ae                	mv	s1,a1
    80001ed4:	892a                	mv	s2,a0
    80001ed6:	ec06                	sd	ra,24(sp)
    80001ed8:	8432                	mv	s0,a2
    80001eda:	f71fe0ef          	jal	80000e4a <dump_tf>
    80001ede:	10093783          	ld	a5,256(s2) # 40100 <_ftext-0x7ffbff00>
    80001ee2:	00008597          	auipc	a1,0x8
    80001ee6:	1be58593          	add	a1,a1,446 # 8000a0a0 <softfloat_countLeadingZeros8+0x468>
    80001eea:	1007f793          	and	a5,a5,256
    80001eee:	e789                	bnez	a5,80001ef8 <segfault+0x2e>
    80001ef0:	00008597          	auipc	a1,0x8
    80001ef4:	1b858593          	add	a1,a1,440 # 8000a0a8 <softfloat_countLeadingZeros8+0x470>
    80001ef8:	86a6                	mv	a3,s1
    80001efa:	8622                	mv	a2,s0
    80001efc:	00008517          	auipc	a0,0x8
    80001f00:	1b450513          	add	a0,a0,436 # 8000a0b0 <softfloat_countLeadingZeros8+0x478>
    80001f04:	febfe0ef          	jal	80000eee <do_panic>

0000000080001f08 <handle_store_access_fault>:
    80001f08:	1141                	add	sp,sp,-16
    80001f0a:	e406                	sd	ra,8(sp)
    80001f0c:	f3ffe0ef          	jal	80000e4a <dump_tf>
    80001f10:	00008517          	auipc	a0,0x8
    80001f14:	1b850513          	add	a0,a0,440 # 8000a0c8 <softfloat_countLeadingZeros8+0x490>
    80001f18:	fd7fe0ef          	jal	80000eee <do_panic>

0000000080001f1c <handle_misaligned_store>:
    80001f1c:	1141                	add	sp,sp,-16
    80001f1e:	e406                	sd	ra,8(sp)
    80001f20:	f2bfe0ef          	jal	80000e4a <dump_tf>
    80001f24:	00008517          	auipc	a0,0x8
    80001f28:	1c450513          	add	a0,a0,452 # 8000a0e8 <softfloat_countLeadingZeros8+0x4b0>
    80001f2c:	fc3fe0ef          	jal	80000eee <do_panic>

0000000080001f30 <handle_load_access_fault>:
    80001f30:	1141                	add	sp,sp,-16
    80001f32:	e406                	sd	ra,8(sp)
    80001f34:	f17fe0ef          	jal	80000e4a <dump_tf>
    80001f38:	00008517          	auipc	a0,0x8
    80001f3c:	1c850513          	add	a0,a0,456 # 8000a100 <softfloat_countLeadingZeros8+0x4c8>
    80001f40:	faffe0ef          	jal	80000eee <do_panic>

0000000080001f44 <handle_misaligned_load>:
    80001f44:	1141                	add	sp,sp,-16
    80001f46:	e406                	sd	ra,8(sp)
    80001f48:	f03fe0ef          	jal	80000e4a <dump_tf>
    80001f4c:	00008517          	auipc	a0,0x8
    80001f50:	1cc50513          	add	a0,a0,460 # 8000a118 <softfloat_countLeadingZeros8+0x4e0>
    80001f54:	f9bfe0ef          	jal	80000eee <do_panic>

0000000080001f58 <handle_breakpoint>:
    80001f58:	1141                	add	sp,sp,-16
    80001f5a:	e406                	sd	ra,8(sp)
    80001f5c:	eeffe0ef          	jal	80000e4a <dump_tf>
    80001f60:	00008517          	auipc	a0,0x8
    80001f64:	1d050513          	add	a0,a0,464 # 8000a130 <softfloat_countLeadingZeros8+0x4f8>
    80001f68:	f87fe0ef          	jal	80000eee <do_panic>

0000000080001f6c <handle_illegal_instruction>:
    80001f6c:	1141                	add	sp,sp,-16
    80001f6e:	e406                	sd	ra,8(sp)
    80001f70:	edbfe0ef          	jal	80000e4a <dump_tf>
    80001f74:	00008517          	auipc	a0,0x8
    80001f78:	1cc50513          	add	a0,a0,460 # 8000a140 <softfloat_countLeadingZeros8+0x508>
    80001f7c:	f73fe0ef          	jal	80000eee <do_panic>

0000000080001f80 <handle_instruction_access_fault>:
    80001f80:	1141                	add	sp,sp,-16
    80001f82:	e406                	sd	ra,8(sp)
    80001f84:	ec7fe0ef          	jal	80000e4a <dump_tf>
    80001f88:	00008517          	auipc	a0,0x8
    80001f8c:	1e050513          	add	a0,a0,480 # 8000a168 <softfloat_countLeadingZeros8+0x530>
    80001f90:	f5ffe0ef          	jal	80000eee <do_panic>

0000000080001f94 <handle_misaligned_fetch>:
    80001f94:	1141                	add	sp,sp,-16
    80001f96:	e406                	sd	ra,8(sp)
    80001f98:	eb3fe0ef          	jal	80000e4a <dump_tf>
    80001f9c:	00008517          	auipc	a0,0x8
    80001fa0:	1ec50513          	add	a0,a0,492 # 8000a188 <softfloat_countLeadingZeros8+0x550>
    80001fa4:	f4bfe0ef          	jal	80000eee <do_panic>

0000000080001fa8 <handle_syscall>:
    80001fa8:	1141                	add	sp,sp,-16
    80001faa:	e022                	sd	s0,0(sp)
    80001fac:	7d3c                	ld	a5,120(a0)
    80001fae:	842a                	mv	s0,a0
    80001fb0:	08853803          	ld	a6,136(a0)
    80001fb4:	7938                	ld	a4,112(a0)
    80001fb6:	7534                	ld	a3,104(a0)
    80001fb8:	7130                	ld	a2,96(a0)
    80001fba:	6d2c                	ld	a1,88(a0)
    80001fbc:	6928                	ld	a0,80(a0)
    80001fbe:	e406                	sd	ra,8(sp)
    80001fc0:	6c3000ef          	jal	80002e82 <do_syscall>
    80001fc4:	10843783          	ld	a5,264(s0)
    80001fc8:	60a2                	ld	ra,8(sp)
    80001fca:	e828                	sd	a0,80(s0)
    80001fcc:	0791                	add	a5,a5,4 # 1004 <_ftext-0x7fffeffc>
    80001fce:	10f43423          	sd	a5,264(s0)
    80001fd2:	6402                	ld	s0,0(sp)
    80001fd4:	0141                	add	sp,sp,16
    80001fd6:	8082                	ret

0000000080001fd8 <handle_fault_store>:
    80001fd8:	1141                	add	sp,sp,-16
    80001fda:	e022                	sd	s0,0(sp)
    80001fdc:	842a                	mv	s0,a0
    80001fde:	11053503          	ld	a0,272(a0)
    80001fe2:	4589                	li	a1,2
    80001fe4:	e406                	sd	ra,8(sp)
    80001fe6:	c72ff0ef          	jal	80001458 <handle_page_fault>
    80001fea:	e509                	bnez	a0,80001ff4 <handle_fault_store+0x1c>
    80001fec:	60a2                	ld	ra,8(sp)
    80001fee:	6402                	ld	s0,0(sp)
    80001ff0:	0141                	add	sp,sp,16
    80001ff2:	8082                	ret
    80001ff4:	11043583          	ld	a1,272(s0)
    80001ff8:	00008617          	auipc	a2,0x8
    80001ffc:	1b060613          	add	a2,a2,432 # 8000a1a8 <softfloat_countLeadingZeros8+0x570>
    80002000:	8522                	mv	a0,s0
    80002002:	ec9ff0ef          	jal	80001eca <segfault>

0000000080002006 <handle_fault_load>:
    80002006:	1141                	add	sp,sp,-16
    80002008:	e022                	sd	s0,0(sp)
    8000200a:	842a                	mv	s0,a0
    8000200c:	11053503          	ld	a0,272(a0)
    80002010:	4585                	li	a1,1
    80002012:	e406                	sd	ra,8(sp)
    80002014:	c44ff0ef          	jal	80001458 <handle_page_fault>
    80002018:	e509                	bnez	a0,80002022 <handle_fault_load+0x1c>
    8000201a:	60a2                	ld	ra,8(sp)
    8000201c:	6402                	ld	s0,0(sp)
    8000201e:	0141                	add	sp,sp,16
    80002020:	8082                	ret
    80002022:	11043583          	ld	a1,272(s0)
    80002026:	00008617          	auipc	a2,0x8
    8000202a:	18a60613          	add	a2,a2,394 # 8000a1b0 <softfloat_countLeadingZeros8+0x578>
    8000202e:	8522                	mv	a0,s0
    80002030:	e9bff0ef          	jal	80001eca <segfault>

0000000080002034 <handle_fault_fetch>:
    80002034:	1141                	add	sp,sp,-16
    80002036:	e022                	sd	s0,0(sp)
    80002038:	842a                	mv	s0,a0
    8000203a:	11053503          	ld	a0,272(a0)
    8000203e:	4591                	li	a1,4
    80002040:	e406                	sd	ra,8(sp)
    80002042:	c16ff0ef          	jal	80001458 <handle_page_fault>
    80002046:	e509                	bnez	a0,80002050 <handle_fault_fetch+0x1c>
    80002048:	60a2                	ld	ra,8(sp)
    8000204a:	6402                	ld	s0,0(sp)
    8000204c:	0141                	add	sp,sp,16
    8000204e:	8082                	ret
    80002050:	11043583          	ld	a1,272(s0)
    80002054:	00008617          	auipc	a2,0x8
    80002058:	16460613          	add	a2,a2,356 # 8000a1b8 <softfloat_countLeadingZeros8+0x580>
    8000205c:	8522                	mv	a0,s0
    8000205e:	e6dff0ef          	jal	80001eca <segfault>

0000000080002062 <handle_trap>:
    80002062:	11853783          	ld	a5,280(a0)
    80002066:	0207c363          	bltz	a5,8000208c <handle_trap+0x2a>
    8000206a:	473d                	li	a4,15
    8000206c:	02f74363          	blt	a4,a5,80002092 <handle_trap+0x30>
    80002070:	078e                	sll	a5,a5,0x3
    80002072:	00007717          	auipc	a4,0x7
    80002076:	f4670713          	add	a4,a4,-186 # 80008fb8 <trap_handlers.0>
    8000207a:	97ba                	add	a5,a5,a4
    8000207c:	639c                	ld	a5,0(a5)
    8000207e:	cb91                	beqz	a5,80002092 <handle_trap+0x30>
    80002080:	00015717          	auipc	a4,0x15
    80002084:	00073703          	ld	a4,0(a4) # 80017080 <kva2pa_offset>
    80002088:	97ba                	add	a5,a5,a4
    8000208a:	8782                	jr	a5
    8000208c:	144177f3          	csrrc	a5,sip,2
    80002090:	8082                	ret
    80002092:	1141                	add	sp,sp,-16
    80002094:	00008517          	auipc	a0,0x8
    80002098:	12c50513          	add	a0,a0,300 # 8000a1c0 <softfloat_countLeadingZeros8+0x588>
    8000209c:	e406                	sd	ra,8(sp)
    8000209e:	e75fe0ef          	jal	80000f12 <kassert_fail>

00000000800020a2 <sys_getpid>:
    800020a2:	4501                	li	a0,0
    800020a4:	8082                	ret

00000000800020a6 <sys_getdents>:
    800020a6:	4501                	li	a0,0
    800020a8:	8082                	ret

00000000800020aa <sys_exit>:
    800020aa:	0000b797          	auipc	a5,0xb
    800020ae:	f5678793          	add	a5,a5,-170 # 8000d000 <current>
    800020b2:	77b8                	ld	a4,104(a5)
    800020b4:	1101                	add	sp,sp,-32
    800020b6:	e822                	sd	s0,16(sp)
    800020b8:	ec06                	sd	ra,24(sp)
    800020ba:	e426                	sd	s1,8(sp)
    800020bc:	e04a                	sd	s2,0(sp)
    800020be:	842a                	mv	s0,a0
    800020c0:	e701                	bnez	a4,800020c8 <sys_exit+0x1e>
    800020c2:	8522                	mv	a0,s0
    800020c4:	acdfe0ef          	jal	80000b90 <shutdown>
    800020c8:	c01025f3          	rdtime	a1
    800020cc:	c00024f3          	rdcycle	s1
    800020d0:	8c99                	sub	s1,s1,a4
    800020d2:	c0202973          	rdinstret	s2
    800020d6:	73b8                	ld	a4,96(a5)
    800020d8:	7bbc                	ld	a5,112(a5)
    800020da:	00008517          	auipc	a0,0x8
    800020de:	12e50513          	add	a0,a0,302 # 8000a208 <softfloat_countLeadingZeros8+0x5d0>
    800020e2:	8d99                	sub	a1,a1,a4
    800020e4:	40f90933          	sub	s2,s2,a5
    800020e8:	d3ffe0ef          	jal	80000e26 <printk>
    800020ec:	85a6                	mv	a1,s1
    800020ee:	00008517          	auipc	a0,0x8
    800020f2:	12a50513          	add	a0,a0,298 # 8000a218 <softfloat_countLeadingZeros8+0x5e0>
    800020f6:	d31fe0ef          	jal	80000e26 <printk>
    800020fa:	85ca                	mv	a1,s2
    800020fc:	00008517          	auipc	a0,0x8
    80002100:	12c50513          	add	a0,a0,300 # 8000a228 <softfloat_countLeadingZeros8+0x5f0>
    80002104:	d23fe0ef          	jal	80000e26 <printk>
    80002108:	47a9                	li	a5,10
    8000210a:	06400693          	li	a3,100
    8000210e:	02d486b3          	mul	a3,s1,a3
    80002112:	00008517          	auipc	a0,0x8
    80002116:	12e50513          	add	a0,a0,302 # 8000a240 <softfloat_countLeadingZeros8+0x608>
    8000211a:	02f48633          	mul	a2,s1,a5
    8000211e:	0326d6b3          	divu	a3,a3,s2
    80002122:	03265633          	divu	a2,a2,s2
    80002126:	0324d5b3          	divu	a1,s1,s2
    8000212a:	02f6f6b3          	remu	a3,a3,a5
    8000212e:	2581                	sext.w	a1,a1
    80002130:	02f67633          	remu	a2,a2,a5
    80002134:	cf3fe0ef          	jal	80000e26 <printk>
    80002138:	b769                	j	800020c2 <sys_exit+0x18>

000000008000213a <sys_tgkill>:
    8000213a:	1141                	add	sp,sp,-16
    8000213c:	8532                	mv	a0,a2
    8000213e:	e406                	sd	ra,8(sp)
    80002140:	f6bff0ef          	jal	800020aa <sys_exit>

0000000080002144 <sys_time>:
    80002144:	1101                	add	sp,sp,-32
    80002146:	ec06                	sd	ra,24(sp)
    80002148:	c00027f3          	rdcycle	a5
    8000214c:	3b9ad6b7          	lui	a3,0x3b9ad
    80002150:	a0068693          	add	a3,a3,-1536 # 3b9aca00 <_ftext-0x44653600>
    80002154:	02d7d7b3          	divu	a5,a5,a3
    80002158:	e43e                	sd	a5,8(sp)
    8000215a:	c511                	beqz	a0,80002166 <sys_time+0x22>
    8000215c:	4621                	li	a2,8
    8000215e:	002c                	add	a1,sp,8
    80002160:	b53ff0ef          	jal	80001cb2 <memcpy_to_user>
    80002164:	67a2                	ld	a5,8(sp)
    80002166:	60e2                	ld	ra,24(sp)
    80002168:	853e                	mv	a0,a5
    8000216a:	6105                	add	sp,sp,32
    8000216c:	8082                	ret

000000008000216e <sys_times>:
    8000216e:	7179                	add	sp,sp,-48
    80002170:	f406                	sd	ra,40(sp)
    80002172:	c00027f3          	rdcycle	a5
    80002176:	3e800713          	li	a4,1000
    8000217a:	02e7d7b3          	divu	a5,a5,a4
    8000217e:	858a                	mv	a1,sp
    80002180:	02000613          	li	a2,32
    80002184:	e402                	sd	zero,8(sp)
    80002186:	e802                	sd	zero,16(sp)
    80002188:	ec02                	sd	zero,24(sp)
    8000218a:	e03e                	sd	a5,0(sp)
    8000218c:	b27ff0ef          	jal	80001cb2 <memcpy_to_user>
    80002190:	70a2                	ld	ra,40(sp)
    80002192:	4501                	li	a0,0
    80002194:	6145                	add	sp,sp,48
    80002196:	8082                	ret

0000000080002198 <sys_gettimeofday>:
    80002198:	1101                	add	sp,sp,-32
    8000219a:	ec06                	sd	ra,24(sp)
    8000219c:	c00027f3          	rdcycle	a5
    800021a0:	3b9ad737          	lui	a4,0x3b9ad
    800021a4:	a0070713          	add	a4,a4,-1536 # 3b9aca00 <_ftext-0x44653600>
    800021a8:	02e7f6b3          	remu	a3,a5,a4
    800021ac:	858a                	mv	a1,sp
    800021ae:	4641                	li	a2,16
    800021b0:	02e7d7b3          	divu	a5,a5,a4
    800021b4:	3e800713          	li	a4,1000
    800021b8:	02e6d733          	divu	a4,a3,a4
    800021bc:	e03e                	sd	a5,0(sp)
    800021be:	e43a                	sd	a4,8(sp)
    800021c0:	af3ff0ef          	jal	80001cb2 <memcpy_to_user>
    800021c4:	60e2                	ld	ra,24(sp)
    800021c6:	4501                	li	a0,0
    800021c8:	6105                	add	sp,sp,32
    800021ca:	8082                	ret

00000000800021cc <sys_clock_gettime>:
    800021cc:	1101                	add	sp,sp,-32
    800021ce:	ec06                	sd	ra,24(sp)
    800021d0:	852e                	mv	a0,a1
    800021d2:	c00027f3          	rdcycle	a5
    800021d6:	3b9ad737          	lui	a4,0x3b9ad
    800021da:	a0070713          	add	a4,a4,-1536 # 3b9aca00 <_ftext-0x44653600>
    800021de:	02e7d6b3          	divu	a3,a5,a4
    800021e2:	858a                	mv	a1,sp
    800021e4:	4641                	li	a2,16
    800021e6:	02e7f7b3          	remu	a5,a5,a4
    800021ea:	e036                	sd	a3,0(sp)
    800021ec:	e43e                	sd	a5,8(sp)
    800021ee:	ac5ff0ef          	jal	80001cb2 <memcpy_to_user>
    800021f2:	60e2                	ld	ra,24(sp)
    800021f4:	4501                	li	a0,0
    800021f6:	6105                	add	sp,sp,32
    800021f8:	8082                	ret

00000000800021fa <sys_read>:
    800021fa:	dc010113          	add	sp,sp,-576
    800021fe:	21313c23          	sd	s3,536(sp)
    80002202:	21413823          	sd	s4,528(sp)
    80002206:	22113c23          	sd	ra,568(sp)
    8000220a:	22813823          	sd	s0,560(sp)
    8000220e:	22913423          	sd	s1,552(sp)
    80002212:	23213023          	sd	s2,544(sp)
    80002216:	21513423          	sd	s5,520(sp)
    8000221a:	21613023          	sd	s6,512(sp)
    8000221e:	89ae                	mv	s3,a1
    80002220:	8a32                	mv	s4,a2
    80002222:	e8afe0ef          	jal	800008ac <file_get>
    80002226:	c925                	beqz	a0,80002296 <sys_read+0x9c>
    80002228:	8aaa                	mv	s5,a0
    8000222a:	4901                	li	s2,0
    8000222c:	20000b13          	li	s6,512
    80002230:	a809                	j	80002242 <sys_read+0x48>
    80002232:	a81ff0ef          	jal	80001cb2 <memcpy_to_user>
    80002236:	9922                	add	s2,s2,s0
    80002238:	99a2                	add	s3,s3,s0
    8000223a:	04946c63          	bltu	s0,s1,80002292 <sys_read+0x98>
    8000223e:	052a0a63          	beq	s4,s2,80002292 <sys_read+0x98>
    80002242:	412a04b3          	sub	s1,s4,s2
    80002246:	858a                	mv	a1,sp
    80002248:	8556                	mv	a0,s5
    8000224a:	009b7463          	bgeu	s6,s1,80002252 <sys_read+0x58>
    8000224e:	20000493          	li	s1,512
    80002252:	8626                	mv	a2,s1
    80002254:	811fe0ef          	jal	80000a64 <file_read>
    80002258:	842a                	mv	s0,a0
    8000225a:	8622                	mv	a2,s0
    8000225c:	854e                	mv	a0,s3
    8000225e:	858a                	mv	a1,sp
    80002260:	fc0459e3          	bgez	s0,80002232 <sys_read+0x38>
    80002264:	8556                	mv	a0,s5
    80002266:	cd2fe0ef          	jal	80000738 <file_decref>
    8000226a:	23813083          	ld	ra,568(sp)
    8000226e:	8522                	mv	a0,s0
    80002270:	23013403          	ld	s0,560(sp)
    80002274:	22813483          	ld	s1,552(sp)
    80002278:	22013903          	ld	s2,544(sp)
    8000227c:	21813983          	ld	s3,536(sp)
    80002280:	21013a03          	ld	s4,528(sp)
    80002284:	20813a83          	ld	s5,520(sp)
    80002288:	20013b03          	ld	s6,512(sp)
    8000228c:	24010113          	add	sp,sp,576
    80002290:	8082                	ret
    80002292:	844a                	mv	s0,s2
    80002294:	bfc1                	j	80002264 <sys_read+0x6a>
    80002296:	545d                	li	s0,-9
    80002298:	bfc9                	j	8000226a <sys_read+0x70>

000000008000229a <sys_pread>:
    8000229a:	db010113          	add	sp,sp,-592
    8000229e:	23313423          	sd	s3,552(sp)
    800022a2:	23413023          	sd	s4,544(sp)
    800022a6:	21513c23          	sd	s5,536(sp)
    800022aa:	24113423          	sd	ra,584(sp)
    800022ae:	24813023          	sd	s0,576(sp)
    800022b2:	22913c23          	sd	s1,568(sp)
    800022b6:	23213823          	sd	s2,560(sp)
    800022ba:	21613823          	sd	s6,528(sp)
    800022be:	21713423          	sd	s7,520(sp)
    800022c2:	89ae                	mv	s3,a1
    800022c4:	8ab2                	mv	s5,a2
    800022c6:	8a36                	mv	s4,a3
    800022c8:	de4fe0ef          	jal	800008ac <file_get>
    800022cc:	cd25                	beqz	a0,80002344 <sys_pread+0xaa>
    800022ce:	8b2a                	mv	s6,a0
    800022d0:	4901                	li	s2,0
    800022d2:	20000b93          	li	s7,512
    800022d6:	a811                	j	800022ea <sys_pread+0x50>
    800022d8:	9dbff0ef          	jal	80001cb2 <memcpy_to_user>
    800022dc:	9922                	add	s2,s2,s0
    800022de:	99a2                	add	s3,s3,s0
    800022e0:	9a22                	add	s4,s4,s0
    800022e2:	04946f63          	bltu	s0,s1,80002340 <sys_pread+0xa6>
    800022e6:	052a8d63          	beq	s5,s2,80002340 <sys_pread+0xa6>
    800022ea:	412a84b3          	sub	s1,s5,s2
    800022ee:	86d2                	mv	a3,s4
    800022f0:	858a                	mv	a1,sp
    800022f2:	855a                	mv	a0,s6
    800022f4:	009bf463          	bgeu	s7,s1,800022fc <sys_pread+0x62>
    800022f8:	20000493          	li	s1,512
    800022fc:	8626                	mv	a2,s1
    800022fe:	f86fe0ef          	jal	80000a84 <file_pread>
    80002302:	842a                	mv	s0,a0
    80002304:	8622                	mv	a2,s0
    80002306:	854e                	mv	a0,s3
    80002308:	858a                	mv	a1,sp
    8000230a:	fc0457e3          	bgez	s0,800022d8 <sys_pread+0x3e>
    8000230e:	855a                	mv	a0,s6
    80002310:	c28fe0ef          	jal	80000738 <file_decref>
    80002314:	24813083          	ld	ra,584(sp)
    80002318:	8522                	mv	a0,s0
    8000231a:	24013403          	ld	s0,576(sp)
    8000231e:	23813483          	ld	s1,568(sp)
    80002322:	23013903          	ld	s2,560(sp)
    80002326:	22813983          	ld	s3,552(sp)
    8000232a:	22013a03          	ld	s4,544(sp)
    8000232e:	21813a83          	ld	s5,536(sp)
    80002332:	21013b03          	ld	s6,528(sp)
    80002336:	20813b83          	ld	s7,520(sp)
    8000233a:	25010113          	add	sp,sp,592
    8000233e:	8082                	ret
    80002340:	844a                	mv	s0,s2
    80002342:	b7f1                	j	8000230e <sys_pread+0x74>
    80002344:	545d                	li	s0,-9
    80002346:	b7f9                	j	80002314 <sys_pread+0x7a>

0000000080002348 <sys_write>:
    80002348:	dc010113          	add	sp,sp,-576
    8000234c:	21313c23          	sd	s3,536(sp)
    80002350:	21413823          	sd	s4,528(sp)
    80002354:	22113c23          	sd	ra,568(sp)
    80002358:	22813823          	sd	s0,560(sp)
    8000235c:	22913423          	sd	s1,552(sp)
    80002360:	23213023          	sd	s2,544(sp)
    80002364:	21513423          	sd	s5,520(sp)
    80002368:	21613023          	sd	s6,512(sp)
    8000236c:	89ae                	mv	s3,a1
    8000236e:	8a32                	mv	s4,a2
    80002370:	d3cfe0ef          	jal	800008ac <file_get>
    80002374:	c925                	beqz	a0,800023e4 <sys_write+0x9c>
    80002376:	8aaa                	mv	s5,a0
    80002378:	4901                	li	s2,0
    8000237a:	20000b13          	li	s6,512
    8000237e:	a039                	j	8000238c <sys_write+0x44>
    80002380:	992a                	add	s2,s2,a0
    80002382:	99aa                	add	s3,s3,a0
    80002384:	04956e63          	bltu	a0,s1,800023e0 <sys_write+0x98>
    80002388:	052a0c63          	beq	s4,s2,800023e0 <sys_write+0x98>
    8000238c:	412a04b3          	sub	s1,s4,s2
    80002390:	85ce                	mv	a1,s3
    80002392:	850a                	mv	a0,sp
    80002394:	009b7463          	bgeu	s6,s1,8000239c <sys_write+0x54>
    80002398:	20000493          	li	s1,512
    8000239c:	8626                	mv	a2,s1
    8000239e:	969ff0ef          	jal	80001d06 <memcpy_from_user>
    800023a2:	8626                	mv	a2,s1
    800023a4:	858a                	mv	a1,sp
    800023a6:	8556                	mv	a0,s5
    800023a8:	efcfe0ef          	jal	80000aa4 <file_write>
    800023ac:	842a                	mv	s0,a0
    800023ae:	fc0559e3          	bgez	a0,80002380 <sys_write+0x38>
    800023b2:	8556                	mv	a0,s5
    800023b4:	b84fe0ef          	jal	80000738 <file_decref>
    800023b8:	23813083          	ld	ra,568(sp)
    800023bc:	8522                	mv	a0,s0
    800023be:	23013403          	ld	s0,560(sp)
    800023c2:	22813483          	ld	s1,552(sp)
    800023c6:	22013903          	ld	s2,544(sp)
    800023ca:	21813983          	ld	s3,536(sp)
    800023ce:	21013a03          	ld	s4,528(sp)
    800023d2:	20813a83          	ld	s5,520(sp)
    800023d6:	20013b03          	ld	s6,512(sp)
    800023da:	24010113          	add	sp,sp,576
    800023de:	8082                	ret
    800023e0:	844a                	mv	s0,s2
    800023e2:	bfc1                	j	800023b2 <sys_write+0x6a>
    800023e4:	545d                	li	s0,-9
    800023e6:	bfc9                	j	800023b8 <sys_write+0x70>

00000000800023e8 <sys_writev>:
    800023e8:	7139                	add	sp,sp,-64
    800023ea:	fc06                	sd	ra,56(sp)
    800023ec:	f822                	sd	s0,48(sp)
    800023ee:	f426                	sd	s1,40(sp)
    800023f0:	f04a                	sd	s2,32(sp)
    800023f2:	ec4e                	sd	s3,24(sp)
    800023f4:	04c05263          	blez	a2,80002438 <sys_writev+0x50>
    800023f8:	0612                	sll	a2,a2,0x4
    800023fa:	89aa                	mv	s3,a0
    800023fc:	842e                	mv	s0,a1
    800023fe:	00c58933          	add	s2,a1,a2
    80002402:	4481                	li	s1,0
    80002404:	a021                	j	8000240c <sys_writev+0x24>
    80002406:	94aa                	add	s1,s1,a0
    80002408:	03240063          	beq	s0,s2,80002428 <sys_writev+0x40>
    8000240c:	85a2                	mv	a1,s0
    8000240e:	4641                	li	a2,16
    80002410:	850a                	mv	a0,sp
    80002412:	8f5ff0ef          	jal	80001d06 <memcpy_from_user>
    80002416:	6622                	ld	a2,8(sp)
    80002418:	6582                	ld	a1,0(sp)
    8000241a:	854e                	mv	a0,s3
    8000241c:	0441                	add	s0,s0,16
    8000241e:	f2bff0ef          	jal	80002348 <sys_write>
    80002422:	fe0552e3          	bgez	a0,80002406 <sys_writev+0x1e>
    80002426:	84aa                	mv	s1,a0
    80002428:	70e2                	ld	ra,56(sp)
    8000242a:	7442                	ld	s0,48(sp)
    8000242c:	7902                	ld	s2,32(sp)
    8000242e:	69e2                	ld	s3,24(sp)
    80002430:	8526                	mv	a0,s1
    80002432:	74a2                	ld	s1,40(sp)
    80002434:	6121                	add	sp,sp,64
    80002436:	8082                	ret
    80002438:	4481                	li	s1,0
    8000243a:	b7fd                	j	80002428 <sys_writev+0x40>

000000008000243c <sys_dup>:
    8000243c:	1141                	add	sp,sp,-16
    8000243e:	e406                	sd	ra,8(sp)
    80002440:	e022                	sd	s0,0(sp)
    80002442:	c6afe0ef          	jal	800008ac <file_get>
    80002446:	cd11                	beqz	a0,80002462 <sys_dup+0x26>
    80002448:	842a                	mv	s0,a0
    8000244a:	b22fe0ef          	jal	8000076c <file_dup>
    8000244e:	87aa                	mv	a5,a0
    80002450:	8522                	mv	a0,s0
    80002452:	843e                	mv	s0,a5
    80002454:	ae4fe0ef          	jal	80000738 <file_decref>
    80002458:	60a2                	ld	ra,8(sp)
    8000245a:	8522                	mv	a0,s0
    8000245c:	6402                	ld	s0,0(sp)
    8000245e:	0141                	add	sp,sp,16
    80002460:	8082                	ret
    80002462:	545d                	li	s0,-9
    80002464:	bfd5                	j	80002458 <sys_dup+0x1c>

0000000080002466 <sys_close>:
    80002466:	1141                	add	sp,sp,-16
    80002468:	e406                	sd	ra,8(sp)
    8000246a:	d3cfe0ef          	jal	800009a6 <fd_close>
    8000246e:	00054563          	bltz	a0,80002478 <sys_close+0x12>
    80002472:	60a2                	ld	ra,8(sp)
    80002474:	0141                	add	sp,sp,16
    80002476:	8082                	ret
    80002478:	555d                	li	a0,-9
    8000247a:	bfe5                	j	80002472 <sys_close+0xc>

000000008000247c <sys_fstat>:
    8000247c:	7135                	add	sp,sp,-160
    8000247e:	e526                	sd	s1,136(sp)
    80002480:	ed06                	sd	ra,152(sp)
    80002482:	e922                	sd	s0,144(sp)
    80002484:	e14a                	sd	s2,128(sp)
    80002486:	84ae                	mv	s1,a1
    80002488:	c24fe0ef          	jal	800008ac <file_get>
    8000248c:	c531                	beqz	a0,800024d8 <sys_fstat+0x5c>
    8000248e:	410c                	lw	a1,0(a0)
    80002490:	890a                	mv	s2,sp
    80002492:	00015617          	auipc	a2,0x15
    80002496:	bee63603          	ld	a2,-1042(a2) # 80017080 <kva2pa_offset>
    8000249a:	842a                	mv	s0,a0
    8000249c:	4881                	li	a7,0
    8000249e:	4801                	li	a6,0
    800024a0:	4781                	li	a5,0
    800024a2:	4701                	li	a4,0
    800024a4:	4681                	li	a3,0
    800024a6:	40c90633          	sub	a2,s2,a2
    800024aa:	05000513          	li	a0,80
    800024ae:	e6efe0ef          	jal	80000b1c <frontend_syscall>
    800024b2:	87aa                	mv	a5,a0
    800024b4:	08000613          	li	a2,128
    800024b8:	8526                	mv	a0,s1
    800024ba:	85ca                	mv	a1,s2
    800024bc:	0007849b          	sext.w	s1,a5
    800024c0:	ff2ff0ef          	jal	80001cb2 <memcpy_to_user>
    800024c4:	8522                	mv	a0,s0
    800024c6:	a72fe0ef          	jal	80000738 <file_decref>
    800024ca:	60ea                	ld	ra,152(sp)
    800024cc:	644a                	ld	s0,144(sp)
    800024ce:	690a                	ld	s2,128(sp)
    800024d0:	8526                	mv	a0,s1
    800024d2:	64aa                	ld	s1,136(sp)
    800024d4:	610d                	add	sp,sp,160
    800024d6:	8082                	ret
    800024d8:	54dd                	li	s1,-9
    800024da:	bfc5                	j	800024ca <sys_fstat+0x4e>

00000000800024dc <sys_fcntl>:
    800024dc:	1101                	add	sp,sp,-32
    800024de:	e426                	sd	s1,8(sp)
    800024e0:	e04a                	sd	s2,0(sp)
    800024e2:	ec06                	sd	ra,24(sp)
    800024e4:	e822                	sd	s0,16(sp)
    800024e6:	84ae                	mv	s1,a1
    800024e8:	8932                	mv	s2,a2
    800024ea:	bc2fe0ef          	jal	800008ac <file_get>
    800024ee:	c90d                	beqz	a0,80002520 <sys_fcntl+0x44>
    800024f0:	410c                	lw	a1,0(a0)
    800024f2:	842a                	mv	s0,a0
    800024f4:	4781                	li	a5,0
    800024f6:	4881                	li	a7,0
    800024f8:	4801                	li	a6,0
    800024fa:	4701                	li	a4,0
    800024fc:	86ca                	mv	a3,s2
    800024fe:	8626                	mv	a2,s1
    80002500:	4565                	li	a0,25
    80002502:	e1afe0ef          	jal	80000b1c <frontend_syscall>
    80002506:	87aa                	mv	a5,a0
    80002508:	8522                	mv	a0,s0
    8000250a:	0007841b          	sext.w	s0,a5
    8000250e:	a2afe0ef          	jal	80000738 <file_decref>
    80002512:	60e2                	ld	ra,24(sp)
    80002514:	8522                	mv	a0,s0
    80002516:	6442                	ld	s0,16(sp)
    80002518:	64a2                	ld	s1,8(sp)
    8000251a:	6902                	ld	s2,0(sp)
    8000251c:	6105                	add	sp,sp,32
    8000251e:	8082                	ret
    80002520:	545d                	li	s0,-9
    80002522:	bfc5                	j	80002512 <sys_fcntl+0x36>

0000000080002524 <sys_getcwd>:
    80002524:	de010113          	add	sp,sp,-544
    80002528:	20913423          	sd	s1,520(sp)
    8000252c:	20113c23          	sd	ra,536(sp)
    80002530:	20813823          	sd	s0,528(sp)
    80002534:	21213023          	sd	s2,512(sp)
    80002538:	20000793          	li	a5,512
    8000253c:	84aa                	mv	s1,a0
    8000253e:	20000613          	li	a2,512
    80002542:	00b7e363          	bltu	a5,a1,80002548 <sys_getcwd+0x24>
    80002546:	862e                	mv	a2,a1
    80002548:	00015597          	auipc	a1,0x15
    8000254c:	b385b583          	ld	a1,-1224(a1) # 80017080 <kva2pa_offset>
    80002550:	890a                	mv	s2,sp
    80002552:	4881                	li	a7,0
    80002554:	4801                	li	a6,0
    80002556:	4781                	li	a5,0
    80002558:	4701                	li	a4,0
    8000255a:	4681                	li	a3,0
    8000255c:	40b905b3          	sub	a1,s2,a1
    80002560:	4545                	li	a0,17
    80002562:	dbafe0ef          	jal	80000b1c <frontend_syscall>
    80002566:	842a                	mv	s0,a0
    80002568:	00a05b63          	blez	a0,8000257e <sys_getcwd+0x5a>
    8000256c:	854a                	mv	a0,s2
    8000256e:	12f060ef          	jal	80008e9c <strlen>
    80002572:	00150613          	add	a2,a0,1
    80002576:	85ca                	mv	a1,s2
    80002578:	8526                	mv	a0,s1
    8000257a:	f38ff0ef          	jal	80001cb2 <memcpy_to_user>
    8000257e:	21813083          	ld	ra,536(sp)
    80002582:	8522                	mv	a0,s0
    80002584:	21013403          	ld	s0,528(sp)
    80002588:	20813483          	ld	s1,520(sp)
    8000258c:	20013903          	ld	s2,512(sp)
    80002590:	22010113          	add	sp,sp,544
    80002594:	8082                	ret

0000000080002596 <sys_chdir>:
    80002596:	df010113          	add	sp,sp,-528
    8000259a:	20813023          	sd	s0,512(sp)
    8000259e:	840a                	mv	s0,sp
    800025a0:	85aa                	mv	a1,a0
    800025a2:	20000613          	li	a2,512
    800025a6:	8522                	mv	a0,s0
    800025a8:	20113423          	sd	ra,520(sp)
    800025ac:	faeff0ef          	jal	80001d5a <strcpy_from_user>
    800025b0:	c90d                	beqz	a0,800025e2 <sys_chdir+0x4c>
    800025b2:	00015597          	auipc	a1,0x15
    800025b6:	ace5b583          	ld	a1,-1330(a1) # 80017080 <kva2pa_offset>
    800025ba:	4881                	li	a7,0
    800025bc:	4801                	li	a6,0
    800025be:	4781                	li	a5,0
    800025c0:	4701                	li	a4,0
    800025c2:	4681                	li	a3,0
    800025c4:	4601                	li	a2,0
    800025c6:	40b405b3          	sub	a1,s0,a1
    800025ca:	03100513          	li	a0,49
    800025ce:	d4efe0ef          	jal	80000b1c <frontend_syscall>
    800025d2:	2501                	sext.w	a0,a0
    800025d4:	20813083          	ld	ra,520(sp)
    800025d8:	20013403          	ld	s0,512(sp)
    800025dc:	21010113          	add	sp,sp,528
    800025e0:	8082                	ret
    800025e2:	fa500513          	li	a0,-91
    800025e6:	b7fd                	j	800025d4 <sys_chdir+0x3e>

00000000800025e8 <sys_ftruncate>:
    800025e8:	1101                	add	sp,sp,-32
    800025ea:	e426                	sd	s1,8(sp)
    800025ec:	ec06                	sd	ra,24(sp)
    800025ee:	e822                	sd	s0,16(sp)
    800025f0:	84ae                	mv	s1,a1
    800025f2:	abafe0ef          	jal	800008ac <file_get>
    800025f6:	c105                	beqz	a0,80002616 <sys_ftruncate+0x2e>
    800025f8:	85a6                	mv	a1,s1
    800025fa:	842a                	mv	s0,a0
    800025fc:	ce8fe0ef          	jal	80000ae4 <file_truncate>
    80002600:	87aa                	mv	a5,a0
    80002602:	8522                	mv	a0,s0
    80002604:	843e                	mv	s0,a5
    80002606:	932fe0ef          	jal	80000738 <file_decref>
    8000260a:	60e2                	ld	ra,24(sp)
    8000260c:	8522                	mv	a0,s0
    8000260e:	6442                	ld	s0,16(sp)
    80002610:	64a2                	ld	s1,8(sp)
    80002612:	6105                	add	sp,sp,32
    80002614:	8082                	ret
    80002616:	545d                	li	s0,-9
    80002618:	bfcd                	j	8000260a <sys_ftruncate+0x22>

000000008000261a <sys_dup3>:
    8000261a:	1101                	add	sp,sp,-32
    8000261c:	ec06                	sd	ra,24(sp)
    8000261e:	e822                	sd	s0,16(sp)
    80002620:	e426                	sd	s1,8(sp)
    80002622:	e615                	bnez	a2,8000264e <sys_dup3+0x34>
    80002624:	84ae                	mv	s1,a1
    80002626:	a86fe0ef          	jal	800008ac <file_get>
    8000262a:	842a                	mv	s0,a0
    8000262c:	cd19                	beqz	a0,8000264a <sys_dup3+0x30>
    8000262e:	85a6                	mv	a1,s1
    80002630:	98efe0ef          	jal	800007be <file_dup3>
    80002634:	87aa                	mv	a5,a0
    80002636:	8522                	mv	a0,s0
    80002638:	843e                	mv	s0,a5
    8000263a:	8fefe0ef          	jal	80000738 <file_decref>
    8000263e:	60e2                	ld	ra,24(sp)
    80002640:	8522                	mv	a0,s0
    80002642:	6442                	ld	s0,16(sp)
    80002644:	64a2                	ld	s1,8(sp)
    80002646:	6105                	add	sp,sp,32
    80002648:	8082                	ret
    8000264a:	545d                	li	s0,-9
    8000264c:	bfcd                	j	8000263e <sys_dup3+0x24>
    8000264e:	00008517          	auipc	a0,0x8
    80002652:	c0250513          	add	a0,a0,-1022 # 8000a250 <softfloat_countLeadingZeros8+0x618>
    80002656:	8bdfe0ef          	jal	80000f12 <kassert_fail>

000000008000265a <sys_lseek>:
    8000265a:	1101                	add	sp,sp,-32
    8000265c:	e426                	sd	s1,8(sp)
    8000265e:	e04a                	sd	s2,0(sp)
    80002660:	ec06                	sd	ra,24(sp)
    80002662:	e822                	sd	s0,16(sp)
    80002664:	84ae                	mv	s1,a1
    80002666:	8932                	mv	s2,a2
    80002668:	a44fe0ef          	jal	800008ac <file_get>
    8000266c:	c115                	beqz	a0,80002690 <sys_lseek+0x36>
    8000266e:	864a                	mv	a2,s2
    80002670:	85a6                	mv	a1,s1
    80002672:	842a                	mv	s0,a0
    80002674:	c92fe0ef          	jal	80000b06 <file_lseek>
    80002678:	87aa                	mv	a5,a0
    8000267a:	8522                	mv	a0,s0
    8000267c:	843e                	mv	s0,a5
    8000267e:	8bafe0ef          	jal	80000738 <file_decref>
    80002682:	60e2                	ld	ra,24(sp)
    80002684:	8522                	mv	a0,s0
    80002686:	6442                	ld	s0,16(sp)
    80002688:	64a2                	ld	s1,8(sp)
    8000268a:	6902                	ld	s2,0(sp)
    8000268c:	6105                	add	sp,sp,32
    8000268e:	8082                	ret
    80002690:	545d                	li	s0,-9
    80002692:	bfc5                	j	80002682 <sys_lseek+0x28>

0000000080002694 <sys_lstat>:
    80002694:	d6010113          	add	sp,sp,-672
    80002698:	28913423          	sd	s1,648(sp)
    8000269c:	0104                	add	s1,sp,128
    8000269e:	28813823          	sd	s0,656(sp)
    800026a2:	20000613          	li	a2,512
    800026a6:	842e                	mv	s0,a1
    800026a8:	85aa                	mv	a1,a0
    800026aa:	8526                	mv	a0,s1
    800026ac:	28113c23          	sd	ra,664(sp)
    800026b0:	29213023          	sd	s2,640(sp)
    800026b4:	ea6ff0ef          	jal	80001d5a <strcpy_from_user>
    800026b8:	c939                	beqz	a0,8000270e <sys_lstat+0x7a>
    800026ba:	8526                	mv	a0,s1
    800026bc:	7e0060ef          	jal	80008e9c <strlen>
    800026c0:	00015697          	auipc	a3,0x15
    800026c4:	9c06b683          	ld	a3,-1600(a3) # 80017080 <kva2pa_offset>
    800026c8:	890a                	mv	s2,sp
    800026ca:	00150613          	add	a2,a0,1
    800026ce:	40d485b3          	sub	a1,s1,a3
    800026d2:	4781                	li	a5,0
    800026d4:	4881                	li	a7,0
    800026d6:	4801                	li	a6,0
    800026d8:	4701                	li	a4,0
    800026da:	40d906b3          	sub	a3,s2,a3
    800026de:	40f00513          	li	a0,1039
    800026e2:	c3afe0ef          	jal	80000b1c <frontend_syscall>
    800026e6:	87aa                	mv	a5,a0
    800026e8:	08000613          	li	a2,128
    800026ec:	8522                	mv	a0,s0
    800026ee:	85ca                	mv	a1,s2
    800026f0:	843e                	mv	s0,a5
    800026f2:	70c060ef          	jal	80008dfe <memcpy>
    800026f6:	29813083          	ld	ra,664(sp)
    800026fa:	8522                	mv	a0,s0
    800026fc:	29013403          	ld	s0,656(sp)
    80002700:	28813483          	ld	s1,648(sp)
    80002704:	28013903          	ld	s2,640(sp)
    80002708:	2a010113          	add	sp,sp,672
    8000270c:	8082                	ret
    8000270e:	fa500413          	li	s0,-91
    80002712:	b7d5                	j	800026f6 <sys_lstat+0x62>

0000000080002714 <sys_brk>:
    80002714:	97eff06f          	j	80001892 <do_brk>

0000000080002718 <sys_uname>:
    80002718:	1101                	add	sp,sp,-32
    8000271a:	ec06                	sd	ra,24(sp)
    8000271c:	e822                	sd	s0,16(sp)
    8000271e:	e426                	sd	s1,8(sp)
    80002720:	1000                	add	s0,sp,32
    80002722:	7165                	add	sp,sp,-400
    80002724:	84aa                	mv	s1,a0
    80002726:	18600613          	li	a2,390
    8000272a:	4581                	li	a1,0
    8000272c:	850a                	mv	a0,sp
    8000272e:	72e060ef          	jal	80008e5c <memset>
    80002732:	4635                	li	a2,13
    80002734:	00008597          	auipc	a1,0x8
    80002738:	b2c58593          	add	a1,a1,-1236 # 8000a260 <softfloat_countLeadingZeros8+0x628>
    8000273c:	850a                	mv	a0,sp
    8000273e:	6c0060ef          	jal	80008dfe <memcpy>
    80002742:	00008797          	auipc	a5,0x8
    80002746:	b2e78793          	add	a5,a5,-1234 # 8000a270 <softfloat_countLeadingZeros8+0x638>
    8000274a:	0017c503          	lbu	a0,1(a5)
    8000274e:	0027c583          	lbu	a1,2(a5)
    80002752:	0037c603          	lbu	a2,3(a5)
    80002756:	0007c803          	lbu	a6,0(a5)
    8000275a:	0047c683          	lbu	a3,4(a5)
    8000275e:	0057c703          	lbu	a4,5(a5)
    80002762:	0067c783          	lbu	a5,6(a5)
    80002766:	08a101a3          	sb	a0,131(sp)
    8000276a:	08b10223          	sb	a1,132(sp)
    8000276e:	08c102a3          	sb	a2,133(sp)
    80002772:	8526                	mv	a0,s1
    80002774:	040100a3          	sb	zero,65(sp)
    80002778:	09010123          	sb	a6,130(sp)
    8000277c:	08d10323          	sb	a3,134(sp)
    80002780:	08e103a3          	sb	a4,135(sp)
    80002784:	08f10423          	sb	a5,136(sp)
    80002788:	858a                	mv	a1,sp
    8000278a:	0c0101a3          	sb	zero,195(sp)
    8000278e:	10010223          	sb	zero,260(sp)
    80002792:	140102a3          	sb	zero,325(sp)
    80002796:	18600613          	li	a2,390
    8000279a:	d18ff0ef          	jal	80001cb2 <memcpy_to_user>
    8000279e:	fe040113          	add	sp,s0,-32
    800027a2:	60e2                	ld	ra,24(sp)
    800027a4:	6442                	ld	s0,16(sp)
    800027a6:	64a2                	ld	s1,8(sp)
    800027a8:	4501                	li	a0,0
    800027aa:	6105                	add	sp,sp,32
    800027ac:	8082                	ret

00000000800027ae <sys_mmap>:
    800027ae:	fb3fe06f          	j	80001760 <do_mmap>

00000000800027b2 <sys_munmap>:
    800027b2:	f47fe06f          	j	800016f8 <do_munmap>

00000000800027b6 <sys_mremap>:
    800027b6:	912ff06f          	j	800018c8 <do_mremap>

00000000800027ba <sys_mprotect>:
    800027ba:	914ff06f          	j	800018ce <do_mprotect>

00000000800027be <sys_rt_sigaction>:
    800027be:	ce19                	beqz	a2,800027dc <sys_rt_sigaction+0x1e>
    800027c0:	7179                	add	sp,sp,-48
    800027c2:	8532                	mv	a0,a2
    800027c4:	002c                	add	a1,sp,8
    800027c6:	4661                	li	a2,24
    800027c8:	f406                	sd	ra,40(sp)
    800027ca:	e402                	sd	zero,8(sp)
    800027cc:	e802                	sd	zero,16(sp)
    800027ce:	ec02                	sd	zero,24(sp)
    800027d0:	ce2ff0ef          	jal	80001cb2 <memcpy_to_user>
    800027d4:	70a2                	ld	ra,40(sp)
    800027d6:	4501                	li	a0,0
    800027d8:	6145                	add	sp,sp,48
    800027da:	8082                	ret
    800027dc:	4501                	li	a0,0
    800027de:	8082                	ret

00000000800027e0 <sys_stub_success>:
    800027e0:	4501                	li	a0,0
    800027e2:	8082                	ret

00000000800027e4 <sys_getuid>:
    800027e4:	4501                	li	a0,0
    800027e6:	8082                	ret

00000000800027e8 <sys_openat>:
    800027e8:	dd010113          	add	sp,sp,-560
    800027ec:	20913c23          	sd	s1,536(sp)
    800027f0:	21213823          	sd	s2,528(sp)
    800027f4:	21313423          	sd	s3,520(sp)
    800027f8:	22113423          	sd	ra,552(sp)
    800027fc:	22813023          	sd	s0,544(sp)
    80002800:	f9c00793          	li	a5,-100
    80002804:	84ae                	mv	s1,a1
    80002806:	8932                	mv	s2,a2
    80002808:	89b6                	mv	s3,a3
    8000280a:	06f50a63          	beq	a0,a5,8000287e <sys_openat+0x96>
    8000280e:	89efe0ef          	jal	800008ac <file_get>
    80002812:	c525                	beqz	a0,8000287a <sys_openat+0x92>
    80002814:	4100                	lw	s0,0(a0)
    80002816:	f23fd0ef          	jal	80000738 <file_decref>
    8000281a:	57fd                	li	a5,-1
    8000281c:	04f40f63          	beq	s0,a5,8000287a <sys_openat+0x92>
    80002820:	85a6                	mv	a1,s1
    80002822:	20000613          	li	a2,512
    80002826:	850a                	mv	a0,sp
    80002828:	d32ff0ef          	jal	80001d5a <strcpy_from_user>
    8000282c:	fa500493          	li	s1,-91
    80002830:	ed19                	bnez	a0,8000284e <sys_openat+0x66>
    80002832:	22813083          	ld	ra,552(sp)
    80002836:	22013403          	ld	s0,544(sp)
    8000283a:	21013903          	ld	s2,528(sp)
    8000283e:	20813983          	ld	s3,520(sp)
    80002842:	8526                	mv	a0,s1
    80002844:	21813483          	ld	s1,536(sp)
    80002848:	23010113          	add	sp,sp,560
    8000284c:	8082                	ret
    8000284e:	8522                	mv	a0,s0
    80002850:	86ce                	mv	a3,s3
    80002852:	864a                	mv	a2,s2
    80002854:	858a                	mv	a1,sp
    80002856:	89efe0ef          	jal	800008f4 <file_openat>
    8000285a:	77fd                	lui	a5,0xfffff
    8000285c:	842a                	mv	s0,a0
    8000285e:	0005049b          	sext.w	s1,a0
    80002862:	fcf578e3          	bgeu	a0,a5,80002832 <sys_openat+0x4a>
    80002866:	f07fd0ef          	jal	8000076c <file_dup>
    8000286a:	84aa                	mv	s1,a0
    8000286c:	8522                	mv	a0,s0
    8000286e:	ecbfd0ef          	jal	80000738 <file_decref>
    80002872:	fc04d0e3          	bgez	s1,80002832 <sys_openat+0x4a>
    80002876:	54d1                	li	s1,-12
    80002878:	bf6d                	j	80002832 <sys_openat+0x4a>
    8000287a:	54dd                	li	s1,-9
    8000287c:	bf5d                	j	80002832 <sys_openat+0x4a>
    8000287e:	842a                	mv	s0,a0
    80002880:	b745                	j	80002820 <sys_openat+0x38>

0000000080002882 <sys_open>:
    80002882:	86b2                	mv	a3,a2
    80002884:	862e                	mv	a2,a1
    80002886:	85aa                	mv	a1,a0
    80002888:	f9c00513          	li	a0,-100
    8000288c:	bfb1                	j	800027e8 <sys_openat>

000000008000288e <sys_unlinkat>:
    8000288e:	dd010113          	add	sp,sp,-560
    80002892:	20913c23          	sd	s1,536(sp)
    80002896:	21213823          	sd	s2,528(sp)
    8000289a:	22113423          	sd	ra,552(sp)
    8000289e:	22813023          	sd	s0,544(sp)
    800028a2:	21313423          	sd	s3,520(sp)
    800028a6:	f9c00793          	li	a5,-100
    800028aa:	84ae                	mv	s1,a1
    800028ac:	8932                	mv	s2,a2
    800028ae:	08f50663          	beq	a0,a5,8000293a <sys_unlinkat+0xac>
    800028b2:	ffbfd0ef          	jal	800008ac <file_get>
    800028b6:	c141                	beqz	a0,80002936 <sys_unlinkat+0xa8>
    800028b8:	4100                	lw	s0,0(a0)
    800028ba:	e7ffd0ef          	jal	80000738 <file_decref>
    800028be:	57fd                	li	a5,-1
    800028c0:	06f40b63          	beq	s0,a5,80002936 <sys_unlinkat+0xa8>
    800028c4:	898a                	mv	s3,sp
    800028c6:	20000613          	li	a2,512
    800028ca:	85a6                	mv	a1,s1
    800028cc:	854e                	mv	a0,s3
    800028ce:	c8cff0ef          	jal	80001d5a <strcpy_from_user>
    800028d2:	87aa                	mv	a5,a0
    800028d4:	fa500513          	li	a0,-91
    800028d8:	ef91                	bnez	a5,800028f4 <sys_unlinkat+0x66>
    800028da:	22813083          	ld	ra,552(sp)
    800028de:	22013403          	ld	s0,544(sp)
    800028e2:	21813483          	ld	s1,536(sp)
    800028e6:	21013903          	ld	s2,528(sp)
    800028ea:	20813983          	ld	s3,520(sp)
    800028ee:	23010113          	add	sp,sp,560
    800028f2:	8082                	ret
    800028f4:	854e                	mv	a0,s3
    800028f6:	5a6060ef          	jal	80008e9c <strlen>
    800028fa:	00014617          	auipc	a2,0x14
    800028fe:	78663603          	ld	a2,1926(a2) # 80017080 <kva2pa_offset>
    80002902:	874a                	mv	a4,s2
    80002904:	00150693          	add	a3,a0,1
    80002908:	40c98633          	sub	a2,s3,a2
    8000290c:	85a2                	mv	a1,s0
    8000290e:	4881                	li	a7,0
    80002910:	4801                	li	a6,0
    80002912:	4781                	li	a5,0
    80002914:	02300513          	li	a0,35
    80002918:	a04fe0ef          	jal	80000b1c <frontend_syscall>
    8000291c:	22813083          	ld	ra,552(sp)
    80002920:	22013403          	ld	s0,544(sp)
    80002924:	21813483          	ld	s1,536(sp)
    80002928:	21013903          	ld	s2,528(sp)
    8000292c:	20813983          	ld	s3,520(sp)
    80002930:	23010113          	add	sp,sp,560
    80002934:	8082                	ret
    80002936:	555d                	li	a0,-9
    80002938:	b74d                	j	800028da <sys_unlinkat+0x4c>
    8000293a:	842a                	mv	s0,a0
    8000293c:	b761                	j	800028c4 <sys_unlinkat+0x36>

000000008000293e <sys_unlink>:
    8000293e:	85aa                	mv	a1,a0
    80002940:	4601                	li	a2,0
    80002942:	f9c00513          	li	a0,-100
    80002946:	b7a1                	j	8000288e <sys_unlinkat>

0000000080002948 <sys_mkdirat>:
    80002948:	dd010113          	add	sp,sp,-560
    8000294c:	20913c23          	sd	s1,536(sp)
    80002950:	21213823          	sd	s2,528(sp)
    80002954:	22113423          	sd	ra,552(sp)
    80002958:	22813023          	sd	s0,544(sp)
    8000295c:	21313423          	sd	s3,520(sp)
    80002960:	f9c00793          	li	a5,-100
    80002964:	84ae                	mv	s1,a1
    80002966:	8932                	mv	s2,a2
    80002968:	08f50663          	beq	a0,a5,800029f4 <sys_mkdirat+0xac>
    8000296c:	f41fd0ef          	jal	800008ac <file_get>
    80002970:	c141                	beqz	a0,800029f0 <sys_mkdirat+0xa8>
    80002972:	4100                	lw	s0,0(a0)
    80002974:	dc5fd0ef          	jal	80000738 <file_decref>
    80002978:	57fd                	li	a5,-1
    8000297a:	06f40b63          	beq	s0,a5,800029f0 <sys_mkdirat+0xa8>
    8000297e:	898a                	mv	s3,sp
    80002980:	20000613          	li	a2,512
    80002984:	85a6                	mv	a1,s1
    80002986:	854e                	mv	a0,s3
    80002988:	bd2ff0ef          	jal	80001d5a <strcpy_from_user>
    8000298c:	87aa                	mv	a5,a0
    8000298e:	fa500513          	li	a0,-91
    80002992:	ef91                	bnez	a5,800029ae <sys_mkdirat+0x66>
    80002994:	22813083          	ld	ra,552(sp)
    80002998:	22013403          	ld	s0,544(sp)
    8000299c:	21813483          	ld	s1,536(sp)
    800029a0:	21013903          	ld	s2,528(sp)
    800029a4:	20813983          	ld	s3,520(sp)
    800029a8:	23010113          	add	sp,sp,560
    800029ac:	8082                	ret
    800029ae:	854e                	mv	a0,s3
    800029b0:	4ec060ef          	jal	80008e9c <strlen>
    800029b4:	00014617          	auipc	a2,0x14
    800029b8:	6cc63603          	ld	a2,1740(a2) # 80017080 <kva2pa_offset>
    800029bc:	874a                	mv	a4,s2
    800029be:	00150693          	add	a3,a0,1
    800029c2:	40c98633          	sub	a2,s3,a2
    800029c6:	85a2                	mv	a1,s0
    800029c8:	4881                	li	a7,0
    800029ca:	4801                	li	a6,0
    800029cc:	4781                	li	a5,0
    800029ce:	02200513          	li	a0,34
    800029d2:	94afe0ef          	jal	80000b1c <frontend_syscall>
    800029d6:	22813083          	ld	ra,552(sp)
    800029da:	22013403          	ld	s0,544(sp)
    800029de:	21813483          	ld	s1,536(sp)
    800029e2:	21013903          	ld	s2,528(sp)
    800029e6:	20813983          	ld	s3,520(sp)
    800029ea:	23010113          	add	sp,sp,560
    800029ee:	8082                	ret
    800029f0:	555d                	li	a0,-9
    800029f2:	b74d                	j	80002994 <sys_mkdirat+0x4c>
    800029f4:	842a                	mv	s0,a0
    800029f6:	b761                	j	8000297e <sys_mkdirat+0x36>

00000000800029f8 <sys_mkdir>:
    800029f8:	862e                	mv	a2,a1
    800029fa:	85aa                	mv	a1,a0
    800029fc:	f9c00513          	li	a0,-100
    80002a00:	b7a1                	j	80002948 <sys_mkdirat>

0000000080002a02 <sys_faccessat>:
    80002a02:	dd010113          	add	sp,sp,-560
    80002a06:	20913c23          	sd	s1,536(sp)
    80002a0a:	21213823          	sd	s2,528(sp)
    80002a0e:	22113423          	sd	ra,552(sp)
    80002a12:	22813023          	sd	s0,544(sp)
    80002a16:	21313423          	sd	s3,520(sp)
    80002a1a:	f9c00793          	li	a5,-100
    80002a1e:	84ae                	mv	s1,a1
    80002a20:	8932                	mv	s2,a2
    80002a22:	08f50663          	beq	a0,a5,80002aae <sys_faccessat+0xac>
    80002a26:	e87fd0ef          	jal	800008ac <file_get>
    80002a2a:	c141                	beqz	a0,80002aaa <sys_faccessat+0xa8>
    80002a2c:	4100                	lw	s0,0(a0)
    80002a2e:	d0bfd0ef          	jal	80000738 <file_decref>
    80002a32:	57fd                	li	a5,-1
    80002a34:	06f40b63          	beq	s0,a5,80002aaa <sys_faccessat+0xa8>
    80002a38:	898a                	mv	s3,sp
    80002a3a:	20000613          	li	a2,512
    80002a3e:	85a6                	mv	a1,s1
    80002a40:	854e                	mv	a0,s3
    80002a42:	b18ff0ef          	jal	80001d5a <strcpy_from_user>
    80002a46:	87aa                	mv	a5,a0
    80002a48:	fa500513          	li	a0,-91
    80002a4c:	ef91                	bnez	a5,80002a68 <sys_faccessat+0x66>
    80002a4e:	22813083          	ld	ra,552(sp)
    80002a52:	22013403          	ld	s0,544(sp)
    80002a56:	21813483          	ld	s1,536(sp)
    80002a5a:	21013903          	ld	s2,528(sp)
    80002a5e:	20813983          	ld	s3,520(sp)
    80002a62:	23010113          	add	sp,sp,560
    80002a66:	8082                	ret
    80002a68:	854e                	mv	a0,s3
    80002a6a:	432060ef          	jal	80008e9c <strlen>
    80002a6e:	00014617          	auipc	a2,0x14
    80002a72:	61263603          	ld	a2,1554(a2) # 80017080 <kva2pa_offset>
    80002a76:	874a                	mv	a4,s2
    80002a78:	00150693          	add	a3,a0,1
    80002a7c:	40c98633          	sub	a2,s3,a2
    80002a80:	85a2                	mv	a1,s0
    80002a82:	4881                	li	a7,0
    80002a84:	4801                	li	a6,0
    80002a86:	4781                	li	a5,0
    80002a88:	03000513          	li	a0,48
    80002a8c:	890fe0ef          	jal	80000b1c <frontend_syscall>
    80002a90:	22813083          	ld	ra,552(sp)
    80002a94:	22013403          	ld	s0,544(sp)
    80002a98:	21813483          	ld	s1,536(sp)
    80002a9c:	21013903          	ld	s2,528(sp)
    80002aa0:	20813983          	ld	s3,520(sp)
    80002aa4:	23010113          	add	sp,sp,560
    80002aa8:	8082                	ret
    80002aaa:	555d                	li	a0,-9
    80002aac:	b74d                	j	80002a4e <sys_faccessat+0x4c>
    80002aae:	842a                	mv	s0,a0
    80002ab0:	b761                	j	80002a38 <sys_faccessat+0x36>

0000000080002ab2 <sys_access>:
    80002ab2:	862e                	mv	a2,a1
    80002ab4:	85aa                	mv	a1,a0
    80002ab6:	f9c00513          	li	a0,-100
    80002aba:	b7a1                	j	80002a02 <sys_faccessat>

0000000080002abc <sys_fstatat>:
    80002abc:	d4010113          	add	sp,sp,-704
    80002ac0:	2a913423          	sd	s1,680(sp)
    80002ac4:	29313c23          	sd	s3,664(sp)
    80002ac8:	29413823          	sd	s4,656(sp)
    80002acc:	2a113c23          	sd	ra,696(sp)
    80002ad0:	2a813823          	sd	s0,688(sp)
    80002ad4:	2b213023          	sd	s2,672(sp)
    80002ad8:	29513423          	sd	s5,648(sp)
    80002adc:	f9c00713          	li	a4,-100
    80002ae0:	84ae                	mv	s1,a1
    80002ae2:	8a32                	mv	s4,a2
    80002ae4:	89b6                	mv	s3,a3
    80002ae6:	08e50863          	beq	a0,a4,80002b76 <sys_fstatat+0xba>
    80002aea:	dc3fd0ef          	jal	800008ac <file_get>
    80002aee:	c151                	beqz	a0,80002b72 <sys_fstatat+0xb6>
    80002af0:	4100                	lw	s0,0(a0)
    80002af2:	c47fd0ef          	jal	80000738 <file_decref>
    80002af6:	57fd                	li	a5,-1
    80002af8:	06f40d63          	beq	s0,a5,80002b72 <sys_fstatat+0xb6>
    80002afc:	08010913          	add	s2,sp,128
    80002b00:	85a6                	mv	a1,s1
    80002b02:	20000613          	li	a2,512
    80002b06:	854a                	mv	a0,s2
    80002b08:	a52ff0ef          	jal	80001d5a <strcpy_from_user>
    80002b0c:	fa500493          	li	s1,-91
    80002b10:	e11d                	bnez	a0,80002b36 <sys_fstatat+0x7a>
    80002b12:	2b813083          	ld	ra,696(sp)
    80002b16:	2b013403          	ld	s0,688(sp)
    80002b1a:	2a013903          	ld	s2,672(sp)
    80002b1e:	29813983          	ld	s3,664(sp)
    80002b22:	29013a03          	ld	s4,656(sp)
    80002b26:	28813a83          	ld	s5,648(sp)
    80002b2a:	8526                	mv	a0,s1
    80002b2c:	2a813483          	ld	s1,680(sp)
    80002b30:	2c010113          	add	sp,sp,704
    80002b34:	8082                	ret
    80002b36:	854a                	mv	a0,s2
    80002b38:	364060ef          	jal	80008e9c <strlen>
    80002b3c:	00014717          	auipc	a4,0x14
    80002b40:	54473703          	ld	a4,1348(a4) # 80017080 <kva2pa_offset>
    80002b44:	8a8a                	mv	s5,sp
    80002b46:	40e90633          	sub	a2,s2,a4
    80002b4a:	85a2                	mv	a1,s0
    80002b4c:	00150693          	add	a3,a0,1
    80002b50:	4881                	li	a7,0
    80002b52:	4801                	li	a6,0
    80002b54:	87ce                	mv	a5,s3
    80002b56:	40ea8733          	sub	a4,s5,a4
    80002b5a:	04f00513          	li	a0,79
    80002b5e:	fbffd0ef          	jal	80000b1c <frontend_syscall>
    80002b62:	84aa                	mv	s1,a0
    80002b64:	08000613          	li	a2,128
    80002b68:	85d6                	mv	a1,s5
    80002b6a:	8552                	mv	a0,s4
    80002b6c:	946ff0ef          	jal	80001cb2 <memcpy_to_user>
    80002b70:	b74d                	j	80002b12 <sys_fstatat+0x56>
    80002b72:	54dd                	li	s1,-9
    80002b74:	bf79                	j	80002b12 <sys_fstatat+0x56>
    80002b76:	842a                	mv	s0,a0
    80002b78:	b751                	j	80002afc <sys_fstatat+0x40>

0000000080002b7a <sys_stat>:
    80002b7a:	862e                	mv	a2,a1
    80002b7c:	4681                	li	a3,0
    80002b7e:	85aa                	mv	a1,a0
    80002b80:	f9c00513          	li	a0,-100
    80002b84:	bf25                	j	80002abc <sys_fstatat>

0000000080002b86 <sys_statx>:
    80002b86:	cc010113          	add	sp,sp,-832
    80002b8a:	32913423          	sd	s1,808(sp)
    80002b8e:	31313c23          	sd	s3,792(sp)
    80002b92:	31413823          	sd	s4,784(sp)
    80002b96:	31513423          	sd	s5,776(sp)
    80002b9a:	32113c23          	sd	ra,824(sp)
    80002b9e:	32813823          	sd	s0,816(sp)
    80002ba2:	33213023          	sd	s2,800(sp)
    80002ba6:	31613023          	sd	s6,768(sp)
    80002baa:	f9c00813          	li	a6,-100
    80002bae:	84ae                	mv	s1,a1
    80002bb0:	8ab2                	mv	s5,a2
    80002bb2:	8a36                	mv	s4,a3
    80002bb4:	89ba                	mv	s3,a4
    80002bb6:	09050c63          	beq	a0,a6,80002c4e <sys_statx+0xc8>
    80002bba:	cf3fd0ef          	jal	800008ac <file_get>
    80002bbe:	c551                	beqz	a0,80002c4a <sys_statx+0xc4>
    80002bc0:	4100                	lw	s0,0(a0)
    80002bc2:	b77fd0ef          	jal	80000738 <file_decref>
    80002bc6:	57fd                	li	a5,-1
    80002bc8:	08f40163          	beq	s0,a5,80002c4a <sys_statx+0xc4>
    80002bcc:	10010913          	add	s2,sp,256
    80002bd0:	85a6                	mv	a1,s1
    80002bd2:	20000613          	li	a2,512
    80002bd6:	854a                	mv	a0,s2
    80002bd8:	982ff0ef          	jal	80001d5a <strcpy_from_user>
    80002bdc:	fa500493          	li	s1,-91
    80002be0:	e50d                	bnez	a0,80002c0a <sys_statx+0x84>
    80002be2:	33813083          	ld	ra,824(sp)
    80002be6:	33013403          	ld	s0,816(sp)
    80002bea:	32013903          	ld	s2,800(sp)
    80002bee:	31813983          	ld	s3,792(sp)
    80002bf2:	31013a03          	ld	s4,784(sp)
    80002bf6:	30813a83          	ld	s5,776(sp)
    80002bfa:	30013b03          	ld	s6,768(sp)
    80002bfe:	8526                	mv	a0,s1
    80002c00:	32813483          	ld	s1,808(sp)
    80002c04:	34010113          	add	sp,sp,832
    80002c08:	8082                	ret
    80002c0a:	854a                	mv	a0,s2
    80002c0c:	290060ef          	jal	80008e9c <strlen>
    80002c10:	00014817          	auipc	a6,0x14
    80002c14:	47083803          	ld	a6,1136(a6) # 80017080 <kva2pa_offset>
    80002c18:	8b0a                	mv	s6,sp
    80002c1a:	020a1793          	sll	a5,s4,0x20
    80002c1e:	41090633          	sub	a2,s2,a6
    80002c22:	85a2                	mv	a1,s0
    80002c24:	00150693          	add	a3,a0,1
    80002c28:	4881                	li	a7,0
    80002c2a:	410b0833          	sub	a6,s6,a6
    80002c2e:	9381                	srl	a5,a5,0x20
    80002c30:	8756                	mv	a4,s5
    80002c32:	12300513          	li	a0,291
    80002c36:	ee7fd0ef          	jal	80000b1c <frontend_syscall>
    80002c3a:	84aa                	mv	s1,a0
    80002c3c:	10000613          	li	a2,256
    80002c40:	85da                	mv	a1,s6
    80002c42:	854e                	mv	a0,s3
    80002c44:	86eff0ef          	jal	80001cb2 <memcpy_to_user>
    80002c48:	bf69                	j	80002be2 <sys_statx+0x5c>
    80002c4a:	54dd                	li	s1,-9
    80002c4c:	bf59                	j	80002be2 <sys_statx+0x5c>
    80002c4e:	842a                	mv	s0,a0
    80002c50:	bfb5                	j	80002bcc <sys_statx+0x46>

0000000080002c52 <sys_renameat>:
    80002c52:	bd010113          	add	sp,sp,-1072
    80002c56:	42813023          	sd	s0,1056(sp)
    80002c5a:	40913c23          	sd	s1,1048(sp)
    80002c5e:	41313423          	sd	s3,1032(sp)
    80002c62:	41413023          	sd	s4,1024(sp)
    80002c66:	42113423          	sd	ra,1064(sp)
    80002c6a:	41213823          	sd	s2,1040(sp)
    80002c6e:	f9c00493          	li	s1,-100
    80002c72:	8a2e                	mv	s4,a1
    80002c74:	8432                	mv	s0,a2
    80002c76:	89b6                	mv	s3,a3
    80002c78:	0c950963          	beq	a0,s1,80002d4a <sys_renameat+0xf8>
    80002c7c:	c31fd0ef          	jal	800008ac <file_get>
    80002c80:	c161                	beqz	a0,80002d40 <sys_renameat+0xee>
    80002c82:	00052903          	lw	s2,0(a0)
    80002c86:	ab3fd0ef          	jal	80000738 <file_decref>
    80002c8a:	0c940c63          	beq	s0,s1,80002d62 <sys_renameat+0x110>
    80002c8e:	8522                	mv	a0,s0
    80002c90:	c1dfd0ef          	jal	800008ac <file_get>
    80002c94:	c94d                	beqz	a0,80002d46 <sys_renameat+0xf4>
    80002c96:	4100                	lw	s0,0(a0)
    80002c98:	aa1fd0ef          	jal	80000738 <file_decref>
    80002c9c:	57fd                	li	a5,-1
    80002c9e:	0af90463          	beq	s2,a5,80002d46 <sys_renameat+0xf4>
    80002ca2:	57fd                	li	a5,-1
    80002ca4:	0af40163          	beq	s0,a5,80002d46 <sys_renameat+0xf4>
    80002ca8:	848a                	mv	s1,sp
    80002caa:	20000613          	li	a2,512
    80002cae:	85d2                	mv	a1,s4
    80002cb0:	8526                	mv	a0,s1
    80002cb2:	8a8ff0ef          	jal	80001d5a <strcpy_from_user>
    80002cb6:	e115                	bnez	a0,80002cda <sys_renameat+0x88>
    80002cb8:	fa500513          	li	a0,-91
    80002cbc:	42813083          	ld	ra,1064(sp)
    80002cc0:	42013403          	ld	s0,1056(sp)
    80002cc4:	41813483          	ld	s1,1048(sp)
    80002cc8:	41013903          	ld	s2,1040(sp)
    80002ccc:	40813983          	ld	s3,1032(sp)
    80002cd0:	40013a03          	ld	s4,1024(sp)
    80002cd4:	43010113          	add	sp,sp,1072
    80002cd8:	8082                	ret
    80002cda:	20010a13          	add	s4,sp,512
    80002cde:	20000613          	li	a2,512
    80002ce2:	85ce                	mv	a1,s3
    80002ce4:	8552                	mv	a0,s4
    80002ce6:	874ff0ef          	jal	80001d5a <strcpy_from_user>
    80002cea:	d579                	beqz	a0,80002cb8 <sys_renameat+0x66>
    80002cec:	8526                	mv	a0,s1
    80002cee:	1ae060ef          	jal	80008e9c <strlen>
    80002cf2:	89aa                	mv	s3,a0
    80002cf4:	8552                	mv	a0,s4
    80002cf6:	1a6060ef          	jal	80008e9c <strlen>
    80002cfa:	00014617          	auipc	a2,0x14
    80002cfe:	38663603          	ld	a2,902(a2) # 80017080 <kva2pa_offset>
    80002d02:	40ca07b3          	sub	a5,s4,a2
    80002d06:	00150813          	add	a6,a0,1
    80002d0a:	8722                	mv	a4,s0
    80002d0c:	00198693          	add	a3,s3,1
    80002d10:	40c48633          	sub	a2,s1,a2
    80002d14:	85ca                	mv	a1,s2
    80002d16:	4881                	li	a7,0
    80002d18:	02600513          	li	a0,38
    80002d1c:	e01fd0ef          	jal	80000b1c <frontend_syscall>
    80002d20:	42813083          	ld	ra,1064(sp)
    80002d24:	42013403          	ld	s0,1056(sp)
    80002d28:	41813483          	ld	s1,1048(sp)
    80002d2c:	41013903          	ld	s2,1040(sp)
    80002d30:	40813983          	ld	s3,1032(sp)
    80002d34:	40013a03          	ld	s4,1024(sp)
    80002d38:	2501                	sext.w	a0,a0
    80002d3a:	43010113          	add	sp,sp,1072
    80002d3e:	8082                	ret
    80002d40:	597d                	li	s2,-1
    80002d42:	f49416e3          	bne	s0,s1,80002c8e <sys_renameat+0x3c>
    80002d46:	555d                	li	a0,-9
    80002d48:	bf95                	j	80002cbc <sys_renameat+0x6a>
    80002d4a:	892a                	mv	s2,a0
    80002d4c:	f4a60ee3          	beq	a2,a0,80002ca8 <sys_renameat+0x56>
    80002d50:	8532                	mv	a0,a2
    80002d52:	b5bfd0ef          	jal	800008ac <file_get>
    80002d56:	87aa                	mv	a5,a0
    80002d58:	d57d                	beqz	a0,80002d46 <sys_renameat+0xf4>
    80002d5a:	4380                	lw	s0,0(a5)
    80002d5c:	9ddfd0ef          	jal	80000738 <file_decref>
    80002d60:	b789                	j	80002ca2 <sys_renameat+0x50>
    80002d62:	57fd                	li	a5,-1
    80002d64:	f4f912e3          	bne	s2,a5,80002ca8 <sys_renameat+0x56>
    80002d68:	555d                	li	a0,-9
    80002d6a:	bf89                	j	80002cbc <sys_renameat+0x6a>

0000000080002d6c <sys_linkat>:
    80002d6c:	bc010113          	add	sp,sp,-1088
    80002d70:	42813823          	sd	s0,1072(sp)
    80002d74:	42913423          	sd	s1,1064(sp)
    80002d78:	43213023          	sd	s2,1056(sp)
    80002d7c:	41313c23          	sd	s3,1048(sp)
    80002d80:	41513423          	sd	s5,1032(sp)
    80002d84:	42113c23          	sd	ra,1080(sp)
    80002d88:	41413823          	sd	s4,1040(sp)
    80002d8c:	f9c00493          	li	s1,-100
    80002d90:	89ae                	mv	s3,a1
    80002d92:	8432                	mv	s0,a2
    80002d94:	8ab6                	mv	s5,a3
    80002d96:	893a                	mv	s2,a4
    80002d98:	0a950c63          	beq	a0,s1,80002e50 <sys_linkat+0xe4>
    80002d9c:	b11fd0ef          	jal	800008ac <file_get>
    80002da0:	c15d                	beqz	a0,80002e46 <sys_linkat+0xda>
    80002da2:	00052a03          	lw	s4,0(a0)
    80002da6:	993fd0ef          	jal	80000738 <file_decref>
    80002daa:	0a940f63          	beq	s0,s1,80002e68 <sys_linkat+0xfc>
    80002dae:	8522                	mv	a0,s0
    80002db0:	afdfd0ef          	jal	800008ac <file_get>
    80002db4:	cd41                	beqz	a0,80002e4c <sys_linkat+0xe0>
    80002db6:	4100                	lw	s0,0(a0)
    80002db8:	981fd0ef          	jal	80000738 <file_decref>
    80002dbc:	57fd                	li	a5,-1
    80002dbe:	08fa0763          	beq	s4,a5,80002e4c <sys_linkat+0xe0>
    80002dc2:	57fd                	li	a5,-1
    80002dc4:	08f40463          	beq	s0,a5,80002e4c <sys_linkat+0xe0>
    80002dc8:	848a                	mv	s1,sp
    80002dca:	20000613          	li	a2,512
    80002dce:	85ce                	mv	a1,s3
    80002dd0:	8526                	mv	a0,s1
    80002dd2:	f89fe0ef          	jal	80001d5a <strcpy_from_user>
    80002dd6:	e505                	bnez	a0,80002dfe <sys_linkat+0x92>
    80002dd8:	fa500513          	li	a0,-91
    80002ddc:	43813083          	ld	ra,1080(sp)
    80002de0:	43013403          	ld	s0,1072(sp)
    80002de4:	42813483          	ld	s1,1064(sp)
    80002de8:	42013903          	ld	s2,1056(sp)
    80002dec:	41813983          	ld	s3,1048(sp)
    80002df0:	41013a03          	ld	s4,1040(sp)
    80002df4:	40813a83          	ld	s5,1032(sp)
    80002df8:	44010113          	add	sp,sp,1088
    80002dfc:	8082                	ret
    80002dfe:	20010993          	add	s3,sp,512
    80002e02:	20000613          	li	a2,512
    80002e06:	85d6                	mv	a1,s5
    80002e08:	854e                	mv	a0,s3
    80002e0a:	f51fe0ef          	jal	80001d5a <strcpy_from_user>
    80002e0e:	d569                	beqz	a0,80002dd8 <sys_linkat+0x6c>
    80002e10:	8526                	mv	a0,s1
    80002e12:	08a060ef          	jal	80008e9c <strlen>
    80002e16:	8aaa                	mv	s5,a0
    80002e18:	854e                	mv	a0,s3
    80002e1a:	082060ef          	jal	80008e9c <strlen>
    80002e1e:	00014617          	auipc	a2,0x14
    80002e22:	26263603          	ld	a2,610(a2) # 80017080 <kva2pa_offset>
    80002e26:	00150813          	add	a6,a0,1
    80002e2a:	40c987b3          	sub	a5,s3,a2
    80002e2e:	88ca                	mv	a7,s2
    80002e30:	8722                	mv	a4,s0
    80002e32:	001a8693          	add	a3,s5,1 # 1001 <_ftext-0x7fffefff>
    80002e36:	40c48633          	sub	a2,s1,a2
    80002e3a:	85d2                	mv	a1,s4
    80002e3c:	02500513          	li	a0,37
    80002e40:	cddfd0ef          	jal	80000b1c <frontend_syscall>
    80002e44:	bf61                	j	80002ddc <sys_linkat+0x70>
    80002e46:	5a7d                	li	s4,-1
    80002e48:	f69413e3          	bne	s0,s1,80002dae <sys_linkat+0x42>
    80002e4c:	555d                	li	a0,-9
    80002e4e:	b779                	j	80002ddc <sys_linkat+0x70>
    80002e50:	8a2a                	mv	s4,a0
    80002e52:	f6a60be3          	beq	a2,a0,80002dc8 <sys_linkat+0x5c>
    80002e56:	8532                	mv	a0,a2
    80002e58:	a55fd0ef          	jal	800008ac <file_get>
    80002e5c:	87aa                	mv	a5,a0
    80002e5e:	d57d                	beqz	a0,80002e4c <sys_linkat+0xe0>
    80002e60:	4380                	lw	s0,0(a5)
    80002e62:	8d7fd0ef          	jal	80000738 <file_decref>
    80002e66:	bfb1                	j	80002dc2 <sys_linkat+0x56>
    80002e68:	57fd                	li	a5,-1
    80002e6a:	f4fa1fe3          	bne	s4,a5,80002dc8 <sys_linkat+0x5c>
    80002e6e:	555d                	li	a0,-9
    80002e70:	b7b5                	j	80002ddc <sys_linkat+0x70>

0000000080002e72 <sys_link>:
    80002e72:	86ae                	mv	a3,a1
    80002e74:	4701                	li	a4,0
    80002e76:	85aa                	mv	a1,a0
    80002e78:	f9c00613          	li	a2,-100
    80002e7c:	f9c00513          	li	a0,-100
    80002e80:	b5f5                	j	80002d6c <sys_linkat>

0000000080002e82 <do_syscall>:
    80002e82:	12300893          	li	a7,291
    80002e86:	0308e363          	bltu	a7,a6,80002eac <do_syscall+0x2a>
    80002e8a:	00381313          	sll	t1,a6,0x3
    80002e8e:	00006897          	auipc	a7,0x6
    80002e92:	2e288893          	add	a7,a7,738 # 80009170 <syscall_table.1>
    80002e96:	989a                	add	a7,a7,t1
    80002e98:	0008b883          	ld	a7,0(a7)
    80002e9c:	02088763          	beqz	a7,80002eca <do_syscall+0x48>
    80002ea0:	00014317          	auipc	t1,0x14
    80002ea4:	1e033303          	ld	t1,480(t1) # 80017080 <kva2pa_offset>
    80002ea8:	989a                	add	a7,a7,t1
    80002eaa:	8882                	jr	a7
    80002eac:	c0080893          	add	a7,a6,-1024
    80002eb0:	02600313          	li	t1,38
    80002eb4:	01136b63          	bltu	t1,a7,80002eca <do_syscall+0x48>
    80002eb8:	088e                	sll	a7,a7,0x3
    80002eba:	00006317          	auipc	t1,0x6
    80002ebe:	17e30313          	add	t1,t1,382 # 80009038 <old_syscall_table.0>
    80002ec2:	989a                	add	a7,a7,t1
    80002ec4:	0008b883          	ld	a7,0(a7)
    80002ec8:	bfd1                	j	80002e9c <do_syscall+0x1a>
    80002eca:	fa800513          	li	a0,-88
    80002ece:	8082                	ret

0000000080002ed0 <send_ipi_many>:
    80002ed0:	88ae                	mv	a7,a1
    80002ed2:	00014817          	auipc	a6,0x14
    80002ed6:	21e83803          	ld	a6,542(a6) # 800170f0 <hart_mask>
    80002eda:	cd01                	beqz	a0,80002ef2 <send_ipi_many+0x22>
    80002edc:	34102673          	csrr	a2,mepc
    80002ee0:	000205b7          	lui	a1,0x20
    80002ee4:	3005a6f3          	csrrs	a3,mstatus,a1
    80002ee8:	611c                	ld	a5,0(a0)
    80002eea:	30069073          	csrw	mstatus,a3
    80002eee:	00f87833          	and	a6,a6,a5
    80002ef2:	8742                	mv	a4,a6
    80002ef4:	4681                	li	a3,0
    80002ef6:	0c080d63          	beqz	a6,80002fd0 <send_ipi_many+0x100>
    80002efa:	1141                	add	sp,sp,-16
    80002efc:	e422                	sd	s0,8(sp)
    80002efe:	6505                	lui	a0,0x1
    80002f00:	0800                	add	s0,sp,16
    80002f02:	9522                	add	a0,a0,s0
    80002f04:	77fd                	lui	a5,0xfffff
    80002f06:	00014317          	auipc	t1,0x14
    80002f0a:	11a30313          	add	t1,t1,282 # 80017020 <disabled_hart_mask>
    80002f0e:	8d7d                	and	a0,a0,a5
    80002f10:	4e05                	li	t3,1
    80002f12:	f14025f3          	csrr	a1,mhartid
    80002f16:	a021                	j	80002f1e <send_ipi_many+0x4e>
    80002f18:	8305                	srl	a4,a4,0x1
    80002f1a:	0685                	add	a3,a3,1
    80002f1c:	cf0d                	beqz	a4,80002f56 <send_ipi_many+0x86>
    80002f1e:	00177793          	and	a5,a4,1
    80002f22:	dbfd                	beqz	a5,80002f18 <send_ipi_many+0x48>
    80002f24:	00033603          	ld	a2,0(t1)
    80002f28:	40b687b3          	sub	a5,a3,a1
    80002f2c:	07b2                	sll	a5,a5,0xc
    80002f2e:	40d65633          	sra	a2,a2,a3
    80002f32:	8a05                	and	a2,a2,1
    80002f34:	97aa                	add	a5,a5,a0
    80002f36:	f26d                	bnez	a2,80002f18 <send_ipi_many+0x48>
    80002f38:	fc878613          	add	a2,a5,-56 # ffffffffffffefc8 <_end+0xffffffff7ffe6fc8>
    80002f3c:	0f50000f          	fence	iorw,ow
    80002f40:	4516202f          	amoor.w.aq	zero,a7,(a2)
    80002f44:	0ff0000f          	fence
    80002f48:	fc07b783          	ld	a5,-64(a5)
    80002f4c:	8305                	srl	a4,a4,0x1
    80002f4e:	0685                	add	a3,a3,1
    80002f50:	01c7a023          	sw	t3,0(a5)
    80002f54:	f769                	bnez	a4,80002f1e <send_ipi_many+0x4e>
    80002f56:	4785                	li	a5,1
    80002f58:	06f88963          	beq	a7,a5,80002fca <send_ipi_many+0xfa>
    80002f5c:	6505                	lui	a0,0x1
    80002f5e:	9522                	add	a0,a0,s0
    80002f60:	76fd                	lui	a3,0xfffff
    80002f62:	4781                	li	a5,0
    80002f64:	8d75                	and	a0,a0,a3
    80002f66:	4881                	li	a7,0
    80002f68:	f1402373          	csrr	t1,mhartid
    80002f6c:	a031                	j	80002f78 <send_ipi_many+0xa8>
    80002f6e:	00185813          	srl	a6,a6,0x1
    80002f72:	0705                	add	a4,a4,1
    80002f74:	04080163          	beqz	a6,80002fb6 <send_ipi_many+0xe6>
    80002f78:	00187693          	and	a3,a6,1
    80002f7c:	daed                	beqz	a3,80002f6e <send_ipi_many+0x9e>
    80002f7e:	406706b3          	sub	a3,a4,t1
    80002f82:	06b2                	sll	a3,a3,0xc
    80002f84:	96aa                	add	a3,a3,a0
    80002f86:	fc06b683          	ld	a3,-64(a3) # ffffffffffffefc0 <_end+0xffffffff7ffe6fc0>
    80002f8a:	4294                	lw	a3,0(a3)
    80002f8c:	d2ed                	beqz	a3,80002f6e <send_ipi_many+0x9e>
    80002f8e:	406705b3          	sub	a1,a4,t1
    80002f92:	05b2                	sll	a1,a1,0xc
    80002f94:	95aa                	add	a1,a1,a0
    80002f96:	fc053683          	ld	a3,-64(a0) # fc0 <_ftext-0x7ffff040>
    80002f9a:	8646                	mv	a2,a7
    80002f9c:	0cc6a62f          	amoswap.w.aq	a2,a2,(a3)
    80002fa0:	fc05b683          	ld	a3,-64(a1) # 1ffc0 <_ftext-0x7ffe0040>
    80002fa4:	8fd1                	or	a5,a5,a2
    80002fa6:	2781                	sext.w	a5,a5
    80002fa8:	4294                	lw	a3,0(a3)
    80002faa:	f6f5                	bnez	a3,80002f96 <send_ipi_many+0xc6>
    80002fac:	00185813          	srl	a6,a6,0x1
    80002fb0:	0705                	add	a4,a4,1
    80002fb2:	fc0813e3          	bnez	a6,80002f78 <send_ipi_many+0xa8>
    80002fb6:	cb91                	beqz	a5,80002fca <send_ipi_many+0xfa>
    80002fb8:	6705                	lui	a4,0x1
    80002fba:	9722                	add	a4,a4,s0
    80002fbc:	76fd                	lui	a3,0xfffff
    80002fbe:	8f75                	and	a4,a4,a3
    80002fc0:	fc073703          	ld	a4,-64(a4) # fc0 <_ftext-0x7ffff040>
    80002fc4:	c31c                	sw	a5,0(a4)
    80002fc6:	0ff0000f          	fence
    80002fca:	6422                	ld	s0,8(sp)
    80002fcc:	0141                	add	sp,sp,16
    80002fce:	8082                	ret
    80002fd0:	8082                	ret

0000000080002fd2 <putstring>:
    80002fd2:	7179                	add	sp,sp,-48
    80002fd4:	f022                	sd	s0,32(sp)
    80002fd6:	f406                	sd	ra,40(sp)
    80002fd8:	ec26                	sd	s1,24(sp)
    80002fda:	e84a                	sd	s2,16(sp)
    80002fdc:	e44e                	sd	s3,8(sp)
    80002fde:	842a                	mv	s0,a0
    80002fe0:	00054503          	lbu	a0,0(a0)
    80002fe4:	cd15                	beqz	a0,80003020 <putstring+0x4e>
    80002fe6:	00014497          	auipc	s1,0x14
    80002fea:	0e248493          	add	s1,s1,226 # 800170c8 <uart>
    80002fee:	00014917          	auipc	s2,0x14
    80002ff2:	0ea90913          	add	s2,s2,234 # 800170d8 <uart16550>
    80002ff6:	00014997          	auipc	s3,0x14
    80002ffa:	0ea98993          	add	s3,s3,234 # 800170e0 <uart_litex>
    80002ffe:	a031                	j	8000300a <putstring+0x38>
    80003000:	27b000ef          	jal	80003a7a <uart_putchar>
    80003004:	00044503          	lbu	a0,0(s0)
    80003008:	cd01                	beqz	a0,80003020 <putstring+0x4e>
    8000300a:	609c                	ld	a5,0(s1)
    8000300c:	0405                	add	s0,s0,1
    8000300e:	fbed                	bnez	a5,80003000 <putstring+0x2e>
    80003010:	00093783          	ld	a5,0(s2)
    80003014:	cf89                	beqz	a5,8000302e <putstring+0x5c>
    80003016:	4a9000ef          	jal	80003cbe <uart16550_putchar>
    8000301a:	00044503          	lbu	a0,0(s0)
    8000301e:	f575                	bnez	a0,8000300a <putstring+0x38>
    80003020:	70a2                	ld	ra,40(sp)
    80003022:	7402                	ld	s0,32(sp)
    80003024:	64e2                	ld	s1,24(sp)
    80003026:	6942                	ld	s2,16(sp)
    80003028:	69a2                	ld	s3,8(sp)
    8000302a:	6145                	add	sp,sp,48
    8000302c:	8082                	ret
    8000302e:	0009b783          	ld	a5,0(s3)
    80003032:	c781                	beqz	a5,8000303a <putstring+0x68>
    80003034:	5b9000ef          	jal	80003dec <uart_litex_putchar>
    80003038:	b7f1                	j	80003004 <putstring+0x32>
    8000303a:	00014797          	auipc	a5,0x14
    8000303e:	07e7b783          	ld	a5,126(a5) # 800170b8 <htif>
    80003042:	d3e9                	beqz	a5,80003004 <putstring+0x32>
    80003044:	0b3000ef          	jal	800038f6 <htif_console_putchar>
    80003048:	bf75                	j	80003004 <putstring+0x32>

000000008000304a <vprintm>:
    8000304a:	7169                	add	sp,sp,-304
    8000304c:	862a                	mv	a2,a0
    8000304e:	86ae                	mv	a3,a1
    80003050:	850a                	mv	a0,sp
    80003052:	10000593          	li	a1,256
    80003056:	f606                	sd	ra,296(sp)
    80003058:	f222                	sd	s0,288(sp)
    8000305a:	ee26                	sd	s1,280(sp)
    8000305c:	ea4a                	sd	s2,272(sp)
    8000305e:	e64e                	sd	s3,264(sp)
    80003060:	349050ef          	jal	80008ba8 <vsnprintf>
    80003064:	00014503          	lbu	a0,0(sp)
    80003068:	cd1d                	beqz	a0,800030a6 <vprintm+0x5c>
    8000306a:	840a                	mv	s0,sp
    8000306c:	00014497          	auipc	s1,0x14
    80003070:	05c48493          	add	s1,s1,92 # 800170c8 <uart>
    80003074:	00014917          	auipc	s2,0x14
    80003078:	06490913          	add	s2,s2,100 # 800170d8 <uart16550>
    8000307c:	00014997          	auipc	s3,0x14
    80003080:	06498993          	add	s3,s3,100 # 800170e0 <uart_litex>
    80003084:	a031                	j	80003090 <vprintm+0x46>
    80003086:	1f5000ef          	jal	80003a7a <uart_putchar>
    8000308a:	00044503          	lbu	a0,0(s0)
    8000308e:	cd01                	beqz	a0,800030a6 <vprintm+0x5c>
    80003090:	609c                	ld	a5,0(s1)
    80003092:	0405                	add	s0,s0,1
    80003094:	fbed                	bnez	a5,80003086 <vprintm+0x3c>
    80003096:	00093783          	ld	a5,0(s2)
    8000309a:	cf89                	beqz	a5,800030b4 <vprintm+0x6a>
    8000309c:	423000ef          	jal	80003cbe <uart16550_putchar>
    800030a0:	00044503          	lbu	a0,0(s0)
    800030a4:	f575                	bnez	a0,80003090 <vprintm+0x46>
    800030a6:	70b2                	ld	ra,296(sp)
    800030a8:	7412                	ld	s0,288(sp)
    800030aa:	64f2                	ld	s1,280(sp)
    800030ac:	6952                	ld	s2,272(sp)
    800030ae:	69b2                	ld	s3,264(sp)
    800030b0:	6155                	add	sp,sp,304
    800030b2:	8082                	ret
    800030b4:	0009b783          	ld	a5,0(s3)
    800030b8:	c781                	beqz	a5,800030c0 <vprintm+0x76>
    800030ba:	533000ef          	jal	80003dec <uart_litex_putchar>
    800030be:	b7f1                	j	8000308a <vprintm+0x40>
    800030c0:	00014797          	auipc	a5,0x14
    800030c4:	ff87b783          	ld	a5,-8(a5) # 800170b8 <htif>
    800030c8:	d3e9                	beqz	a5,8000308a <vprintm+0x40>
    800030ca:	02d000ef          	jal	800038f6 <htif_console_putchar>
    800030ce:	bf75                	j	8000308a <vprintm+0x40>

00000000800030d0 <printm>:
    800030d0:	711d                	add	sp,sp,-96
    800030d2:	02810313          	add	t1,sp,40
    800030d6:	f42e                	sd	a1,40(sp)
    800030d8:	859a                	mv	a1,t1
    800030da:	ec06                	sd	ra,24(sp)
    800030dc:	f832                	sd	a2,48(sp)
    800030de:	fc36                	sd	a3,56(sp)
    800030e0:	e0ba                	sd	a4,64(sp)
    800030e2:	e4be                	sd	a5,72(sp)
    800030e4:	e8c2                	sd	a6,80(sp)
    800030e6:	ecc6                	sd	a7,88(sp)
    800030e8:	e41a                	sd	t1,8(sp)
    800030ea:	f61ff0ef          	jal	8000304a <vprintm>
    800030ee:	60e2                	ld	ra,24(sp)
    800030f0:	6125                	add	sp,sp,96
    800030f2:	8082                	ret

00000000800030f4 <redirect_trap>:
    800030f4:	14361073          	csrw	stval,a2
    800030f8:	14151073          	csrw	sepc,a0
    800030fc:	342027f3          	csrr	a5,mcause
    80003100:	14279073          	csrw	scause,a5
    80003104:	105027f3          	csrr	a5,stvec
    80003108:	34179073          	csrw	mepc,a5
    8000310c:	00459793          	sll	a5,a1,0x4
    80003110:	0035d713          	srl	a4,a1,0x3
    80003114:	10077713          	and	a4,a4,256
    80003118:	0207f793          	and	a5,a5,32
    8000311c:	edd5f593          	and	a1,a1,-291
    80003120:	8fd9                	or	a5,a5,a4
    80003122:	6705                	lui	a4,0x1
    80003124:	8fcd                	or	a5,a5,a1
    80003126:	80070713          	add	a4,a4,-2048 # 800 <_ftext-0x7ffff800>
    8000312a:	8fd9                	or	a5,a5,a4
    8000312c:	30079073          	csrw	mstatus,a5
    80003130:	8a8fd06f          	j	800001d8 <__redirect_trap>

0000000080003134 <pmp_trap>:
    80003134:	30002773          	csrr	a4,mstatus
    80003138:	343027f3          	csrr	a5,mtval
    8000313c:	14379073          	csrw	stval,a5
    80003140:	14161073          	csrw	sepc,a2
    80003144:	342027f3          	csrr	a5,mcause
    80003148:	14279073          	csrw	scause,a5
    8000314c:	105027f3          	csrr	a5,stvec
    80003150:	34179073          	csrw	mepc,a5
    80003154:	00471793          	sll	a5,a4,0x4
    80003158:	00375693          	srl	a3,a4,0x3
    8000315c:	1006f693          	and	a3,a3,256
    80003160:	0207f793          	and	a5,a5,32
    80003164:	edd77713          	and	a4,a4,-291
    80003168:	8fd5                	or	a5,a5,a3
    8000316a:	8fd9                	or	a5,a5,a4
    8000316c:	6705                	lui	a4,0x1
    8000316e:	80070713          	add	a4,a4,-2048 # 800 <_ftext-0x7ffff800>
    80003172:	8fd9                	or	a5,a5,a4
    80003174:	30079073          	csrw	mstatus,a5
    80003178:	860fd06f          	j	800001d8 <__redirect_trap>

000000008000317c <poweroff>:
    8000317c:	1141                	add	sp,sp,-16
    8000317e:	e022                	sd	s0,0(sp)
    80003180:	842a                	mv	s0,a0
    80003182:	00007517          	auipc	a0,0x7
    80003186:	0f650513          	add	a0,a0,246 # 8000a278 <softfloat_countLeadingZeros8+0x640>
    8000318a:	e406                	sd	ra,8(sp)
    8000318c:	f45ff0ef          	jal	800030d0 <printm>
    80003190:	8522                	mv	a0,s0
    80003192:	55f000ef          	jal	80003ef0 <finisher_exit>
    80003196:	00014797          	auipc	a5,0x14
    8000319a:	f227b783          	ld	a5,-222(a5) # 800170b8 <htif>
    8000319e:	c399                	beqz	a5,800031a4 <poweroff+0x28>
    800031a0:	7b0000ef          	jal	80003950 <htif_poweroff>
    800031a4:	45a1                	li	a1,8
    800031a6:	4501                	li	a0,0
    800031a8:	d29ff0ef          	jal	80002ed0 <send_ipi_many>
    800031ac:	10500073          	wfi
    800031b0:	bff5                	j	800031ac <poweroff+0x30>

00000000800031b2 <bad_trap>:
    800031b2:	1141                	add	sp,sp,-16
    800031b4:	e406                	sd	ra,8(sp)
    800031b6:	8732                	mv	a4,a2
    800031b8:	342026f3          	csrr	a3,mcause
    800031bc:	00007517          	auipc	a0,0x7
    800031c0:	0e450513          	add	a0,a0,228 # 8000a2a0 <softfloat_countLeadingZeros8+0x668>
    800031c4:	4659                	li	a2,22
    800031c6:	00007597          	auipc	a1,0x7
    800031ca:	0c258593          	add	a1,a1,194 # 8000a288 <softfloat_countLeadingZeros8+0x650>
    800031ce:	f03ff0ef          	jal	800030d0 <printm>
    800031d2:	6541                	lui	a0,0x10
    800031d4:	157d                	add	a0,a0,-1 # ffff <_ftext-0x7fff0001>
    800031d6:	fa7ff0ef          	jal	8000317c <poweroff>

00000000800031da <trap_from_machine_mode>:
    800031da:	1141                	add	sp,sp,-16
    800031dc:	e406                	sd	ra,8(sp)
    800031de:	34202773          	csrr	a4,mcause
    800031e2:	47bd                	li	a5,15
    800031e4:	00e7e963          	bltu	a5,a4,800031f6 <trap_from_machine_mode+0x1c>
    800031e8:	67a9                	lui	a5,0xa
    800031ea:	0a278793          	add	a5,a5,162 # a0a2 <_ftext-0x7fff5f5e>
    800031ee:	00e7d7b3          	srl	a5,a5,a4
    800031f2:	8b85                	and	a5,a5,1
    800031f4:	e399                	bnez	a5,800031fa <trap_from_machine_mode+0x20>
    800031f6:	fbdff0ef          	jal	800031b2 <bad_trap>
    800031fa:	300027f3          	csrr	a5,mstatus
    800031fe:	000206b7          	lui	a3,0x20
    80003202:	8ff5                	and	a5,a5,a3
    80003204:	cbb5                	beqz	a5,80003278 <trap_from_machine_mode+0x9e>
    80003206:	6d3c                	ld	a5,88(a0)
    80003208:	000a05b7          	lui	a1,0xa0
    8000320c:	04b78a63          	beq	a5,a1,80003260 <trap_from_machine_mode+0x86>
    80003210:	06d79463          	bne	a5,a3,80003278 <trap_from_machine_mode+0x9e>
    80003214:	7538                	ld	a4,104(a0)
    80003216:	343027f3          	csrr	a5,mtval
    8000321a:	14379073          	csrw	stval,a5
    8000321e:	713c                	ld	a5,96(a0)
    80003220:	14179073          	csrw	sepc,a5
    80003224:	342027f3          	csrr	a5,mcause
    80003228:	14279073          	csrw	scause,a5
    8000322c:	105027f3          	csrr	a5,stvec
    80003230:	34179073          	csrw	mepc,a5
    80003234:	00471793          	sll	a5,a4,0x4
    80003238:	00375693          	srl	a3,a4,0x3
    8000323c:	1006f693          	and	a3,a3,256
    80003240:	0207f793          	and	a5,a5,32
    80003244:	edd77713          	and	a4,a4,-291
    80003248:	8fd5                	or	a5,a5,a3
    8000324a:	8fd9                	or	a5,a5,a4
    8000324c:	6705                	lui	a4,0x1
    8000324e:	80070713          	add	a4,a4,-2048 # 800 <_ftext-0x7ffff800>
    80003252:	8fd9                	or	a5,a5,a4
    80003254:	30079073          	csrw	mstatus,a5
    80003258:	60a2                	ld	ra,8(sp)
    8000325a:	0141                	add	sp,sp,16
    8000325c:	f7dfc06f          	j	800001d8 <__redirect_trap>
    80003260:	47b5                	li	a5,13
    80003262:	00f70863          	beq	a4,a5,80003272 <trap_from_machine_mode+0x98>
    80003266:	4795                	li	a5,5
    80003268:	00f71863          	bne	a4,a5,80003278 <trap_from_machine_mode+0x9e>
    8000326c:	3420d073          	csrw	mcause,1
    80003270:	b755                	j	80003214 <trap_from_machine_mode+0x3a>
    80003272:	34265073          	csrw	mcause,12
    80003276:	bf79                	j	80003214 <trap_from_machine_mode+0x3a>
    80003278:	85ba                	mv	a1,a4
    8000327a:	f39ff0ef          	jal	800031b2 <bad_trap>

000000008000327e <mcall_trap>:
    8000327e:	1101                	add	sp,sp,-32
    80003280:	e822                	sd	s0,16(sp)
    80003282:	e426                	sd	s1,8(sp)
    80003284:	ec06                	sd	ra,24(sp)
    80003286:	1000                	add	s0,sp,32
    80003288:	84aa                	mv	s1,a0
    8000328a:	0611                	add	a2,a2,4
    8000328c:	34161073          	csrw	mepc,a2
    80003290:	655c                	ld	a5,136(a0)
    80003292:	4721                	li	a4,8
    80003294:	6928                	ld	a0,80(a0)
    80003296:	0ef76863          	bltu	a4,a5,80003386 <mcall_trap+0x108>
    8000329a:	00006717          	auipc	a4,0x6
    8000329e:	7f670713          	add	a4,a4,2038 # 80009a90 <syscall_table.1+0x920>
    800032a2:	078a                	sll	a5,a5,0x2
    800032a4:	97ba                	add	a5,a5,a4
    800032a6:	439c                	lw	a5,0(a5)
    800032a8:	97ba                	add	a5,a5,a4
    800032aa:	8782                	jr	a5
    800032ac:	4591                	li	a1,4
    800032ae:	c23ff0ef          	jal	80002ed0 <send_ipi_many>
    800032b2:	4501                	li	a0,0
    800032b4:	a885                	j	80003324 <mcall_trap+0xa6>
    800032b6:	6785                	lui	a5,0x1
    800032b8:	97a2                	add	a5,a5,s0
    800032ba:	777d                	lui	a4,0xfffff
    800032bc:	8ff9                	and	a5,a5,a4
    800032be:	fd07b783          	ld	a5,-48(a5) # fd0 <_ftext-0x7ffff030>
    800032c2:	e388                	sd	a0,0(a5)
    800032c4:	02000793          	li	a5,32
    800032c8:	3447b7f3          	csrrc	a5,mip,a5
    800032cc:	08000793          	li	a5,128
    800032d0:	3047a7f3          	csrrs	a5,mie,a5
    800032d4:	4501                	li	a0,0
    800032d6:	a0b9                	j	80003324 <mcall_trap+0xa6>
    800032d8:	00014797          	auipc	a5,0x14
    800032dc:	df07b783          	ld	a5,-528(a5) # 800170c8 <uart>
    800032e0:	0ff57513          	zext.b	a0,a0
    800032e4:	cbb1                	beqz	a5,80003338 <mcall_trap+0xba>
    800032e6:	794000ef          	jal	80003a7a <uart_putchar>
    800032ea:	4501                	li	a0,0
    800032ec:	a825                	j	80003324 <mcall_trap+0xa6>
    800032ee:	00014797          	auipc	a5,0x14
    800032f2:	dda7b783          	ld	a5,-550(a5) # 800170c8 <uart>
    800032f6:	ebad                	bnez	a5,80003368 <mcall_trap+0xea>
    800032f8:	00014797          	auipc	a5,0x14
    800032fc:	de07b783          	ld	a5,-544(a5) # 800170d8 <uart16550>
    80003300:	eba1                	bnez	a5,80003350 <mcall_trap+0xd2>
    80003302:	00014797          	auipc	a5,0x14
    80003306:	dde7b783          	ld	a5,-546(a5) # 800170e0 <uart_litex>
    8000330a:	e3b5                	bnez	a5,8000336e <mcall_trap+0xf0>
    8000330c:	00014797          	auipc	a5,0x14
    80003310:	dac7b783          	ld	a5,-596(a5) # 800170b8 <htif>
    80003314:	557d                	li	a0,-1
    80003316:	c799                	beqz	a5,80003324 <mcall_trap+0xa6>
    80003318:	4fe000ef          	jal	80003816 <htif_console_getchar>
    8000331c:	a021                	j	80003324 <mcall_trap+0xa6>
    8000331e:	34417573          	csrrc	a0,mip,2
    80003322:	8909                	and	a0,a0,2
    80003324:	60e2                	ld	ra,24(sp)
    80003326:	6442                	ld	s0,16(sp)
    80003328:	e8a8                	sd	a0,80(s1)
    8000332a:	64a2                	ld	s1,8(sp)
    8000332c:	6105                	add	sp,sp,32
    8000332e:	8082                	ret
    80003330:	4585                	li	a1,1
    80003332:	bfb5                	j	800032ae <mcall_trap+0x30>
    80003334:	4589                	li	a1,2
    80003336:	bfa5                	j	800032ae <mcall_trap+0x30>
    80003338:	00014797          	auipc	a5,0x14
    8000333c:	da07b783          	ld	a5,-608(a5) # 800170d8 <uart16550>
    80003340:	cb99                	beqz	a5,80003356 <mcall_trap+0xd8>
    80003342:	17d000ef          	jal	80003cbe <uart16550_putchar>
    80003346:	4501                	li	a0,0
    80003348:	bff1                	j	80003324 <mcall_trap+0xa6>
    8000334a:	4501                	li	a0,0
    8000334c:	e31ff0ef          	jal	8000317c <poweroff>
    80003350:	197000ef          	jal	80003ce6 <uart16550_getchar>
    80003354:	bfc1                	j	80003324 <mcall_trap+0xa6>
    80003356:	00014797          	auipc	a5,0x14
    8000335a:	d8a7b783          	ld	a5,-630(a5) # 800170e0 <uart_litex>
    8000335e:	cb99                	beqz	a5,80003374 <mcall_trap+0xf6>
    80003360:	28d000ef          	jal	80003dec <uart_litex_putchar>
    80003364:	4501                	li	a0,0
    80003366:	bf7d                	j	80003324 <mcall_trap+0xa6>
    80003368:	728000ef          	jal	80003a90 <uart_getchar>
    8000336c:	bf65                	j	80003324 <mcall_trap+0xa6>
    8000336e:	293000ef          	jal	80003e00 <uart_litex_getchar>
    80003372:	bf4d                	j	80003324 <mcall_trap+0xa6>
    80003374:	00014797          	auipc	a5,0x14
    80003378:	d447b783          	ld	a5,-700(a5) # 800170b8 <htif>
    8000337c:	db9d                	beqz	a5,800032b2 <mcall_trap+0x34>
    8000337e:	578000ef          	jal	800038f6 <htif_console_putchar>
    80003382:	4501                	li	a0,0
    80003384:	b745                	j	80003324 <mcall_trap+0xa6>
    80003386:	fa800513          	li	a0,-88
    8000338a:	bf69                	j	80003324 <mcall_trap+0xa6>

000000008000338c <hart_plic_init>:
    8000338c:	1141                	add	sp,sp,-16
    8000338e:	e422                	sd	s0,8(sp)
    80003390:	6685                	lui	a3,0x1
    80003392:	0800                	add	s0,sp,16
    80003394:	96a2                	add	a3,a3,s0
    80003396:	77fd                	lui	a5,0xfffff
    80003398:	8efd                	and	a3,a3,a5
    8000339a:	fc06b703          	ld	a4,-64(a3) # fc0 <_ftext-0x7ffff040>
    8000339e:	fd06b783          	ld	a5,-48(a3)
    800033a2:	00072023          	sw	zero,0(a4) # fffffffffffff000 <_end+0xffffffff7ffe7000>
    800033a6:	577d                	li	a4,-1
    800033a8:	e398                	sd	a4,0(a5)
    800033aa:	34405073          	csrw	mip,0
    800033ae:	00014617          	auipc	a2,0x14
    800033b2:	cea63603          	ld	a2,-790(a2) # 80017098 <plic_ndevs>
    800033b6:	ce0d                	beqz	a2,800033f0 <hart_plic_init+0x64>
    800033b8:	067d                	add	a2,a2,31
    800033ba:	8215                	srl	a2,a2,0x5
    800033bc:	ce09                	beqz	a2,800033d6 <hart_plic_init+0x4a>
    800033be:	060a                	sll	a2,a2,0x2
    800033c0:	4781                	li	a5,0
    800033c2:	557d                	li	a0,-1
    800033c4:	ff06b703          	ld	a4,-16(a3)
    800033c8:	00f705b3          	add	a1,a4,a5
    800033cc:	0791                	add	a5,a5,4 # fffffffffffff004 <_end+0xffffffff7ffe7004>
    800033ce:	c311                	beqz	a4,800033d2 <hart_plic_init+0x46>
    800033d0:	c188                	sw	a0,0(a1)
    800033d2:	fec799e3          	bne	a5,a2,800033c4 <hart_plic_init+0x38>
    800033d6:	6785                	lui	a5,0x1
    800033d8:	777d                	lui	a4,0xfffff
    800033da:	97a2                	add	a5,a5,s0
    800033dc:	8ff9                	and	a5,a5,a4
    800033de:	fd87b703          	ld	a4,-40(a5) # fd8 <_ftext-0x7ffff028>
    800033e2:	fe87b783          	ld	a5,-24(a5)
    800033e6:	4685                	li	a3,1
    800033e8:	c314                	sw	a3,0(a4)
    800033ea:	c399                	beqz	a5,800033f0 <hart_plic_init+0x64>
    800033ec:	0007a023          	sw	zero,0(a5)
    800033f0:	6422                	ld	s0,8(sp)
    800033f2:	0141                	add	sp,sp,16
    800033f4:	8082                	ret

00000000800033f6 <hart_init>:
    800033f6:	301027f3          	csrr	a5,misa
    800033fa:	1141                	add	sp,sp,-16
    800033fc:	03a79693          	sll	a3,a5,0x3a
    80003400:	83d5                	srl	a5,a5,0x15
    80003402:	6719                	lui	a4,0x6
    80003404:	96fd                	sra	a3,a3,0x3f
    80003406:	e406                	sd	ra,8(sp)
    80003408:	8b85                	and	a5,a5,1
    8000340a:	8f75                	and	a4,a4,a3
    8000340c:	c399                	beqz	a5,80003412 <hart_init+0x1c>
    8000340e:	60076713          	or	a4,a4,1536
    80003412:	30071073          	csrw	mstatus,a4
    80003416:	301027f3          	csrr	a5,misa
    8000341a:	83c9                	srl	a5,a5,0x12
    8000341c:	8b85                	and	a5,a5,1
    8000341e:	c781                	beqz	a5,80003426 <hart_init+0x30>
    80003420:	57fd                	li	a5,-1
    80003422:	10679073          	csrw	scounteren,a5
    80003426:	301027f3          	csrr	a5,misa
    8000342a:	83d1                	srl	a5,a5,0x14
    8000342c:	8b85                	and	a5,a5,1
    8000342e:	c781                	beqz	a5,80003436 <hart_init+0x40>
    80003430:	57fd                	li	a5,-1
    80003432:	30679073          	csrw	mcounteren,a5
    80003436:	30445073          	csrw	mie,8
    8000343a:	301027f3          	csrr	a5,misa
    8000343e:	83c9                	srl	a5,a5,0x12
    80003440:	8b85                	and	a5,a5,1
    80003442:	c399                	beqz	a5,80003448 <hart_init+0x52>
    80003444:	18005073          	csrw	satp,0
    80003448:	301027f3          	csrr	a5,misa
    8000344c:	0207f793          	and	a5,a5,32
    80003450:	c785                	beqz	a5,80003478 <hart_init+0x82>
    80003452:	300026f3          	csrr	a3,mstatus
    80003456:	6799                	lui	a5,0x6
    80003458:	8efd                	and	a3,a3,a5
    8000345a:	10000713          	li	a4,256
    8000345e:	4781                	li	a5,0
    80003460:	c6ad                	beqz	a3,800034ca <hart_init+0xd4>
    80003462:	4501                	li	a0,0
    80003464:	00001697          	auipc	a3,0x1
    80003468:	96be                	add	a3,a3,a5
    8000346a:	bee682e7          	jalr	t0,-1042(a3) # 80004052 <put_f32_reg>
    8000346e:	07a1                	add	a5,a5,8 # 6008 <_ftext-0x7fff9ff8>
    80003470:	fee799e3          	bne	a5,a4,80003462 <hart_init+0x6c>
    80003474:	00305073          	csrw	fcsr,0
    80003478:	301027f3          	csrr	a5,misa
    8000347c:	83c9                	srl	a5,a5,0x12
    8000347e:	8b85                	and	a5,a5,1
    80003480:	c785                	beqz	a5,800034a8 <hart_init+0xb2>
    80003482:	22200693          	li	a3,546
    80003486:	30369073          	csrw	mideleg,a3
    8000348a:	67ad                	lui	a5,0xb
    8000348c:	10978793          	add	a5,a5,265 # b109 <_ftext-0x7fff4ef7>
    80003490:	30279073          	csrw	medeleg,a5
    80003494:	30302773          	csrr	a4,mideleg
    80003498:	22277713          	and	a4,a4,546
    8000349c:	06d71663          	bne	a4,a3,80003508 <hart_init+0x112>
    800034a0:	30202773          	csrr	a4,medeleg
    800034a4:	04f71763          	bne	a4,a5,800034f2 <hart_init+0xfc>
    800034a8:	47fd                	li	a5,31
    800034aa:	577d                	li	a4,-1
    800034ac:	00000297          	auipc	t0,0x0
    800034b0:	01428293          	add	t0,t0,20 # 800034c0 <hart_init+0xca>
    800034b4:	305292f3          	csrrw	t0,mtvec,t0
    800034b8:	3b071073          	csrw	pmpaddr0,a4
    800034bc:	3a079073          	csrw	pmpcfg0,a5
    800034c0:	30529073          	csrw	mtvec,t0
    800034c4:	60a2                	ld	ra,8(sp)
    800034c6:	0141                	add	sp,sp,16
    800034c8:	8082                	ret
    800034ca:	00007517          	auipc	a0,0x7
    800034ce:	aa650513          	add	a0,a0,-1370 # 80009f70 <softfloat_countLeadingZeros8+0x338>
    800034d2:	00007697          	auipc	a3,0x7
    800034d6:	dfe68693          	add	a3,a3,-514 # 8000a2d0 <softfloat_countLeadingZeros8+0x698>
    800034da:	05e00613          	li	a2,94
    800034de:	00007597          	auipc	a1,0x7
    800034e2:	e1258593          	add	a1,a1,-494 # 8000a2f0 <softfloat_countLeadingZeros8+0x6b8>
    800034e6:	bebff0ef          	jal	800030d0 <printm>
    800034ea:	6541                	lui	a0,0x10
    800034ec:	157d                	add	a0,a0,-1 # ffff <_ftext-0x7fff0001>
    800034ee:	c8fff0ef          	jal	8000317c <poweroff>
    800034f2:	00007517          	auipc	a0,0x7
    800034f6:	a7e50513          	add	a0,a0,-1410 # 80009f70 <softfloat_countLeadingZeros8+0x338>
    800034fa:	00007697          	auipc	a3,0x7
    800034fe:	e3e68693          	add	a3,a3,-450 # 8000a338 <softfloat_countLeadingZeros8+0x700>
    80003502:	05600613          	li	a2,86
    80003506:	bfe1                	j	800034de <hart_init+0xe8>
    80003508:	00007517          	auipc	a0,0x7
    8000350c:	a6850513          	add	a0,a0,-1432 # 80009f70 <softfloat_countLeadingZeros8+0x338>
    80003510:	00007697          	auipc	a3,0x7
    80003514:	df868693          	add	a3,a3,-520 # 8000a308 <softfloat_countLeadingZeros8+0x6d0>
    80003518:	05500613          	li	a2,85
    8000351c:	b7c9                	j	800034de <hart_init+0xe8>

000000008000351e <hls_init>:
    8000351e:	1141                	add	sp,sp,-16
    80003520:	e422                	sd	s0,8(sp)
    80003522:	f14027f3          	csrr	a5,mhartid
    80003526:	0800                	add	s0,sp,16
    80003528:	40f507b3          	sub	a5,a0,a5
    8000352c:	6505                	lui	a0,0x1
    8000352e:	9522                	add	a0,a0,s0
    80003530:	07b2                	sll	a5,a5,0xc
    80003532:	777d                	lui	a4,0xfffff
    80003534:	8d79                	and	a0,a0,a4
    80003536:	fc078793          	add	a5,a5,-64
    8000353a:	953e                	add	a0,a0,a5
    8000353c:	00053023          	sd	zero,0(a0) # 1000 <_ftext-0x7ffff000>
    80003540:	00053423          	sd	zero,8(a0)
    80003544:	00053823          	sd	zero,16(a0)
    80003548:	00053c23          	sd	zero,24(a0)
    8000354c:	02053023          	sd	zero,32(a0)
    80003550:	02053423          	sd	zero,40(a0)
    80003554:	02053823          	sd	zero,48(a0)
    80003558:	6422                	ld	s0,8(sp)
    8000355a:	0141                	add	sp,sp,16
    8000355c:	8082                	ret

000000008000355e <init_first_hart>:
    8000355e:	7179                	add	sp,sp,-48
    80003560:	f406                	sd	ra,40(sp)
    80003562:	f022                	sd	s0,32(sp)
    80003564:	ec26                	sd	s1,24(sp)
    80003566:	1800                	add	s0,sp,48
    80003568:	e84a                	sd	s2,16(sp)
    8000356a:	e44e                	sd	s3,8(sp)
    8000356c:	852e                	mv	a0,a1
    8000356e:	84ae                	mv	s1,a1
    80003570:	53a000ef          	jal	80003aaa <query_uart>
    80003574:	8526                	mv	a0,s1
    80003576:	79a000ef          	jal	80003d10 <query_uart16550>
    8000357a:	8526                	mv	a0,s1
    8000357c:	09f000ef          	jal	80003e1a <query_uart_litex>
    80003580:	8526                	mv	a0,s1
    80003582:	41e000ef          	jal	800039a0 <query_htif>
    80003586:	00007517          	auipc	a0,0x7
    8000358a:	dd250513          	add	a0,a0,-558 # 8000a358 <softfloat_countLeadingZeros8+0x720>
    8000358e:	b43ff0ef          	jal	800030d0 <printm>
    80003592:	e65ff0ef          	jal	800033f6 <hart_init>
    80003596:	6905                	lui	s2,0x1
    80003598:	f14029f3          	csrr	s3,mhartid
    8000359c:	413007b3          	neg	a5,s3
    800035a0:	777d                	lui	a4,0xfffff
    800035a2:	07b2                	sll	a5,a5,0xc
    800035a4:	9922                	add	s2,s2,s0
    800035a6:	00e97933          	and	s2,s2,a4
    800035aa:	fc078793          	add	a5,a5,-64
    800035ae:	97ca                	add	a5,a5,s2
    800035b0:	0007b023          	sd	zero,0(a5)
    800035b4:	0007b423          	sd	zero,8(a5)
    800035b8:	0007b823          	sd	zero,16(a5)
    800035bc:	0007bc23          	sd	zero,24(a5)
    800035c0:	0207b023          	sd	zero,32(a5)
    800035c4:	0207b423          	sd	zero,40(a5)
    800035c8:	0207b823          	sd	zero,48(a5)
    800035cc:	8526                	mv	a0,s1
    800035ce:	14b000ef          	jal	80003f18 <query_finisher>
    800035d2:	8526                	mv	a0,s1
    800035d4:	118020ef          	jal	800056ec <query_mem>
    800035d8:	8526                	mv	a0,s1
    800035da:	17e020ef          	jal	80005758 <query_harts>
    800035de:	8526                	mv	a0,s1
    800035e0:	1f6020ef          	jal	800057d6 <query_clint>
    800035e4:	8526                	mv	a0,s1
    800035e6:	252020ef          	jal	80005838 <query_plic>
    800035ea:	8526                	mv	a0,s1
    800035ec:	2f8020ef          	jal	800058e4 <query_chosen>
    800035f0:	00014617          	auipc	a2,0x14
    800035f4:	a3063603          	ld	a2,-1488(a2) # 80017020 <disabled_hart_mask>
    800035f8:	fff64613          	not	a2,a2
    800035fc:	00014797          	auipc	a5,0x14
    80003600:	af47b783          	ld	a5,-1292(a5) # 800170f0 <hart_mask>
    80003604:	8e7d                	and	a2,a2,a5
    80003606:	4701                	li	a4,0
    80003608:	4505                	li	a0,1
    8000360a:	45a1                	li	a1,8
    8000360c:	413707b3          	sub	a5,a4,s3
    80003610:	00e656b3          	srl	a3,a2,a4
    80003614:	07b2                	sll	a5,a5,0xc
    80003616:	8a85                	and	a3,a3,1
    80003618:	97ca                	add	a5,a5,s2
    8000361a:	0705                	add	a4,a4,1 # fffffffffffff001 <_end+0xffffffff7ffe7001>
    8000361c:	c681                	beqz	a3,80003624 <init_first_hart+0xc6>
    8000361e:	fc07b783          	ld	a5,-64(a5)
    80003622:	c388                	sw	a0,0(a5)
    80003624:	feb714e3          	bne	a4,a1,8000360c <init_first_hart+0xae>
    80003628:	00014797          	auipc	a5,0x14
    8000362c:	a707b783          	ld	a5,-1424(a5) # 80017098 <plic_ndevs>
    80003630:	c385                	beqz	a5,80003650 <init_first_hart+0xf2>
    80003632:	00014697          	auipc	a3,0x14
    80003636:	a6e6b683          	ld	a3,-1426(a3) # 800170a0 <plic_priorities>
    8000363a:	00279713          	sll	a4,a5,0x2
    8000363e:	4605                	li	a2,1
    80003640:	00468793          	add	a5,a3,4
    80003644:	96ba                	add	a3,a3,a4
    80003646:	873e                	mv	a4,a5
    80003648:	c390                	sw	a2,0(a5)
    8000364a:	0791                	add	a5,a5,4
    8000364c:	fee69de3          	bne	a3,a4,80003646 <init_first_hart+0xe8>
    80003650:	d3dff0ef          	jal	8000338c <hart_plic_init>
    80003654:	00014717          	auipc	a4,0x14
    80003658:	a5c70713          	add	a4,a4,-1444 # 800170b0 <mem_size>
    8000365c:	631c                	ld	a5,0(a4)
    8000365e:	7402                	ld	s0,32(sp)
    80003660:	ffe006b7          	lui	a3,0xffe00
    80003664:	70a2                	ld	ra,40(sp)
    80003666:	6942                	ld	s2,16(sp)
    80003668:	69a2                	ld	s3,8(sp)
    8000366a:	8526                	mv	a0,s1
    8000366c:	8ff5                	and	a5,a5,a3
    8000366e:	64e2                	ld	s1,24(sp)
    80003670:	e31c                	sd	a5,0(a4)
    80003672:	6145                	add	sp,sp,48
    80003674:	856fd06f          	j	800006ca <boot_loader>

0000000080003678 <init_other_hart>:
    80003678:	1141                	add	sp,sp,-16
    8000367a:	e406                	sd	ra,8(sp)
    8000367c:	e022                	sd	s0,0(sp)
    8000367e:	842e                	mv	s0,a1
    80003680:	d77ff0ef          	jal	800033f6 <hart_init>
    80003684:	d09ff0ef          	jal	8000338c <hart_plic_init>
    80003688:	8522                	mv	a0,s0
    8000368a:	6402                	ld	s0,0(sp)
    8000368c:	60a2                	ld	ra,8(sp)
    8000368e:	0141                	add	sp,sp,16
    80003690:	87efd06f          	j	8000070e <boot_other_hart>

0000000080003694 <setup_pmp>:
    80003694:	47fd                	li	a5,31
    80003696:	577d                	li	a4,-1
    80003698:	00000297          	auipc	t0,0x0
    8000369c:	01428293          	add	t0,t0,20 # 800036ac <setup_pmp+0x18>
    800036a0:	305292f3          	csrrw	t0,mtvec,t0
    800036a4:	3b071073          	csrw	pmpaddr0,a4
    800036a8:	3a079073          	csrw	pmpcfg0,a5
    800036ac:	30529073          	csrw	mtvec,t0
    800036b0:	8082                	ret

00000000800036b2 <enter_supervisor_mode>:
    800036b2:	1141                	add	sp,sp,-16
    800036b4:	e422                	sd	s0,8(sp)
    800036b6:	0800                	add	s0,sp,16
    800036b8:	86aa                	mv	a3,a0
    800036ba:	852e                	mv	a0,a1
    800036bc:	85b2                	mv	a1,a2
    800036be:	30002773          	csrr	a4,mstatus
    800036c2:	7679                	lui	a2,0xffffe
    800036c4:	6785                	lui	a5,0x1
    800036c6:	77f60613          	add	a2,a2,1919 # ffffffffffffe77f <_end+0xffffffff7ffe677f>
    800036ca:	8f71                	and	a4,a4,a2
    800036cc:	80078613          	add	a2,a5,-2048 # 800 <_ftext-0x7ffff800>
    800036d0:	8f51                	or	a4,a4,a2
    800036d2:	30071073          	csrw	mstatus,a4
    800036d6:	777d                	lui	a4,0xfffff
    800036d8:	97a2                	add	a5,a5,s0
    800036da:	8ff9                	and	a5,a5,a4
    800036dc:	ec078793          	add	a5,a5,-320
    800036e0:	34079073          	csrw	mscratch,a5
    800036e4:	34169073          	csrw	mepc,a3
    800036e8:	30200073          	mret

00000000800036ec <enter_machine_mode>:
    800036ec:	1141                	add	sp,sp,-16
    800036ee:	e022                	sd	s0,0(sp)
    800036f0:	e406                	sd	ra,8(sp)
    800036f2:	0800                	add	s0,sp,16
    800036f4:	872a                	mv	a4,a0
    800036f6:	852e                	mv	a0,a1
    800036f8:	85b2                	mv	a1,a2
    800036fa:	300027f3          	csrr	a5,mstatus
    800036fe:	f7f7f793          	and	a5,a5,-129
    80003702:	30079073          	csrw	mstatus,a5
    80003706:	6785                	lui	a5,0x1
    80003708:	97a2                	add	a5,a5,s0
    8000370a:	76fd                	lui	a3,0xfffff
    8000370c:	8ff5                	and	a5,a5,a3
    8000370e:	ec078793          	add	a5,a5,-320 # ec0 <_ftext-0x7ffff140>
    80003712:	34079073          	csrw	mscratch,a5
    80003716:	9702                	jalr	a4

0000000080003718 <htif_done>:
    80003718:	419c                	lw	a5,0(a1)
    8000371a:	c791                	beqz	a5,80003726 <htif_done+0xe>
    8000371c:	4785                	li	a5,1
    8000371e:	00014717          	auipc	a4,0x14
    80003722:	98f73d23          	sd	a5,-1638(a4) # 800170b8 <htif>
    80003726:	8082                	ret

0000000080003728 <__check_fromhost>:
    80003728:	00008797          	auipc	a5,0x8
    8000372c:	8d87b783          	ld	a5,-1832(a5) # 8000b000 <fromhost>
    80003730:	cf9d                	beqz	a5,8000376e <__check_fromhost+0x46>
    80003732:	1141                	add	sp,sp,-16
    80003734:	00008717          	auipc	a4,0x8
    80003738:	8c073623          	sd	zero,-1844(a4) # 8000b000 <fromhost>
    8000373c:	e406                	sd	ra,8(sp)
    8000373e:	0387d693          	srl	a3,a5,0x38
    80003742:	4705                	li	a4,1
    80003744:	02e69663          	bne	a3,a4,80003770 <__check_fromhost+0x48>
    80003748:	00879713          	sll	a4,a5,0x8
    8000374c:	9361                	srl	a4,a4,0x38
    8000374e:	c711                	beqz	a4,8000375a <__check_fromhost+0x32>
    80003750:	04d71363          	bne	a4,a3,80003796 <__check_fromhost+0x6e>
    80003754:	60a2                	ld	ra,8(sp)
    80003756:	0141                	add	sp,sp,16
    80003758:	8082                	ret
    8000375a:	60a2                	ld	ra,8(sp)
    8000375c:	0ff7f793          	zext.b	a5,a5
    80003760:	2785                	addw	a5,a5,1
    80003762:	00014717          	auipc	a4,0x14
    80003766:	96f72123          	sw	a5,-1694(a4) # 800170c4 <htif_console_buf>
    8000376a:	0141                	add	sp,sp,16
    8000376c:	8082                	ret
    8000376e:	8082                	ret
    80003770:	00007517          	auipc	a0,0x7
    80003774:	80050513          	add	a0,a0,-2048 # 80009f70 <softfloat_countLeadingZeros8+0x338>
    80003778:	00007697          	auipc	a3,0x7
    8000377c:	bf068693          	add	a3,a3,-1040 # 8000a368 <softfloat_countLeadingZeros8+0x730>
    80003780:	467d                	li	a2,31
    80003782:	00007597          	auipc	a1,0x7
    80003786:	bfe58593          	add	a1,a1,-1026 # 8000a380 <softfloat_countLeadingZeros8+0x748>
    8000378a:	947ff0ef          	jal	800030d0 <printm>
    8000378e:	6541                	lui	a0,0x10
    80003790:	157d                	add	a0,a0,-1 # ffff <_ftext-0x7fff0001>
    80003792:	9ebff0ef          	jal	8000317c <poweroff>
    80003796:	00006517          	auipc	a0,0x6
    8000379a:	7da50513          	add	a0,a0,2010 # 80009f70 <softfloat_countLeadingZeros8+0x338>
    8000379e:	00007697          	auipc	a3,0x7
    800037a2:	8ca68693          	add	a3,a3,-1846 # 8000a068 <softfloat_countLeadingZeros8+0x430>
    800037a6:	02700613          	li	a2,39
    800037aa:	00007597          	auipc	a1,0x7
    800037ae:	bd658593          	add	a1,a1,-1066 # 8000a380 <softfloat_countLeadingZeros8+0x748>
    800037b2:	91fff0ef          	jal	800030d0 <printm>
    800037b6:	6541                	lui	a0,0x10
    800037b8:	157d                	add	a0,a0,-1 # ffff <_ftext-0x7fff0001>
    800037ba:	9c3ff0ef          	jal	8000317c <poweroff>

00000000800037be <htif_open>:
    800037be:	00058023          	sb	zero,0(a1)
    800037c2:	000580a3          	sb	zero,1(a1)
    800037c6:	00058123          	sb	zero,2(a1)
    800037ca:	000581a3          	sb	zero,3(a1)
    800037ce:	8082                	ret

00000000800037d0 <htif_prop>:
    800037d0:	1101                	add	sp,sp,-32
    800037d2:	e822                	sd	s0,16(sp)
    800037d4:	842a                	mv	s0,a0
    800037d6:	6508                	ld	a0,8(a0)
    800037d8:	e426                	sd	s1,8(sp)
    800037da:	84ae                	mv	s1,a1
    800037dc:	00007597          	auipc	a1,0x7
    800037e0:	bbc58593          	add	a1,a1,-1092 # 8000a398 <softfloat_countLeadingZeros8+0x760>
    800037e4:	ec06                	sd	ra,24(sp)
    800037e6:	6d0050ef          	jal	80008eb6 <strcmp>
    800037ea:	c511                	beqz	a0,800037f6 <htif_prop+0x26>
    800037ec:	60e2                	ld	ra,24(sp)
    800037ee:	6442                	ld	s0,16(sp)
    800037f0:	64a2                	ld	s1,8(sp)
    800037f2:	6105                	add	sp,sp,32
    800037f4:	8082                	ret
    800037f6:	00007597          	auipc	a1,0x7
    800037fa:	bb258593          	add	a1,a1,-1102 # 8000a3a8 <softfloat_countLeadingZeros8+0x770>
    800037fe:	8522                	mv	a0,s0
    80003800:	68d010ef          	jal	8000568c <fdt_string_list_index>
    80003804:	fe0544e3          	bltz	a0,800037ec <htif_prop+0x1c>
    80003808:	60e2                	ld	ra,24(sp)
    8000380a:	6442                	ld	s0,16(sp)
    8000380c:	4785                	li	a5,1
    8000380e:	c09c                	sw	a5,0(s1)
    80003810:	64a2                	ld	s1,8(sp)
    80003812:	6105                	add	sp,sp,32
    80003814:	8082                	ret

0000000080003816 <htif_console_getchar>:
    80003816:	1101                	add	sp,sp,-32
    80003818:	ec06                	sd	ra,24(sp)
    8000381a:	e822                	sd	s0,16(sp)
    8000381c:	e426                	sd	s1,8(sp)
    8000381e:	00014717          	auipc	a4,0x14
    80003822:	8a270713          	add	a4,a4,-1886 # 800170c0 <htif_lock>
    80003826:	56fd                	li	a3,-1
    80003828:	431c                	lw	a5,0(a4)
    8000382a:	fffd                	bnez	a5,80003828 <htif_console_getchar+0x12>
    8000382c:	87b6                	mv	a5,a3
    8000382e:	0cf727af          	amoswap.w.aq	a5,a5,(a4)
    80003832:	2781                	sext.w	a5,a5
    80003834:	0ff0000f          	fence
    80003838:	fbe5                	bnez	a5,80003828 <htif_console_getchar+0x12>
    8000383a:	eefff0ef          	jal	80003728 <__check_fromhost>
    8000383e:	00014497          	auipc	s1,0x14
    80003842:	8864a483          	lw	s1,-1914(s1) # 800170c4 <htif_console_buf>
    80003846:	0204c463          	bltz	s1,8000386e <htif_console_getchar+0x58>
    8000384a:	57fd                	li	a5,-1
    8000384c:	00014717          	auipc	a4,0x14
    80003850:	86f72c23          	sw	a5,-1928(a4) # 800170c4 <htif_console_buf>
    80003854:	00007417          	auipc	s0,0x7
    80003858:	7ac40413          	add	s0,s0,1964 # 8000b000 <fromhost>
    8000385c:	641c                	ld	a5,8(s0)
    8000385e:	c789                	beqz	a5,80003868 <htif_console_getchar+0x52>
    80003860:	ec9ff0ef          	jal	80003728 <__check_fromhost>
    80003864:	641c                	ld	a5,8(s0)
    80003866:	ffed                	bnez	a5,80003860 <htif_console_getchar+0x4a>
    80003868:	4785                	li	a5,1
    8000386a:	17e2                	sll	a5,a5,0x38
    8000386c:	e41c                	sd	a5,8(s0)
    8000386e:	0ff0000f          	fence
    80003872:	60e2                	ld	ra,24(sp)
    80003874:	6442                	ld	s0,16(sp)
    80003876:	00014797          	auipc	a5,0x14
    8000387a:	8407a523          	sw	zero,-1974(a5) # 800170c0 <htif_lock>
    8000387e:	fff4851b          	addw	a0,s1,-1
    80003882:	64a2                	ld	s1,8(sp)
    80003884:	6105                	add	sp,sp,32
    80003886:	8082                	ret

0000000080003888 <htif_syscall>:
    80003888:	1101                	add	sp,sp,-32
    8000388a:	e426                	sd	s1,8(sp)
    8000388c:	ec06                	sd	ra,24(sp)
    8000388e:	e822                	sd	s0,16(sp)
    80003890:	84aa                	mv	s1,a0
    80003892:	00014717          	auipc	a4,0x14
    80003896:	82e70713          	add	a4,a4,-2002 # 800170c0 <htif_lock>
    8000389a:	56fd                	li	a3,-1
    8000389c:	431c                	lw	a5,0(a4)
    8000389e:	fffd                	bnez	a5,8000389c <htif_syscall+0x14>
    800038a0:	87b6                	mv	a5,a3
    800038a2:	0cf727af          	amoswap.w.aq	a5,a5,(a4)
    800038a6:	2781                	sext.w	a5,a5
    800038a8:	0ff0000f          	fence
    800038ac:	fbe5                	bnez	a5,8000389c <htif_syscall+0x14>
    800038ae:	00007417          	auipc	s0,0x7
    800038b2:	75240413          	add	s0,s0,1874 # 8000b000 <fromhost>
    800038b6:	641c                	ld	a5,8(s0)
    800038b8:	c789                	beqz	a5,800038c2 <htif_syscall+0x3a>
    800038ba:	e6fff0ef          	jal	80003728 <__check_fromhost>
    800038be:	641c                	ld	a5,8(s0)
    800038c0:	ffed                	bnez	a5,800038ba <htif_syscall+0x32>
    800038c2:	e404                	sd	s1,8(s0)
    800038c4:	601c                	ld	a5,0(s0)
    800038c6:	dffd                	beqz	a5,800038c4 <htif_syscall+0x3c>
    800038c8:	00879713          	sll	a4,a5,0x8
    800038cc:	8fd9                	or	a5,a5,a4
    800038ce:	93e1                	srl	a5,a5,0x38
    800038d0:	c781                	beqz	a5,800038d8 <htif_syscall+0x50>
    800038d2:	e57ff0ef          	jal	80003728 <__check_fromhost>
    800038d6:	b7fd                	j	800038c4 <htif_syscall+0x3c>
    800038d8:	00007797          	auipc	a5,0x7
    800038dc:	7207b423          	sd	zero,1832(a5) # 8000b000 <fromhost>
    800038e0:	0ff0000f          	fence
    800038e4:	60e2                	ld	ra,24(sp)
    800038e6:	6442                	ld	s0,16(sp)
    800038e8:	00013797          	auipc	a5,0x13
    800038ec:	7c07ac23          	sw	zero,2008(a5) # 800170c0 <htif_lock>
    800038f0:	64a2                	ld	s1,8(sp)
    800038f2:	6105                	add	sp,sp,32
    800038f4:	8082                	ret

00000000800038f6 <htif_console_putchar>:
    800038f6:	1101                	add	sp,sp,-32
    800038f8:	e426                	sd	s1,8(sp)
    800038fa:	ec06                	sd	ra,24(sp)
    800038fc:	e822                	sd	s0,16(sp)
    800038fe:	84aa                	mv	s1,a0
    80003900:	00013717          	auipc	a4,0x13
    80003904:	7c070713          	add	a4,a4,1984 # 800170c0 <htif_lock>
    80003908:	56fd                	li	a3,-1
    8000390a:	431c                	lw	a5,0(a4)
    8000390c:	fffd                	bnez	a5,8000390a <htif_console_putchar+0x14>
    8000390e:	87b6                	mv	a5,a3
    80003910:	0cf727af          	amoswap.w.aq	a5,a5,(a4)
    80003914:	2781                	sext.w	a5,a5
    80003916:	0ff0000f          	fence
    8000391a:	fbe5                	bnez	a5,8000390a <htif_console_putchar+0x14>
    8000391c:	00007417          	auipc	s0,0x7
    80003920:	6e440413          	add	s0,s0,1764 # 8000b000 <fromhost>
    80003924:	641c                	ld	a5,8(s0)
    80003926:	c789                	beqz	a5,80003930 <htif_console_putchar+0x3a>
    80003928:	e01ff0ef          	jal	80003728 <__check_fromhost>
    8000392c:	641c                	ld	a5,8(s0)
    8000392e:	ffed                	bnez	a5,80003928 <htif_console_putchar+0x32>
    80003930:	10100793          	li	a5,257
    80003934:	17c2                	sll	a5,a5,0x30
    80003936:	8cdd                	or	s1,s1,a5
    80003938:	e404                	sd	s1,8(s0)
    8000393a:	0ff0000f          	fence
    8000393e:	60e2                	ld	ra,24(sp)
    80003940:	6442                	ld	s0,16(sp)
    80003942:	00013797          	auipc	a5,0x13
    80003946:	7607af23          	sw	zero,1918(a5) # 800170c0 <htif_lock>
    8000394a:	64a2                	ld	s1,8(sp)
    8000394c:	6105                	add	sp,sp,32
    8000394e:	8082                	ret

0000000080003950 <htif_poweroff>:
    80003950:	7179                	add	sp,sp,-48
    80003952:	f022                	sd	s0,32(sp)
    80003954:	ec26                	sd	s1,24(sp)
    80003956:	e84a                	sd	s2,16(sp)
    80003958:	e44e                	sd	s3,8(sp)
    8000395a:	f406                	sd	ra,40(sp)
    8000395c:	00013417          	auipc	s0,0x13
    80003960:	76440413          	add	s0,s0,1892 # 800170c0 <htif_lock>
    80003964:	00007497          	auipc	s1,0x7
    80003968:	69c48493          	add	s1,s1,1692 # 8000b000 <fromhost>
    8000396c:	597d                	li	s2,-1
    8000396e:	4985                	li	s3,1
    80003970:	401c                	lw	a5,0(s0)
    80003972:	fffd                	bnez	a5,80003970 <htif_poweroff+0x20>
    80003974:	87ca                	mv	a5,s2
    80003976:	0cf427af          	amoswap.w.aq	a5,a5,(s0)
    8000397a:	2781                	sext.w	a5,a5
    8000397c:	0ff0000f          	fence
    80003980:	fbe5                	bnez	a5,80003970 <htif_poweroff+0x20>
    80003982:	649c                	ld	a5,8(s1)
    80003984:	c789                	beqz	a5,8000398e <htif_poweroff+0x3e>
    80003986:	da3ff0ef          	jal	80003728 <__check_fromhost>
    8000398a:	649c                	ld	a5,8(s1)
    8000398c:	ffed                	bnez	a5,80003986 <htif_poweroff+0x36>
    8000398e:	0134b423          	sd	s3,8(s1)
    80003992:	0ff0000f          	fence
    80003996:	00013797          	auipc	a5,0x13
    8000399a:	7207a523          	sw	zero,1834(a5) # 800170c0 <htif_lock>
    8000399e:	bfc9                	j	80003970 <htif_poweroff+0x20>

00000000800039a0 <query_htif>:
    800039a0:	7139                	add	sp,sp,-64
    800039a2:	00000797          	auipc	a5,0x0
    800039a6:	e1c78793          	add	a5,a5,-484 # 800037be <htif_open>
    800039aa:	e43e                	sd	a5,8(sp)
    800039ac:	00000797          	auipc	a5,0x0
    800039b0:	e2478793          	add	a5,a5,-476 # 800037d0 <htif_prop>
    800039b4:	e83e                	sd	a5,16(sp)
    800039b6:	002c                	add	a1,sp,8
    800039b8:	00000797          	auipc	a5,0x0
    800039bc:	d6078793          	add	a5,a5,-672 # 80003718 <htif_done>
    800039c0:	fc06                	sd	ra,56(sp)
    800039c2:	f002                	sd	zero,32(sp)
    800039c4:	ec3e                	sd	a5,24(sp)
    800039c6:	f40a                	sd	sp,40(sp)
    800039c8:	2b9010ef          	jal	80005480 <fdt_scan>
    800039cc:	70e2                	ld	ra,56(sp)
    800039ce:	6121                	add	sp,sp,64
    800039d0:	8082                	ret

00000000800039d2 <uart_done>:
    800039d2:	419c                	lw	a5,0(a1)
    800039d4:	cb89                	beqz	a5,800039e6 <uart_done+0x14>
    800039d6:	659c                	ld	a5,8(a1)
    800039d8:	c799                	beqz	a5,800039e6 <uart_done+0x14>
    800039da:	00013717          	auipc	a4,0x13
    800039de:	6ee70713          	add	a4,a4,1774 # 800170c8 <uart>
    800039e2:	6314                	ld	a3,0(a4)
    800039e4:	c291                	beqz	a3,800039e8 <uart_done+0x16>
    800039e6:	8082                	ret
    800039e8:	4685                	li	a3,1
    800039ea:	c794                	sw	a3,8(a5)
    800039ec:	e31c                	sd	a5,0(a4)
    800039ee:	c7d4                	sw	a3,12(a5)
    800039f0:	8082                	ret

00000000800039f2 <uart_open>:
    800039f2:	852e                	mv	a0,a1
    800039f4:	4641                	li	a2,16
    800039f6:	4581                	li	a1,0
    800039f8:	4640506f          	j	80008e5c <memset>

00000000800039fc <uart_prop>:
    800039fc:	1101                	add	sp,sp,-32
    800039fe:	e04a                	sd	s2,0(sp)
    80003a00:	00853903          	ld	s2,8(a0)
    80003a04:	e822                	sd	s0,16(sp)
    80003a06:	e426                	sd	s1,8(sp)
    80003a08:	842a                	mv	s0,a0
    80003a0a:	84ae                	mv	s1,a1
    80003a0c:	854a                	mv	a0,s2
    80003a0e:	00007597          	auipc	a1,0x7
    80003a12:	98a58593          	add	a1,a1,-1654 # 8000a398 <softfloat_countLeadingZeros8+0x760>
    80003a16:	ec06                	sd	ra,24(sp)
    80003a18:	49e050ef          	jal	80008eb6 <strcmp>
    80003a1c:	cd19                	beqz	a0,80003a3a <uart_prop+0x3e>
    80003a1e:	00007597          	auipc	a1,0x7
    80003a22:	9aa58593          	add	a1,a1,-1622 # 8000a3c8 <softfloat_countLeadingZeros8+0x790>
    80003a26:	854a                	mv	a0,s2
    80003a28:	48e050ef          	jal	80008eb6 <strcmp>
    80003a2c:	c905                	beqz	a0,80003a5c <uart_prop+0x60>
    80003a2e:	60e2                	ld	ra,24(sp)
    80003a30:	6442                	ld	s0,16(sp)
    80003a32:	64a2                	ld	s1,8(sp)
    80003a34:	6902                	ld	s2,0(sp)
    80003a36:	6105                	add	sp,sp,32
    80003a38:	8082                	ret
    80003a3a:	00007597          	auipc	a1,0x7
    80003a3e:	97e58593          	add	a1,a1,-1666 # 8000a3b8 <softfloat_countLeadingZeros8+0x780>
    80003a42:	8522                	mv	a0,s0
    80003a44:	449010ef          	jal	8000568c <fdt_string_list_index>
    80003a48:	02054663          	bltz	a0,80003a74 <uart_prop+0x78>
    80003a4c:	60e2                	ld	ra,24(sp)
    80003a4e:	6442                	ld	s0,16(sp)
    80003a50:	4785                	li	a5,1
    80003a52:	c09c                	sw	a5,0(s1)
    80003a54:	6902                	ld	s2,0(sp)
    80003a56:	64a2                	ld	s1,8(sp)
    80003a58:	6105                	add	sp,sp,32
    80003a5a:	8082                	ret
    80003a5c:	601c                	ld	a5,0(s0)
    80003a5e:	680c                	ld	a1,16(s0)
    80003a60:	6442                	ld	s0,16(sp)
    80003a62:	60e2                	ld	ra,24(sp)
    80003a64:	6902                	ld	s2,0(sp)
    80003a66:	6388                	ld	a0,0(a5)
    80003a68:	00848613          	add	a2,s1,8
    80003a6c:	64a2                	ld	s1,8(sp)
    80003a6e:	6105                	add	sp,sp,32
    80003a70:	32b0106f          	j	8000559a <fdt_get_address>
    80003a74:	00843903          	ld	s2,8(s0)
    80003a78:	b75d                	j	80003a1e <uart_prop+0x22>

0000000080003a7a <uart_putchar>:
    80003a7a:	00013697          	auipc	a3,0x13
    80003a7e:	64e68693          	add	a3,a3,1614 # 800170c8 <uart>
    80003a82:	6298                	ld	a4,0(a3)
    80003a84:	40a727af          	amoor.w	a5,a0,(a4)
    80003a88:	2781                	sext.w	a5,a5
    80003a8a:	fe07cce3          	bltz	a5,80003a82 <uart_putchar+0x8>
    80003a8e:	8082                	ret

0000000080003a90 <uart_getchar>:
    80003a90:	00013797          	auipc	a5,0x13
    80003a94:	6387b783          	ld	a5,1592(a5) # 800170c8 <uart>
    80003a98:	43dc                	lw	a5,4(a5)
    80003a9a:	2781                	sext.w	a5,a5
    80003a9c:	0007851b          	sext.w	a0,a5
    80003aa0:	0007c363          	bltz	a5,80003aa6 <uart_getchar+0x16>
    80003aa4:	8082                	ret
    80003aa6:	557d                	li	a0,-1
    80003aa8:	8082                	ret

0000000080003aaa <query_uart>:
    80003aaa:	715d                	add	sp,sp,-80
    80003aac:	00000797          	auipc	a5,0x0
    80003ab0:	f4678793          	add	a5,a5,-186 # 800039f2 <uart_open>
    80003ab4:	ec3e                	sd	a5,24(sp)
    80003ab6:	00000797          	auipc	a5,0x0
    80003aba:	f4678793          	add	a5,a5,-186 # 800039fc <uart_prop>
    80003abe:	f03e                	sd	a5,32(sp)
    80003ac0:	00000797          	auipc	a5,0x0
    80003ac4:	f1278793          	add	a5,a5,-238 # 800039d2 <uart_done>
    80003ac8:	f43e                	sd	a5,40(sp)
    80003aca:	082c                	add	a1,sp,24
    80003acc:	003c                	add	a5,sp,8
    80003ace:	e486                	sd	ra,72(sp)
    80003ad0:	f802                	sd	zero,48(sp)
    80003ad2:	fc3e                	sd	a5,56(sp)
    80003ad4:	1ad010ef          	jal	80005480 <fdt_scan>
    80003ad8:	60a6                	ld	ra,72(sp)
    80003ada:	6161                	add	sp,sp,80
    80003adc:	8082                	ret

0000000080003ade <uart16550_done>:
    80003ade:	419c                	lw	a5,0(a1)
    80003ae0:	cb89                	beqz	a5,80003af2 <uart16550_done+0x14>
    80003ae2:	6594                	ld	a3,8(a1)
    80003ae4:	c699                	beqz	a3,80003af2 <uart16550_done+0x14>
    80003ae6:	00013717          	auipc	a4,0x13
    80003aea:	5f270713          	add	a4,a4,1522 # 800170d8 <uart16550>
    80003aee:	631c                	ld	a5,0(a4)
    80003af0:	c391                	beqz	a5,80003af4 <uart16550_done+0x16>
    80003af2:	8082                	ret
    80003af4:	4d90                	lw	a2,24(a1)
    80003af6:	e651                	bnez	a2,80003b82 <uart16550_done+0xa4>
    80003af8:	00009617          	auipc	a2,0x9
    80003afc:	9c062603          	lw	a2,-1600(a2) # 8000c4b8 <uart16550_clock>
    80003b00:	4ddc                	lw	a5,28(a1)
    80003b02:	cb81                	beqz	a5,80003b12 <uart16550_done+0x34>
    80003b04:	0047979b          	sllw	a5,a5,0x4
    80003b08:	02f657bb          	divuw	a5,a2,a5
    80003b0c:	6541                	lui	a0,0x10
    80003b0e:	00a7e663          	bltu	a5,a0,80003b1a <uart16550_done+0x3c>
    80003b12:	000967b7          	lui	a5,0x96
    80003b16:	02f657bb          	divuw	a5,a2,a5
    80003b1a:	49c8                	lw	a0,20(a1)
    80003b1c:	0105e603          	lwu	a2,16(a1)
    80003b20:	4585                	li	a1,1
    80003b22:	00a595bb          	sllw	a1,a1,a0
    80003b26:	96b2                	add	a3,a3,a2
    80003b28:	e314                	sd	a3,0(a4)
    80003b2a:	96ae                	add	a3,a3,a1
    80003b2c:	00068023          	sb	zero,0(a3)
    80003b30:	6310                	ld	a2,0(a4)
    80003b32:	468d                	li	a3,3
    80003b34:	00a696bb          	sllw	a3,a3,a0
    80003b38:	9636                	add	a2,a2,a3
    80003b3a:	f8000813          	li	a6,-128
    80003b3e:	01060023          	sb	a6,0(a2)
    80003b42:	6310                	ld	a2,0(a4)
    80003b44:	0ff7f813          	zext.b	a6,a5
    80003b48:	0087d79b          	srlw	a5,a5,0x8
    80003b4c:	01060023          	sb	a6,0(a2)
    80003b50:	6310                	ld	a2,0(a4)
    80003b52:	0ff7f793          	zext.b	a5,a5
    80003b56:	962e                	add	a2,a2,a1
    80003b58:	00f60023          	sb	a5,0(a2)
    80003b5c:	631c                	ld	a5,0(a4)
    80003b5e:	4609                	li	a2,2
    80003b60:	00a6163b          	sllw	a2,a2,a0
    80003b64:	97b6                	add	a5,a5,a3
    80003b66:	468d                	li	a3,3
    80003b68:	00d78023          	sb	a3,0(a5) # 96000 <_ftext-0x7ff6a000>
    80003b6c:	631c                	ld	a5,0(a4)
    80003b6e:	00013717          	auipc	a4,0x13
    80003b72:	56a72123          	sw	a0,1378(a4) # 800170d0 <uart16550_reg_shift>
    80003b76:	fc700713          	li	a4,-57
    80003b7a:	97b2                	add	a5,a5,a2
    80003b7c:	00e78023          	sb	a4,0(a5)
    80003b80:	8082                	ret
    80003b82:	00009797          	auipc	a5,0x9
    80003b86:	92c7ab23          	sw	a2,-1738(a5) # 8000c4b8 <uart16550_clock>
    80003b8a:	bf9d                	j	80003b00 <uart16550_done+0x22>

0000000080003b8c <uart16550_open>:
    80003b8c:	87ae                	mv	a5,a1
    80003b8e:	1141                	add	sp,sp,-16
    80003b90:	02000613          	li	a2,32
    80003b94:	4581                	li	a1,0
    80003b96:	853e                	mv	a0,a5
    80003b98:	e406                	sd	ra,8(sp)
    80003b9a:	2c2050ef          	jal	80008e5c <memset>
    80003b9e:	60a2                	ld	ra,8(sp)
    80003ba0:	6725                	lui	a4,0x9
    80003ba2:	60070713          	add	a4,a4,1536 # 9600 <_ftext-0x7fff6a00>
    80003ba6:	cd58                	sw	a4,28(a0)
    80003ba8:	0141                	add	sp,sp,16
    80003baa:	8082                	ret

0000000080003bac <uart16550_prop>:
    80003bac:	1101                	add	sp,sp,-32
    80003bae:	e426                	sd	s1,8(sp)
    80003bb0:	6504                	ld	s1,8(a0)
    80003bb2:	e822                	sd	s0,16(sp)
    80003bb4:	e04a                	sd	s2,0(sp)
    80003bb6:	842a                	mv	s0,a0
    80003bb8:	892e                	mv	s2,a1
    80003bba:	8526                	mv	a0,s1
    80003bbc:	00006597          	auipc	a1,0x6
    80003bc0:	7dc58593          	add	a1,a1,2012 # 8000a398 <softfloat_countLeadingZeros8+0x760>
    80003bc4:	ec06                	sd	ra,24(sp)
    80003bc6:	2f0050ef          	jal	80008eb6 <strcmp>
    80003bca:	cd25                	beqz	a0,80003c42 <uart16550_prop+0x96>
    80003bcc:	00006597          	auipc	a1,0x6
    80003bd0:	7fc58593          	add	a1,a1,2044 # 8000a3c8 <softfloat_countLeadingZeros8+0x790>
    80003bd4:	8526                	mv	a0,s1
    80003bd6:	2e0050ef          	jal	80008eb6 <strcmp>
    80003bda:	c921                	beqz	a0,80003c2a <uart16550_prop+0x7e>
    80003bdc:	00007597          	auipc	a1,0x7
    80003be0:	80c58593          	add	a1,a1,-2036 # 8000a3e8 <softfloat_countLeadingZeros8+0x7b0>
    80003be4:	8526                	mv	a0,s1
    80003be6:	2d0050ef          	jal	80008eb6 <strcmp>
    80003bea:	c559                	beqz	a0,80003c78 <uart16550_prop+0xcc>
    80003bec:	00007597          	auipc	a1,0x7
    80003bf0:	80c58593          	add	a1,a1,-2036 # 8000a3f8 <softfloat_countLeadingZeros8+0x7c0>
    80003bf4:	8526                	mv	a0,s1
    80003bf6:	2c0050ef          	jal	80008eb6 <strcmp>
    80003bfa:	c959                	beqz	a0,80003c90 <uart16550_prop+0xe4>
    80003bfc:	00007597          	auipc	a1,0x7
    80003c00:	80c58593          	add	a1,a1,-2036 # 8000a408 <softfloat_countLeadingZeros8+0x7d0>
    80003c04:	8526                	mv	a0,s1
    80003c06:	2b0050ef          	jal	80008eb6 <strcmp>
    80003c0a:	c125                	beqz	a0,80003c6a <uart16550_prop+0xbe>
    80003c0c:	00007597          	auipc	a1,0x7
    80003c10:	80c58593          	add	a1,a1,-2036 # 8000a418 <softfloat_countLeadingZeros8+0x7e0>
    80003c14:	8526                	mv	a0,s1
    80003c16:	2a0050ef          	jal	80008eb6 <strcmp>
    80003c1a:	e131                	bnez	a0,80003c5e <uart16550_prop+0xb2>
    80003c1c:	4581                	li	a1,0
    80003c1e:	8522                	mv	a0,s0
    80003c20:	233010ef          	jal	80005652 <fdt_get_value>
    80003c24:	00a92c23          	sw	a0,24(s2) # 1018 <_ftext-0x7fffefe8>
    80003c28:	a81d                	j	80003c5e <uart16550_prop+0xb2>
    80003c2a:	601c                	ld	a5,0(s0)
    80003c2c:	680c                	ld	a1,16(s0)
    80003c2e:	6442                	ld	s0,16(sp)
    80003c30:	60e2                	ld	ra,24(sp)
    80003c32:	64a2                	ld	s1,8(sp)
    80003c34:	6388                	ld	a0,0(a5)
    80003c36:	00890613          	add	a2,s2,8
    80003c3a:	6902                	ld	s2,0(sp)
    80003c3c:	6105                	add	sp,sp,32
    80003c3e:	15d0106f          	j	8000559a <fdt_get_address>
    80003c42:	00006597          	auipc	a1,0x6
    80003c46:	78e58593          	add	a1,a1,1934 # 8000a3d0 <softfloat_countLeadingZeros8+0x798>
    80003c4a:	8522                	mv	a0,s0
    80003c4c:	241010ef          	jal	8000568c <fdt_string_list_index>
    80003c50:	57fd                	li	a5,-1
    80003c52:	84aa                	mv	s1,a0
    80003c54:	04f50a63          	beq	a0,a5,80003ca8 <uart16550_prop+0xfc>
    80003c58:	4785                	li	a5,1
    80003c5a:	00f92023          	sw	a5,0(s2)
    80003c5e:	60e2                	ld	ra,24(sp)
    80003c60:	6442                	ld	s0,16(sp)
    80003c62:	64a2                	ld	s1,8(sp)
    80003c64:	6902                	ld	s2,0(sp)
    80003c66:	6105                	add	sp,sp,32
    80003c68:	8082                	ret
    80003c6a:	4581                	li	a1,0
    80003c6c:	8522                	mv	a0,s0
    80003c6e:	1e5010ef          	jal	80005652 <fdt_get_value>
    80003c72:	00a92e23          	sw	a0,28(s2)
    80003c76:	b7e5                	j	80003c5e <uart16550_prop+0xb2>
    80003c78:	8522                	mv	a0,s0
    80003c7a:	4581                	li	a1,0
    80003c7c:	1d7010ef          	jal	80005652 <fdt_get_value>
    80003c80:	60e2                	ld	ra,24(sp)
    80003c82:	6442                	ld	s0,16(sp)
    80003c84:	00a92a23          	sw	a0,20(s2)
    80003c88:	64a2                	ld	s1,8(sp)
    80003c8a:	6902                	ld	s2,0(sp)
    80003c8c:	6105                	add	sp,sp,32
    80003c8e:	8082                	ret
    80003c90:	8522                	mv	a0,s0
    80003c92:	4581                	li	a1,0
    80003c94:	1bf010ef          	jal	80005652 <fdt_get_value>
    80003c98:	60e2                	ld	ra,24(sp)
    80003c9a:	6442                	ld	s0,16(sp)
    80003c9c:	00a92823          	sw	a0,16(s2)
    80003ca0:	64a2                	ld	s1,8(sp)
    80003ca2:	6902                	ld	s2,0(sp)
    80003ca4:	6105                	add	sp,sp,32
    80003ca6:	8082                	ret
    80003ca8:	00006597          	auipc	a1,0x6
    80003cac:	73858593          	add	a1,a1,1848 # 8000a3e0 <softfloat_countLeadingZeros8+0x7a8>
    80003cb0:	8522                	mv	a0,s0
    80003cb2:	1db010ef          	jal	8000568c <fdt_string_list_index>
    80003cb6:	fa9511e3          	bne	a0,s1,80003c58 <uart16550_prop+0xac>
    80003cba:	6404                	ld	s1,8(s0)
    80003cbc:	bf01                	j	80003bcc <uart16550_prop+0x20>

0000000080003cbe <uart16550_putchar>:
    80003cbe:	00013797          	auipc	a5,0x13
    80003cc2:	4127a783          	lw	a5,1042(a5) # 800170d0 <uart16550_reg_shift>
    80003cc6:	4715                	li	a4,5
    80003cc8:	00013697          	auipc	a3,0x13
    80003ccc:	4106b683          	ld	a3,1040(a3) # 800170d8 <uart16550>
    80003cd0:	00f7173b          	sllw	a4,a4,a5
    80003cd4:	9736                	add	a4,a4,a3
    80003cd6:	00074783          	lbu	a5,0(a4)
    80003cda:	0207f793          	and	a5,a5,32
    80003cde:	dfe5                	beqz	a5,80003cd6 <uart16550_putchar+0x18>
    80003ce0:	00a68023          	sb	a0,0(a3)
    80003ce4:	8082                	ret

0000000080003ce6 <uart16550_getchar>:
    80003ce6:	00013697          	auipc	a3,0x13
    80003cea:	3ea6a683          	lw	a3,1002(a3) # 800170d0 <uart16550_reg_shift>
    80003cee:	4795                	li	a5,5
    80003cf0:	00013717          	auipc	a4,0x13
    80003cf4:	3e873703          	ld	a4,1000(a4) # 800170d8 <uart16550>
    80003cf8:	00d797bb          	sllw	a5,a5,a3
    80003cfc:	97ba                	add	a5,a5,a4
    80003cfe:	0007c783          	lbu	a5,0(a5)
    80003d02:	8b85                	and	a5,a5,1
    80003d04:	c781                	beqz	a5,80003d0c <uart16550_getchar+0x26>
    80003d06:	00074503          	lbu	a0,0(a4)
    80003d0a:	8082                	ret
    80003d0c:	557d                	li	a0,-1
    80003d0e:	8082                	ret

0000000080003d10 <query_uart16550>:
    80003d10:	711d                	add	sp,sp,-96
    80003d12:	00000797          	auipc	a5,0x0
    80003d16:	e7a78793          	add	a5,a5,-390 # 80003b8c <uart16550_open>
    80003d1a:	f43e                	sd	a5,40(sp)
    80003d1c:	00000797          	auipc	a5,0x0
    80003d20:	e9078793          	add	a5,a5,-368 # 80003bac <uart16550_prop>
    80003d24:	f83e                	sd	a5,48(sp)
    80003d26:	00000797          	auipc	a5,0x0
    80003d2a:	db878793          	add	a5,a5,-584 # 80003ade <uart16550_done>
    80003d2e:	fc3e                	sd	a5,56(sp)
    80003d30:	102c                	add	a1,sp,40
    80003d32:	003c                	add	a5,sp,8
    80003d34:	ec86                	sd	ra,88(sp)
    80003d36:	e082                	sd	zero,64(sp)
    80003d38:	e4be                	sd	a5,72(sp)
    80003d3a:	746010ef          	jal	80005480 <fdt_scan>
    80003d3e:	60e6                	ld	ra,88(sp)
    80003d40:	6125                	add	sp,sp,96
    80003d42:	8082                	ret

0000000080003d44 <uart_litex_done>:
    80003d44:	419c                	lw	a5,0(a1)
    80003d46:	cb89                	beqz	a5,80003d58 <uart_litex_done+0x14>
    80003d48:	659c                	ld	a5,8(a1)
    80003d4a:	c799                	beqz	a5,80003d58 <uart_litex_done+0x14>
    80003d4c:	00013717          	auipc	a4,0x13
    80003d50:	39470713          	add	a4,a4,916 # 800170e0 <uart_litex>
    80003d54:	6314                	ld	a3,0(a4)
    80003d56:	c291                	beqz	a3,80003d5a <uart_litex_done+0x16>
    80003d58:	8082                	ret
    80003d5a:	e31c                	sd	a5,0(a4)
    80003d5c:	8082                	ret

0000000080003d5e <uart_litex_open>:
    80003d5e:	852e                	mv	a0,a1
    80003d60:	4641                	li	a2,16
    80003d62:	4581                	li	a1,0
    80003d64:	0f80506f          	j	80008e5c <memset>

0000000080003d68 <uart_litex_prop>:
    80003d68:	7179                	add	sp,sp,-48
    80003d6a:	e84a                	sd	s2,16(sp)
    80003d6c:	00853903          	ld	s2,8(a0) # 10008 <_ftext-0x7ffefff8>
    80003d70:	f022                	sd	s0,32(sp)
    80003d72:	ec26                	sd	s1,24(sp)
    80003d74:	842a                	mv	s0,a0
    80003d76:	84ae                	mv	s1,a1
    80003d78:	854a                	mv	a0,s2
    80003d7a:	00006597          	auipc	a1,0x6
    80003d7e:	61e58593          	add	a1,a1,1566 # 8000a398 <softfloat_countLeadingZeros8+0x760>
    80003d82:	f406                	sd	ra,40(sp)
    80003d84:	e44e                	sd	s3,8(sp)
    80003d86:	130050ef          	jal	80008eb6 <strcmp>
    80003d8a:	ed05                	bnez	a0,80003dc2 <uart_litex_prop+0x5a>
    80003d8c:	01043983          	ld	s3,16(s0)
    80003d90:	00006597          	auipc	a1,0x6
    80003d94:	69858593          	add	a1,a1,1688 # 8000a428 <softfloat_countLeadingZeros8+0x7f0>
    80003d98:	854e                	mv	a0,s3
    80003d9a:	11c050ef          	jal	80008eb6 <strcmp>
    80003d9e:	e911                	bnez	a0,80003db2 <uart_litex_prop+0x4a>
    80003da0:	4785                	li	a5,1
    80003da2:	c09c                	sw	a5,0(s1)
    80003da4:	70a2                	ld	ra,40(sp)
    80003da6:	7402                	ld	s0,32(sp)
    80003da8:	64e2                	ld	s1,24(sp)
    80003daa:	6942                	ld	s2,16(sp)
    80003dac:	69a2                	ld	s3,8(sp)
    80003dae:	6145                	add	sp,sp,48
    80003db0:	8082                	ret
    80003db2:	00006597          	auipc	a1,0x6
    80003db6:	68658593          	add	a1,a1,1670 # 8000a438 <softfloat_countLeadingZeros8+0x800>
    80003dba:	854e                	mv	a0,s3
    80003dbc:	0fa050ef          	jal	80008eb6 <strcmp>
    80003dc0:	d165                	beqz	a0,80003da0 <uart_litex_prop+0x38>
    80003dc2:	00006597          	auipc	a1,0x6
    80003dc6:	60658593          	add	a1,a1,1542 # 8000a3c8 <softfloat_countLeadingZeros8+0x790>
    80003dca:	854a                	mv	a0,s2
    80003dcc:	0ea050ef          	jal	80008eb6 <strcmp>
    80003dd0:	f971                	bnez	a0,80003da4 <uart_litex_prop+0x3c>
    80003dd2:	601c                	ld	a5,0(s0)
    80003dd4:	680c                	ld	a1,16(s0)
    80003dd6:	7402                	ld	s0,32(sp)
    80003dd8:	70a2                	ld	ra,40(sp)
    80003dda:	6942                	ld	s2,16(sp)
    80003ddc:	69a2                	ld	s3,8(sp)
    80003dde:	6388                	ld	a0,0(a5)
    80003de0:	00848613          	add	a2,s1,8
    80003de4:	64e2                	ld	s1,24(sp)
    80003de6:	6145                	add	sp,sp,48
    80003de8:	7b20106f          	j	8000559a <fdt_get_address>

0000000080003dec <uart_litex_putchar>:
    80003dec:	00013717          	auipc	a4,0x13
    80003df0:	2f473703          	ld	a4,756(a4) # 800170e0 <uart_litex>
    80003df4:	435c                	lw	a5,4(a4)
    80003df6:	8b85                	and	a5,a5,1
    80003df8:	fff5                	bnez	a5,80003df4 <uart_litex_putchar+0x8>
    80003dfa:	2501                	sext.w	a0,a0
    80003dfc:	c308                	sw	a0,0(a4)
    80003dfe:	8082                	ret

0000000080003e00 <uart_litex_getchar>:
    80003e00:	00013717          	auipc	a4,0x13
    80003e04:	2e073703          	ld	a4,736(a4) # 800170e0 <uart_litex>
    80003e08:	471c                	lw	a5,8(a4)
    80003e0a:	8b85                	and	a5,a5,1
    80003e0c:	e789                	bnez	a5,80003e16 <uart_litex_getchar+0x16>
    80003e0e:	4789                	li	a5,2
    80003e10:	4308                	lw	a0,0(a4)
    80003e12:	cb1c                	sw	a5,16(a4)
    80003e14:	8082                	ret
    80003e16:	557d                	li	a0,-1
    80003e18:	8082                	ret

0000000080003e1a <query_uart_litex>:
    80003e1a:	715d                	add	sp,sp,-80
    80003e1c:	00000797          	auipc	a5,0x0
    80003e20:	f4278793          	add	a5,a5,-190 # 80003d5e <uart_litex_open>
    80003e24:	ec3e                	sd	a5,24(sp)
    80003e26:	00000797          	auipc	a5,0x0
    80003e2a:	f4278793          	add	a5,a5,-190 # 80003d68 <uart_litex_prop>
    80003e2e:	f03e                	sd	a5,32(sp)
    80003e30:	00000797          	auipc	a5,0x0
    80003e34:	f1478793          	add	a5,a5,-236 # 80003d44 <uart_litex_done>
    80003e38:	f43e                	sd	a5,40(sp)
    80003e3a:	082c                	add	a1,sp,24
    80003e3c:	003c                	add	a5,sp,8
    80003e3e:	e486                	sd	ra,72(sp)
    80003e40:	f802                	sd	zero,48(sp)
    80003e42:	fc3e                	sd	a5,56(sp)
    80003e44:	63c010ef          	jal	80005480 <fdt_scan>
    80003e48:	60a6                	ld	ra,72(sp)
    80003e4a:	6161                	add	sp,sp,80
    80003e4c:	8082                	ret

0000000080003e4e <finisher_done>:
    80003e4e:	419c                	lw	a5,0(a1)
    80003e50:	cb89                	beqz	a5,80003e62 <finisher_done+0x14>
    80003e52:	659c                	ld	a5,8(a1)
    80003e54:	c799                	beqz	a5,80003e62 <finisher_done+0x14>
    80003e56:	00013717          	auipc	a4,0x13
    80003e5a:	29270713          	add	a4,a4,658 # 800170e8 <finisher>
    80003e5e:	6314                	ld	a3,0(a4)
    80003e60:	c291                	beqz	a3,80003e64 <finisher_done+0x16>
    80003e62:	8082                	ret
    80003e64:	e31c                	sd	a5,0(a4)
    80003e66:	8082                	ret

0000000080003e68 <finisher_open>:
    80003e68:	852e                	mv	a0,a1
    80003e6a:	4641                	li	a2,16
    80003e6c:	4581                	li	a1,0
    80003e6e:	7ef0406f          	j	80008e5c <memset>

0000000080003e72 <finisher_prop>:
    80003e72:	1101                	add	sp,sp,-32
    80003e74:	e04a                	sd	s2,0(sp)
    80003e76:	00853903          	ld	s2,8(a0)
    80003e7a:	e822                	sd	s0,16(sp)
    80003e7c:	e426                	sd	s1,8(sp)
    80003e7e:	842a                	mv	s0,a0
    80003e80:	84ae                	mv	s1,a1
    80003e82:	854a                	mv	a0,s2
    80003e84:	00006597          	auipc	a1,0x6
    80003e88:	51458593          	add	a1,a1,1300 # 8000a398 <softfloat_countLeadingZeros8+0x760>
    80003e8c:	ec06                	sd	ra,24(sp)
    80003e8e:	028050ef          	jal	80008eb6 <strcmp>
    80003e92:	cd19                	beqz	a0,80003eb0 <finisher_prop+0x3e>
    80003e94:	00006597          	auipc	a1,0x6
    80003e98:	53458593          	add	a1,a1,1332 # 8000a3c8 <softfloat_countLeadingZeros8+0x790>
    80003e9c:	854a                	mv	a0,s2
    80003e9e:	018050ef          	jal	80008eb6 <strcmp>
    80003ea2:	c905                	beqz	a0,80003ed2 <finisher_prop+0x60>
    80003ea4:	60e2                	ld	ra,24(sp)
    80003ea6:	6442                	ld	s0,16(sp)
    80003ea8:	64a2                	ld	s1,8(sp)
    80003eaa:	6902                	ld	s2,0(sp)
    80003eac:	6105                	add	sp,sp,32
    80003eae:	8082                	ret
    80003eb0:	00006597          	auipc	a1,0x6
    80003eb4:	59858593          	add	a1,a1,1432 # 8000a448 <softfloat_countLeadingZeros8+0x810>
    80003eb8:	8522                	mv	a0,s0
    80003eba:	7d2010ef          	jal	8000568c <fdt_string_list_index>
    80003ebe:	02054663          	bltz	a0,80003eea <finisher_prop+0x78>
    80003ec2:	60e2                	ld	ra,24(sp)
    80003ec4:	6442                	ld	s0,16(sp)
    80003ec6:	4785                	li	a5,1
    80003ec8:	c09c                	sw	a5,0(s1)
    80003eca:	6902                	ld	s2,0(sp)
    80003ecc:	64a2                	ld	s1,8(sp)
    80003ece:	6105                	add	sp,sp,32
    80003ed0:	8082                	ret
    80003ed2:	601c                	ld	a5,0(s0)
    80003ed4:	680c                	ld	a1,16(s0)
    80003ed6:	6442                	ld	s0,16(sp)
    80003ed8:	60e2                	ld	ra,24(sp)
    80003eda:	6902                	ld	s2,0(sp)
    80003edc:	6388                	ld	a0,0(a5)
    80003ede:	00848613          	add	a2,s1,8
    80003ee2:	64a2                	ld	s1,8(sp)
    80003ee4:	6105                	add	sp,sp,32
    80003ee6:	6b40106f          	j	8000559a <fdt_get_address>
    80003eea:	00843903          	ld	s2,8(s0)
    80003eee:	b75d                	j	80003e94 <finisher_prop+0x22>

0000000080003ef0 <finisher_exit>:
    80003ef0:	00013797          	auipc	a5,0x13
    80003ef4:	1f87b783          	ld	a5,504(a5) # 800170e8 <finisher>
    80003ef8:	cf99                	beqz	a5,80003f16 <finisher_exit+0x26>
    80003efa:	e511                	bnez	a0,80003f06 <finisher_exit+0x16>
    80003efc:	6715                	lui	a4,0x5
    80003efe:	55570713          	add	a4,a4,1365 # 5555 <_ftext-0x7fffaaab>
    80003f02:	c398                	sw	a4,0(a5)
    80003f04:	8082                	ret
    80003f06:	670d                	lui	a4,0x3
    80003f08:	0105151b          	sllw	a0,a0,0x10
    80003f0c:	33370713          	add	a4,a4,819 # 3333 <_ftext-0x7fffcccd>
    80003f10:	8d59                	or	a0,a0,a4
    80003f12:	2501                	sext.w	a0,a0
    80003f14:	c388                	sw	a0,0(a5)
    80003f16:	8082                	ret

0000000080003f18 <query_finisher>:
    80003f18:	715d                	add	sp,sp,-80
    80003f1a:	00000797          	auipc	a5,0x0
    80003f1e:	f4e78793          	add	a5,a5,-178 # 80003e68 <finisher_open>
    80003f22:	ec3e                	sd	a5,24(sp)
    80003f24:	00000797          	auipc	a5,0x0
    80003f28:	f4e78793          	add	a5,a5,-178 # 80003e72 <finisher_prop>
    80003f2c:	f03e                	sd	a5,32(sp)
    80003f2e:	00000797          	auipc	a5,0x0
    80003f32:	f2078793          	add	a5,a5,-224 # 80003e4e <finisher_done>
    80003f36:	f43e                	sd	a5,40(sp)
    80003f38:	082c                	add	a1,sp,24
    80003f3a:	003c                	add	a5,sp,8
    80003f3c:	e486                	sd	ra,72(sp)
    80003f3e:	f802                	sd	zero,48(sp)
    80003f40:	fc3e                	sd	a5,56(sp)
    80003f42:	53e010ef          	jal	80005480 <fdt_scan>
    80003f46:	60a6                	ld	ra,72(sp)
    80003f48:	6161                	add	sp,sp,80
    80003f4a:	8082                	ret

0000000080003f4c <__riscv_flush_icache>:
    80003f4c:	0000100f          	fence.i
    80003f50:	8082                	ret

0000000080003f52 <get_f32_reg>:
    80003f52:	e0000553          	fmv.x.w	a0,ft0
    80003f56:	00028067          	jr	t0
    80003f5a:	e0008553          	fmv.x.w	a0,ft1
    80003f5e:	00028067          	jr	t0
    80003f62:	e0010553          	fmv.x.w	a0,ft2
    80003f66:	00028067          	jr	t0
    80003f6a:	e0018553          	fmv.x.w	a0,ft3
    80003f6e:	00028067          	jr	t0
    80003f72:	e0020553          	fmv.x.w	a0,ft4
    80003f76:	00028067          	jr	t0
    80003f7a:	e0028553          	fmv.x.w	a0,ft5
    80003f7e:	00028067          	jr	t0
    80003f82:	e0030553          	fmv.x.w	a0,ft6
    80003f86:	00028067          	jr	t0
    80003f8a:	e0038553          	fmv.x.w	a0,ft7
    80003f8e:	00028067          	jr	t0
    80003f92:	e0040553          	fmv.x.w	a0,fs0
    80003f96:	00028067          	jr	t0
    80003f9a:	e0048553          	fmv.x.w	a0,fs1
    80003f9e:	00028067          	jr	t0
    80003fa2:	e0050553          	fmv.x.w	a0,fa0
    80003fa6:	00028067          	jr	t0
    80003faa:	e0058553          	fmv.x.w	a0,fa1
    80003fae:	00028067          	jr	t0
    80003fb2:	e0060553          	fmv.x.w	a0,fa2
    80003fb6:	00028067          	jr	t0
    80003fba:	e0068553          	fmv.x.w	a0,fa3
    80003fbe:	00028067          	jr	t0
    80003fc2:	e0070553          	fmv.x.w	a0,fa4
    80003fc6:	00028067          	jr	t0
    80003fca:	e0078553          	fmv.x.w	a0,fa5
    80003fce:	00028067          	jr	t0
    80003fd2:	e0080553          	fmv.x.w	a0,fa6
    80003fd6:	00028067          	jr	t0
    80003fda:	e0088553          	fmv.x.w	a0,fa7
    80003fde:	00028067          	jr	t0
    80003fe2:	e0090553          	fmv.x.w	a0,fs2
    80003fe6:	00028067          	jr	t0
    80003fea:	e0098553          	fmv.x.w	a0,fs3
    80003fee:	00028067          	jr	t0
    80003ff2:	e00a0553          	fmv.x.w	a0,fs4
    80003ff6:	00028067          	jr	t0
    80003ffa:	e00a8553          	fmv.x.w	a0,fs5
    80003ffe:	00028067          	jr	t0
    80004002:	e00b0553          	fmv.x.w	a0,fs6
    80004006:	00028067          	jr	t0
    8000400a:	e00b8553          	fmv.x.w	a0,fs7
    8000400e:	00028067          	jr	t0
    80004012:	e00c0553          	fmv.x.w	a0,fs8
    80004016:	00028067          	jr	t0
    8000401a:	e00c8553          	fmv.x.w	a0,fs9
    8000401e:	00028067          	jr	t0
    80004022:	e00d0553          	fmv.x.w	a0,fs10
    80004026:	00028067          	jr	t0
    8000402a:	e00d8553          	fmv.x.w	a0,fs11
    8000402e:	00028067          	jr	t0
    80004032:	e00e0553          	fmv.x.w	a0,ft8
    80004036:	00028067          	jr	t0
    8000403a:	e00e8553          	fmv.x.w	a0,ft9
    8000403e:	00028067          	jr	t0
    80004042:	e00f0553          	fmv.x.w	a0,ft10
    80004046:	00028067          	jr	t0
    8000404a:	e00f8553          	fmv.x.w	a0,ft11
    8000404e:	00028067          	jr	t0

0000000080004052 <put_f32_reg>:
    80004052:	f0050053          	fmv.w.x	ft0,a0
    80004056:	00028067          	jr	t0
    8000405a:	f00500d3          	fmv.w.x	ft1,a0
    8000405e:	00028067          	jr	t0
    80004062:	f0050153          	fmv.w.x	ft2,a0
    80004066:	00028067          	jr	t0
    8000406a:	f00501d3          	fmv.w.x	ft3,a0
    8000406e:	00028067          	jr	t0
    80004072:	f0050253          	fmv.w.x	ft4,a0
    80004076:	00028067          	jr	t0
    8000407a:	f00502d3          	fmv.w.x	ft5,a0
    8000407e:	00028067          	jr	t0
    80004082:	f0050353          	fmv.w.x	ft6,a0
    80004086:	00028067          	jr	t0
    8000408a:	f00503d3          	fmv.w.x	ft7,a0
    8000408e:	00028067          	jr	t0
    80004092:	f0050453          	fmv.w.x	fs0,a0
    80004096:	00028067          	jr	t0
    8000409a:	f00504d3          	fmv.w.x	fs1,a0
    8000409e:	00028067          	jr	t0
    800040a2:	f0050553          	fmv.w.x	fa0,a0
    800040a6:	00028067          	jr	t0
    800040aa:	f00505d3          	fmv.w.x	fa1,a0
    800040ae:	00028067          	jr	t0
    800040b2:	f0050653          	fmv.w.x	fa2,a0
    800040b6:	00028067          	jr	t0
    800040ba:	f00506d3          	fmv.w.x	fa3,a0
    800040be:	00028067          	jr	t0
    800040c2:	f0050753          	fmv.w.x	fa4,a0
    800040c6:	00028067          	jr	t0
    800040ca:	f00507d3          	fmv.w.x	fa5,a0
    800040ce:	00028067          	jr	t0
    800040d2:	f0050853          	fmv.w.x	fa6,a0
    800040d6:	00028067          	jr	t0
    800040da:	f00508d3          	fmv.w.x	fa7,a0
    800040de:	00028067          	jr	t0
    800040e2:	f0050953          	fmv.w.x	fs2,a0
    800040e6:	00028067          	jr	t0
    800040ea:	f00509d3          	fmv.w.x	fs3,a0
    800040ee:	00028067          	jr	t0
    800040f2:	f0050a53          	fmv.w.x	fs4,a0
    800040f6:	00028067          	jr	t0
    800040fa:	f0050ad3          	fmv.w.x	fs5,a0
    800040fe:	00028067          	jr	t0
    80004102:	f0050b53          	fmv.w.x	fs6,a0
    80004106:	00028067          	jr	t0
    8000410a:	f0050bd3          	fmv.w.x	fs7,a0
    8000410e:	00028067          	jr	t0
    80004112:	f0050c53          	fmv.w.x	fs8,a0
    80004116:	00028067          	jr	t0
    8000411a:	f0050cd3          	fmv.w.x	fs9,a0
    8000411e:	00028067          	jr	t0
    80004122:	f0050d53          	fmv.w.x	fs10,a0
    80004126:	00028067          	jr	t0
    8000412a:	f0050dd3          	fmv.w.x	fs11,a0
    8000412e:	00028067          	jr	t0
    80004132:	f0050e53          	fmv.w.x	ft8,a0
    80004136:	00028067          	jr	t0
    8000413a:	f0050ed3          	fmv.w.x	ft9,a0
    8000413e:	00028067          	jr	t0
    80004142:	f0050f53          	fmv.w.x	ft10,a0
    80004146:	00028067          	jr	t0
    8000414a:	f0050fd3          	fmv.w.x	ft11,a0
    8000414e:	00028067          	jr	t0

0000000080004152 <get_f64_reg>:
    80004152:	e2000553          	fmv.x.d	a0,ft0
    80004156:	00028067          	jr	t0
    8000415a:	e2008553          	fmv.x.d	a0,ft1
    8000415e:	00028067          	jr	t0
    80004162:	e2010553          	fmv.x.d	a0,ft2
    80004166:	00028067          	jr	t0
    8000416a:	e2018553          	fmv.x.d	a0,ft3
    8000416e:	00028067          	jr	t0
    80004172:	e2020553          	fmv.x.d	a0,ft4
    80004176:	00028067          	jr	t0
    8000417a:	e2028553          	fmv.x.d	a0,ft5
    8000417e:	00028067          	jr	t0
    80004182:	e2030553          	fmv.x.d	a0,ft6
    80004186:	00028067          	jr	t0
    8000418a:	e2038553          	fmv.x.d	a0,ft7
    8000418e:	00028067          	jr	t0
    80004192:	e2040553          	fmv.x.d	a0,fs0
    80004196:	00028067          	jr	t0
    8000419a:	e2048553          	fmv.x.d	a0,fs1
    8000419e:	00028067          	jr	t0
    800041a2:	e2050553          	fmv.x.d	a0,fa0
    800041a6:	00028067          	jr	t0
    800041aa:	e2058553          	fmv.x.d	a0,fa1
    800041ae:	00028067          	jr	t0
    800041b2:	e2060553          	fmv.x.d	a0,fa2
    800041b6:	00028067          	jr	t0
    800041ba:	e2068553          	fmv.x.d	a0,fa3
    800041be:	00028067          	jr	t0
    800041c2:	e2070553          	fmv.x.d	a0,fa4
    800041c6:	00028067          	jr	t0
    800041ca:	e2078553          	fmv.x.d	a0,fa5
    800041ce:	00028067          	jr	t0
    800041d2:	e2080553          	fmv.x.d	a0,fa6
    800041d6:	00028067          	jr	t0
    800041da:	e2088553          	fmv.x.d	a0,fa7
    800041de:	00028067          	jr	t0
    800041e2:	e2090553          	fmv.x.d	a0,fs2
    800041e6:	00028067          	jr	t0
    800041ea:	e2098553          	fmv.x.d	a0,fs3
    800041ee:	00028067          	jr	t0
    800041f2:	e20a0553          	fmv.x.d	a0,fs4
    800041f6:	00028067          	jr	t0
    800041fa:	e20a8553          	fmv.x.d	a0,fs5
    800041fe:	00028067          	jr	t0
    80004202:	e20b0553          	fmv.x.d	a0,fs6
    80004206:	00028067          	jr	t0
    8000420a:	e20b8553          	fmv.x.d	a0,fs7
    8000420e:	00028067          	jr	t0
    80004212:	e20c0553          	fmv.x.d	a0,fs8
    80004216:	00028067          	jr	t0
    8000421a:	e20c8553          	fmv.x.d	a0,fs9
    8000421e:	00028067          	jr	t0
    80004222:	e20d0553          	fmv.x.d	a0,fs10
    80004226:	00028067          	jr	t0
    8000422a:	e20d8553          	fmv.x.d	a0,fs11
    8000422e:	00028067          	jr	t0
    80004232:	e20e0553          	fmv.x.d	a0,ft8
    80004236:	00028067          	jr	t0
    8000423a:	e20e8553          	fmv.x.d	a0,ft9
    8000423e:	00028067          	jr	t0
    80004242:	e20f0553          	fmv.x.d	a0,ft10
    80004246:	00028067          	jr	t0
    8000424a:	e20f8553          	fmv.x.d	a0,ft11
    8000424e:	00028067          	jr	t0

0000000080004252 <put_f64_reg>:
    80004252:	f2050053          	fmv.d.x	ft0,a0
    80004256:	00028067          	jr	t0
    8000425a:	f20500d3          	fmv.d.x	ft1,a0
    8000425e:	00028067          	jr	t0
    80004262:	f2050153          	fmv.d.x	ft2,a0
    80004266:	00028067          	jr	t0
    8000426a:	f20501d3          	fmv.d.x	ft3,a0
    8000426e:	00028067          	jr	t0
    80004272:	f2050253          	fmv.d.x	ft4,a0
    80004276:	00028067          	jr	t0
    8000427a:	f20502d3          	fmv.d.x	ft5,a0
    8000427e:	00028067          	jr	t0
    80004282:	f2050353          	fmv.d.x	ft6,a0
    80004286:	00028067          	jr	t0
    8000428a:	f20503d3          	fmv.d.x	ft7,a0
    8000428e:	00028067          	jr	t0
    80004292:	f2050453          	fmv.d.x	fs0,a0
    80004296:	00028067          	jr	t0
    8000429a:	f20504d3          	fmv.d.x	fs1,a0
    8000429e:	00028067          	jr	t0
    800042a2:	f2050553          	fmv.d.x	fa0,a0
    800042a6:	00028067          	jr	t0
    800042aa:	f20505d3          	fmv.d.x	fa1,a0
    800042ae:	00028067          	jr	t0
    800042b2:	f2050653          	fmv.d.x	fa2,a0
    800042b6:	00028067          	jr	t0
    800042ba:	f20506d3          	fmv.d.x	fa3,a0
    800042be:	00028067          	jr	t0
    800042c2:	f2050753          	fmv.d.x	fa4,a0
    800042c6:	00028067          	jr	t0
    800042ca:	f20507d3          	fmv.d.x	fa5,a0
    800042ce:	00028067          	jr	t0
    800042d2:	f2050853          	fmv.d.x	fa6,a0
    800042d6:	00028067          	jr	t0
    800042da:	f20508d3          	fmv.d.x	fa7,a0
    800042de:	00028067          	jr	t0
    800042e2:	f2050953          	fmv.d.x	fs2,a0
    800042e6:	00028067          	jr	t0
    800042ea:	f20509d3          	fmv.d.x	fs3,a0
    800042ee:	00028067          	jr	t0
    800042f2:	f2050a53          	fmv.d.x	fs4,a0
    800042f6:	00028067          	jr	t0
    800042fa:	f2050ad3          	fmv.d.x	fs5,a0
    800042fe:	00028067          	jr	t0
    80004302:	f2050b53          	fmv.d.x	fs6,a0
    80004306:	00028067          	jr	t0
    8000430a:	f2050bd3          	fmv.d.x	fs7,a0
    8000430e:	00028067          	jr	t0
    80004312:	f2050c53          	fmv.d.x	fs8,a0
    80004316:	00028067          	jr	t0
    8000431a:	f2050cd3          	fmv.d.x	fs9,a0
    8000431e:	00028067          	jr	t0
    80004322:	f2050d53          	fmv.d.x	fs10,a0
    80004326:	00028067          	jr	t0
    8000432a:	f2050dd3          	fmv.d.x	fs11,a0
    8000432e:	00028067          	jr	t0
    80004332:	f2050e53          	fmv.d.x	ft8,a0
    80004336:	00028067          	jr	t0
    8000433a:	f2050ed3          	fmv.d.x	ft9,a0
    8000433e:	00028067          	jr	t0
    80004342:	f2050f53          	fmv.d.x	ft10,a0
    80004346:	00028067          	jr	t0
    8000434a:	f2050fd3          	fmv.d.x	ft11,a0
    8000434e:	00028067          	jr	t0

0000000080004352 <hart_open>:
    80004352:	619c                	ld	a5,0(a1)
    80004354:	c799                	beqz	a5,80004362 <hart_open+0x10>
    80004356:	699c                	ld	a5,16(a1)
    80004358:	c391                	beqz	a5,8000435c <hart_open+0xa>
    8000435a:	8082                	ret
    8000435c:	0005bc23          	sd	zero,24(a1)
    80004360:	8082                	ret
    80004362:	57fd                	li	a5,-1
    80004364:	c59c                	sw	a5,8(a1)
    80004366:	bfc5                	j	80004356 <hart_open+0x4>

0000000080004368 <hart_close>:
    80004368:	619c                	ld	a5,0(a1)
    8000436a:	00a78763          	beq	a5,a0,80004378 <hart_close+0x10>
    8000436e:	699c                	ld	a5,16(a1)
    80004370:	00a78963          	beq	a5,a0,80004382 <hart_close+0x1a>
    80004374:	4501                	li	a0,0
    80004376:	8082                	ret
    80004378:	699c                	ld	a5,16(a1)
    8000437a:	0005b023          	sd	zero,0(a1)
    8000437e:	fea79be3          	bne	a5,a0,80004374 <hart_close+0xc>
    80004382:	0005b823          	sd	zero,16(a1)
    80004386:	4501                	li	a0,0
    80004388:	8082                	ret

000000008000438a <clint_open>:
    8000438a:	0005a023          	sw	zero,0(a1)
    8000438e:	0005b423          	sd	zero,8(a1)
    80004392:	0005b823          	sd	zero,16(a1)
    80004396:	8082                	ret

0000000080004398 <plic_open>:
    80004398:	0005a023          	sw	zero,0(a1)
    8000439c:	0005b423          	sd	zero,8(a1)
    800043a0:	0005b823          	sd	zero,16(a1)
    800043a4:	8082                	ret

00000000800043a6 <plic_redact>:
    800043a6:	419c                	lw	a5,0(a1)
    800043a8:	cfa9                	beqz	a5,80004402 <plic_redact+0x5c>
    800043aa:	4d9c                	lw	a5,24(a1)
    800043ac:	4705                	li	a4,1
    800043ae:	cdd8                	sw	a4,28(a1)
    800043b0:	41f7d61b          	sraw	a2,a5,0x1f
    800043b4:	01e6561b          	srlw	a2,a2,0x1e
    800043b8:	9e3d                	addw	a2,a2,a5
    800043ba:	4026561b          	sraw	a2,a2,0x2
    800043be:	060a                	sll	a2,a2,0x2
    800043c0:	6994                	ld	a3,16(a1)
    800043c2:	04c05063          	blez	a2,80004402 <plic_redact+0x5c>
    800043c6:	ff010537          	lui	a0,0xff010
    800043ca:	00ff05b7          	lui	a1,0xff0
    800043ce:	9636                	add	a2,a2,a3
    800043d0:	f0050513          	add	a0,a0,-256 # ffffffffff00ff00 <_end+0xffffffff7eff7f00>
    800043d4:	0ff58593          	add	a1,a1,255 # ff00ff <_ftext-0x7f00ff01>
    800043d8:	000b0837          	lui	a6,0xb0
    800043dc:	58fd                	li	a7,-1
    800043de:	42d8                	lw	a4,4(a3)
    800043e0:	0087179b          	sllw	a5,a4,0x8
    800043e4:	0087571b          	srlw	a4,a4,0x8
    800043e8:	8fe9                	and	a5,a5,a0
    800043ea:	8f6d                	and	a4,a4,a1
    800043ec:	8fd9                	or	a5,a5,a4
    800043ee:	2781                	sext.w	a5,a5
    800043f0:	01079463          	bne	a5,a6,800043f8 <plic_redact+0x52>
    800043f4:	0116a223          	sw	a7,4(a3)
    800043f8:	06a1                	add	a3,a3,8
    800043fa:	40d607b3          	sub	a5,a2,a3
    800043fe:	fef040e3          	bgtz	a5,800043de <plic_redact+0x38>
    80004402:	8082                	ret

0000000080004404 <compat_open>:
    80004404:	459c                	lw	a5,8(a1)
    80004406:	2785                	addw	a5,a5,1
    80004408:	c59c                	sw	a5,8(a1)
    8000440a:	8082                	ret

000000008000440c <compat_close>:
    8000440c:	459c                	lw	a5,8(a1)
    8000440e:	45d8                	lw	a4,12(a1)
    80004410:	4501                	li	a0,0
    80004412:	fff7869b          	addw	a3,a5,-1
    80004416:	c594                	sw	a3,8(a1)
    80004418:	00f70363          	beq	a4,a5,8000441e <compat_close+0x12>
    8000441c:	8082                	ret
    8000441e:	3e700793          	li	a5,999
    80004422:	c5dc                	sw	a5,12(a1)
    80004424:	557d                	li	a0,-1
    80004426:	8082                	ret

0000000080004428 <chosen_close>:
    80004428:	619c                	ld	a5,0(a1)
    8000442a:	c399                	beqz	a5,80004430 <chosen_close+0x8>
    8000442c:	00a78463          	beq	a5,a0,80004434 <chosen_close+0xc>
    80004430:	4501                	li	a0,0
    80004432:	8082                	ret
    80004434:	0005b023          	sd	zero,0(a1)
    80004438:	4501                	li	a0,0
    8000443a:	8082                	ret

000000008000443c <hart_filter_open>:
    8000443c:	57fd                	li	a5,-1
    8000443e:	1782                	sll	a5,a5,0x20
    80004440:	0005b423          	sd	zero,8(a1)
    80004444:	0005b823          	sd	zero,16(a1)
    80004448:	e19c                	sd	a5,0(a1)
    8000444a:	8082                	ret

000000008000444c <mem_prop>:
    8000444c:	1101                	add	sp,sp,-32
    8000444e:	e04a                	sd	s2,0(sp)
    80004450:	00853903          	ld	s2,8(a0)
    80004454:	e822                	sd	s0,16(sp)
    80004456:	e426                	sd	s1,8(sp)
    80004458:	842a                	mv	s0,a0
    8000445a:	84ae                	mv	s1,a1
    8000445c:	854a                	mv	a0,s2
    8000445e:	00006597          	auipc	a1,0x6
    80004462:	ffa58593          	add	a1,a1,-6 # 8000a458 <softfloat_countLeadingZeros8+0x820>
    80004466:	ec06                	sd	ra,24(sp)
    80004468:	24f040ef          	jal	80008eb6 <strcmp>
    8000446c:	e10d                	bnez	a0,8000448e <mem_prop+0x42>
    8000446e:	6808                	ld	a0,16(s0)
    80004470:	00006597          	auipc	a1,0x6
    80004474:	ff858593          	add	a1,a1,-8 # 8000a468 <softfloat_countLeadingZeros8+0x830>
    80004478:	23f040ef          	jal	80008eb6 <strcmp>
    8000447c:	e909                	bnez	a0,8000448e <mem_prop+0x42>
    8000447e:	4785                	li	a5,1
    80004480:	c09c                	sw	a5,0(s1)
    80004482:	60e2                	ld	ra,24(sp)
    80004484:	6442                	ld	s0,16(sp)
    80004486:	64a2                	ld	s1,8(sp)
    80004488:	6902                	ld	s2,0(sp)
    8000448a:	6105                	add	sp,sp,32
    8000448c:	8082                	ret
    8000448e:	00006597          	auipc	a1,0x6
    80004492:	f3a58593          	add	a1,a1,-198 # 8000a3c8 <softfloat_countLeadingZeros8+0x790>
    80004496:	854a                	mv	a0,s2
    80004498:	21f040ef          	jal	80008eb6 <strcmp>
    8000449c:	f17d                	bnez	a0,80004482 <mem_prop+0x36>
    8000449e:	6818                	ld	a4,16(s0)
    800044a0:	4c1c                	lw	a5,24(s0)
    800044a2:	60e2                	ld	ra,24(sp)
    800044a4:	6442                	ld	s0,16(sp)
    800044a6:	e498                	sd	a4,8(s1)
    800044a8:	c89c                	sw	a5,16(s1)
    800044aa:	6902                	ld	s2,0(sp)
    800044ac:	64a2                	ld	s1,8(sp)
    800044ae:	6105                	add	sp,sp,32
    800044b0:	8082                	ret

00000000800044b2 <chosen_open>:
    800044b2:	1101                	add	sp,sp,-32
    800044b4:	e822                	sd	s0,16(sp)
    800044b6:	842a                	mv	s0,a0
    800044b8:	6508                	ld	a0,8(a0)
    800044ba:	e426                	sd	s1,8(sp)
    800044bc:	84ae                	mv	s1,a1
    800044be:	00006597          	auipc	a1,0x6
    800044c2:	fb258593          	add	a1,a1,-78 # 8000a470 <softfloat_countLeadingZeros8+0x838>
    800044c6:	ec06                	sd	ra,24(sp)
    800044c8:	1ef040ef          	jal	80008eb6 <strcmp>
    800044cc:	e111                	bnez	a0,800044d0 <chosen_open+0x1e>
    800044ce:	e080                	sd	s0,0(s1)
    800044d0:	60e2                	ld	ra,24(sp)
    800044d2:	6442                	ld	s0,16(sp)
    800044d4:	64a2                	ld	s1,8(sp)
    800044d6:	6105                	add	sp,sp,32
    800044d8:	8082                	ret

00000000800044da <fdt_scan_helper>:
    800044da:	4785                	li	a5,1
    800044dc:	7131                	add	sp,sp,-192
    800044de:	1782                	sll	a5,a5,0x20
    800044e0:	f14a                	sd	s2,160(sp)
    800044e2:	ed4e                	sd	s3,152(sp)
    800044e4:	0789                	add	a5,a5,2
    800044e6:	00ff09b7          	lui	s3,0xff0
    800044ea:	ff010937          	lui	s2,0xff010
    800044ee:	f922                	sd	s0,176(sp)
    800044f0:	f526                	sd	s1,168(sp)
    800044f2:	e952                	sd	s4,144(sp)
    800044f4:	e556                	sd	s5,136(sp)
    800044f6:	e15a                	sd	s6,128(sp)
    800044f8:	fcde                	sd	s7,120(sp)
    800044fa:	f8e2                	sd	s8,112(sp)
    800044fc:	f4e6                	sd	s9,104(sp)
    800044fe:	f0ea                	sd	s10,96(sp)
    80004500:	fd06                	sd	ra,184(sp)
    80004502:	ecee                	sd	s11,88(sp)
    80004504:	84b2                	mv	s1,a2
    80004506:	8caa                	mv	s9,a0
    80004508:	8a2e                	mv	s4,a1
    8000450a:	8436                	mv	s0,a3
    8000450c:	ec32                	sd	a2,24(sp)
    8000450e:	f43e                	sd	a5,40(sp)
    80004510:	f832                	sd	a2,48(sp)
    80004512:	4d01                	li	s10,0
    80004514:	0ff98993          	add	s3,s3,255 # ff00ff <_ftext-0x7f00ff01>
    80004518:	f0090913          	add	s2,s2,-256 # ffffffffff00ff00 <_end+0xffffffff7eff7f00>
    8000451c:	00030c37          	lui	s8,0x30
    80004520:	4b8d                	li	s7,3
    80004522:	00040b37          	lui	s6,0x40
    80004526:	6ac1                	lui	s5,0x10
    80004528:	000ca703          	lw	a4,0(s9)
    8000452c:	0087579b          	srlw	a5,a4,0x8
    80004530:	0087171b          	sllw	a4,a4,0x8
    80004534:	01277733          	and	a4,a4,s2
    80004538:	0137f7b3          	and	a5,a5,s3
    8000453c:	8fd9                	or	a5,a5,a4
    8000453e:	0107971b          	sllw	a4,a5,0x10
    80004542:	0107d69b          	srlw	a3,a5,0x10
    80004546:	8f55                	or	a4,a4,a3
    80004548:	2781                	sext.w	a5,a5
    8000454a:	2701                	sext.w	a4,a4
    8000454c:	07878263          	beq	a5,s8,800045b0 <fdt_scan_helper+0xd6>
    80004550:	02ebeb63          	bltu	s7,a4,80004586 <fdt_scan_helper+0xac>
    80004554:	15578663          	beq	a5,s5,800046a0 <fdt_scan_helper+0x1c6>
    80004558:	00020737          	lui	a4,0x20
    8000455c:	04e79063          	bne	a5,a4,8000459c <fdt_scan_helper+0xc2>
    80004560:	020d0763          	beqz	s10,8000458e <fdt_scan_helper+0xb4>
    80004564:	004c8513          	add	a0,s9,4
    80004568:	70ea                	ld	ra,184(sp)
    8000456a:	744a                	ld	s0,176(sp)
    8000456c:	74aa                	ld	s1,168(sp)
    8000456e:	790a                	ld	s2,160(sp)
    80004570:	69ea                	ld	s3,152(sp)
    80004572:	6a4a                	ld	s4,144(sp)
    80004574:	6aaa                	ld	s5,136(sp)
    80004576:	6b0a                	ld	s6,128(sp)
    80004578:	7be6                	ld	s7,120(sp)
    8000457a:	7c46                	ld	s8,112(sp)
    8000457c:	7ca6                	ld	s9,104(sp)
    8000457e:	7d06                	ld	s10,96(sp)
    80004580:	6de6                	ld	s11,88(sp)
    80004582:	6129                	add	sp,sp,192
    80004584:	8082                	ret
    80004586:	01679b63          	bne	a5,s6,8000459c <fdt_scan_helper+0xc2>
    8000458a:	0c91                	add	s9,s9,4
    8000458c:	bf71                	j	80004528 <fdt_scan_helper+0x4e>
    8000458e:	d8f9                	beqz	s1,80004564 <fdt_scan_helper+0x8a>
    80004590:	681c                	ld	a5,16(s0)
    80004592:	dbe9                	beqz	a5,80004564 <fdt_scan_helper+0x8a>
    80004594:	700c                	ld	a1,32(s0)
    80004596:	8526                	mv	a0,s1
    80004598:	9782                	jalr	a5
    8000459a:	b7e9                	j	80004564 <fdt_scan_helper+0x8a>
    8000459c:	000d1863          	bnez	s10,800045ac <fdt_scan_helper+0xd2>
    800045a0:	c491                	beqz	s1,800045ac <fdt_scan_helper+0xd2>
    800045a2:	681c                	ld	a5,16(s0)
    800045a4:	c781                	beqz	a5,800045ac <fdt_scan_helper+0xd2>
    800045a6:	700c                	ld	a1,32(s0)
    800045a8:	8526                	mv	a0,s1
    800045aa:	9782                	jalr	a5
    800045ac:	8566                	mv	a0,s9
    800045ae:	bf6d                	j	80004568 <fdt_scan_helper+0x8e>
    800045b0:	140d1b63          	bnez	s10,80004706 <fdt_scan_helper+0x22c>
    800045b4:	008ca703          	lw	a4,8(s9)
    800045b8:	004ca783          	lw	a5,4(s9)
    800045bc:	00cc8613          	add	a2,s9,12
    800045c0:	0087169b          	sllw	a3,a4,0x8
    800045c4:	0087571b          	srlw	a4,a4,0x8
    800045c8:	013775b3          	and	a1,a4,s3
    800045cc:	0126f6b3          	and	a3,a3,s2
    800045d0:	0087971b          	sllw	a4,a5,0x8
    800045d4:	0087d79b          	srlw	a5,a5,0x8
    800045d8:	8ecd                	or	a3,a3,a1
    800045da:	0137f7b3          	and	a5,a5,s3
    800045de:	01277733          	and	a4,a4,s2
    800045e2:	8f5d                	or	a4,a4,a5
    800045e4:	0106979b          	sllw	a5,a3,0x10
    800045e8:	0106d69b          	srlw	a3,a3,0x10
    800045ec:	8fd5                	or	a5,a5,a3
    800045ee:	01071d9b          	sllw	s11,a4,0x10
    800045f2:	1782                	sll	a5,a5,0x20
    800045f4:	0107571b          	srlw	a4,a4,0x10
    800045f8:	9381                	srl	a5,a5,0x20
    800045fa:	00ededb3          	or	s11,s11,a4
    800045fe:	97d2                	add	a5,a5,s4
    80004600:	2d81                	sext.w	s11,s11
    80004602:	fc3e                	sd	a5,56(sp)
    80004604:	c4ee                	sw	s11,72(sp)
    80004606:	e0b2                	sd	a2,64(sp)
    80004608:	c8bd                	beqz	s1,8000467e <fdt_scan_helper+0x1a4>
    8000460a:	853e                	mv	a0,a5
    8000460c:	00006597          	auipc	a1,0x6
    80004610:	e8c58593          	add	a1,a1,-372 # 8000a498 <softfloat_countLeadingZeros8+0x860>
    80004614:	e43e                	sd	a5,8(sp)
    80004616:	0a1040ef          	jal	80008eb6 <strcmp>
    8000461a:	67a2                	ld	a5,8(sp)
    8000461c:	e115                	bnez	a0,80004640 <fdt_scan_helper+0x166>
    8000461e:	00cca683          	lw	a3,12(s9)
    80004622:	0086971b          	sllw	a4,a3,0x8
    80004626:	0086d69b          	srlw	a3,a3,0x8
    8000462a:	0136f6b3          	and	a3,a3,s3
    8000462e:	01277733          	and	a4,a4,s2
    80004632:	8f55                	or	a4,a4,a3
    80004634:	0107169b          	sllw	a3,a4,0x10
    80004638:	0107571b          	srlw	a4,a4,0x10
    8000463c:	8f55                	or	a4,a4,a3
    8000463e:	c898                	sw	a4,16(s1)
    80004640:	00006597          	auipc	a1,0x6
    80004644:	e6858593          	add	a1,a1,-408 # 8000a4a8 <softfloat_countLeadingZeros8+0x870>
    80004648:	853e                	mv	a0,a5
    8000464a:	06d040ef          	jal	80008eb6 <strcmp>
    8000464e:	e905                	bnez	a0,8000467e <fdt_scan_helper+0x1a4>
    80004650:	00cca703          	lw	a4,12(s9)
    80004654:	ff0106b7          	lui	a3,0xff010
    80004658:	f0068693          	add	a3,a3,-256 # ffffffffff00ff00 <_end+0xffffffff7eff7f00>
    8000465c:	0087179b          	sllw	a5,a4,0x8
    80004660:	8ff5                	and	a5,a5,a3
    80004662:	00ff06b7          	lui	a3,0xff0
    80004666:	0087571b          	srlw	a4,a4,0x8
    8000466a:	0ff68693          	add	a3,a3,255 # ff00ff <_ftext-0x7f00ff01>
    8000466e:	8f75                	and	a4,a4,a3
    80004670:	8fd9                	or	a5,a5,a4
    80004672:	0107971b          	sllw	a4,a5,0x10
    80004676:	0107d79b          	srlw	a5,a5,0x10
    8000467a:	8fd9                	or	a5,a5,a4
    8000467c:	c8dc                	sw	a5,20(s1)
    8000467e:	2d8d                	addw	s11,s11,3
    80004680:	41fdd79b          	sraw	a5,s11,0x1f
    80004684:	01e7d79b          	srlw	a5,a5,0x1e
    80004688:	01b787bb          	addw	a5,a5,s11
    8000468c:	6418                	ld	a4,8(s0)
    8000468e:	700c                	ld	a1,32(s0)
    80004690:	4027d79b          	sraw	a5,a5,0x2
    80004694:	278d                	addw	a5,a5,3
    80004696:	078a                	sll	a5,a5,0x2
    80004698:	1808                	add	a0,sp,48
    8000469a:	9cbe                	add	s9,s9,a5
    8000469c:	9702                	jalr	a4
    8000469e:	b569                	j	80004528 <fdt_scan_helper+0x4e>
    800046a0:	000d1863          	bnez	s10,800046b0 <fdt_scan_helper+0x1d6>
    800046a4:	c491                	beqz	s1,800046b0 <fdt_scan_helper+0x1d6>
    800046a6:	681c                	ld	a5,16(s0)
    800046a8:	c781                	beqz	a5,800046b0 <fdt_scan_helper+0x1d6>
    800046aa:	700c                	ld	a1,32(s0)
    800046ac:	8526                	mv	a0,s1
    800046ae:	9782                	jalr	a5
    800046b0:	601c                	ld	a5,0(s0)
    800046b2:	004c8d13          	add	s10,s9,4
    800046b6:	f06a                	sd	s10,32(sp)
    800046b8:	856a                	mv	a0,s10
    800046ba:	c789                	beqz	a5,800046c4 <fdt_scan_helper+0x1ea>
    800046bc:	700c                	ld	a1,32(s0)
    800046be:	0828                	add	a0,sp,24
    800046c0:	9782                	jalr	a5
    800046c2:	7502                	ld	a0,32(sp)
    800046c4:	7d8040ef          	jal	80008e9c <strlen>
    800046c8:	9971                	and	a0,a0,-4
    800046ca:	0521                	add	a0,a0,8
    800046cc:	86a2                	mv	a3,s0
    800046ce:	0830                	add	a2,sp,24
    800046d0:	85d2                	mv	a1,s4
    800046d2:	9566                	add	a0,a0,s9
    800046d4:	e07ff0ef          	jal	800044da <fdt_scan_helper>
    800046d8:	6c1c                	ld	a5,24(s0)
    800046da:	8daa                	mv	s11,a0
    800046dc:	c799                	beqz	a5,800046ea <fdt_scan_helper+0x210>
    800046de:	700c                	ld	a1,32(s0)
    800046e0:	0828                	add	a0,sp,24
    800046e2:	9782                	jalr	a5
    800046e4:	57fd                	li	a5,-1
    800046e6:	00f50563          	beq	a0,a5,800046f0 <fdt_scan_helper+0x216>
    800046ea:	8cee                	mv	s9,s11
    800046ec:	4d05                	li	s10,1
    800046ee:	bd2d                	j	80004528 <fdt_scan_helper+0x4e>
    800046f0:	ffbc8de3          	beq	s9,s11,800046ea <fdt_scan_helper+0x210>
    800046f4:	040007b7          	lui	a5,0x4000
    800046f8:	a011                	j	800046fc <fdt_scan_helper+0x222>
    800046fa:	0d11                	add	s10,s10,4
    800046fc:	fefd2e23          	sw	a5,-4(s10)
    80004700:	ffad9de3          	bne	s11,s10,800046fa <fdt_scan_helper+0x220>
    80004704:	b7dd                	j	800046ea <fdt_scan_helper+0x210>
    80004706:	00006517          	auipc	a0,0x6
    8000470a:	86a50513          	add	a0,a0,-1942 # 80009f70 <softfloat_countLeadingZeros8+0x338>
    8000470e:	00006697          	auipc	a3,0x6
    80004712:	d6a68693          	add	a3,a3,-662 # 8000a478 <softfloat_countLeadingZeros8+0x840>
    80004716:	03a00613          	li	a2,58
    8000471a:	00006597          	auipc	a1,0x6
    8000471e:	d6658593          	add	a1,a1,-666 # 8000a480 <softfloat_countLeadingZeros8+0x848>
    80004722:	9affe0ef          	jal	800030d0 <printm>
    80004726:	6541                	lui	a0,0x10
    80004728:	157d                	add	a0,a0,-1 # ffff <_ftext-0x7fff0001>
    8000472a:	a53fe0ef          	jal	8000317c <poweroff>

000000008000472e <mem_open>:
    8000472e:	852e                	mv	a0,a1
    80004730:	4661                	li	a2,24
    80004732:	4581                	li	a1,0
    80004734:	7280406f          	j	80008e5c <memset>

0000000080004738 <clint_done>:
    80004738:	4198                	lw	a4,0(a1)
    8000473a:	6988                	ld	a0,16(a1)
    8000473c:	4d9c                	lw	a5,24(a1)
    8000473e:	c375                	beqz	a4,80004822 <clint_done+0xea>
    80004740:	1141                	add	sp,sp,-16
    80004742:	e022                	sd	s0,0(sp)
    80004744:	e406                	sd	ra,8(sp)
    80004746:	0800                	add	s0,sp,16
    80004748:	0085bf03          	ld	t5,8(a1)
    8000474c:	120f0463          	beqz	t5,80004874 <clint_done+0x13c>
    80004750:	0e050e63          	beqz	a0,8000484c <clint_done+0x114>
    80004754:	00f7f713          	and	a4,a5,15
    80004758:	eb75                	bnez	a4,8000484c <clint_done+0x114>
    8000475a:	4dd8                	lw	a4,28(a1)
    8000475c:	e761                	bnez	a4,80004824 <clint_done+0xec>
    8000475e:	41f7d89b          	sraw	a7,a5,0x1f
    80004762:	01e8d89b          	srlw	a7,a7,0x1e
    80004766:	00f888bb          	addw	a7,a7,a5
    8000476a:	67b1                	lui	a5,0xc
    8000476c:	17e1                	add	a5,a5,-8 # bff8 <_ftext-0x7fff4008>
    8000476e:	4705                	li	a4,1
    80004770:	4028d89b          	sraw	a7,a7,0x2
    80004774:	97fa                	add	a5,a5,t5
    80004776:	cdd8                	sw	a4,28(a1)
    80004778:	088a                	sll	a7,a7,0x2
    8000477a:	00013717          	auipc	a4,0x13
    8000477e:	92f73723          	sd	a5,-1746(a4) # 800170a8 <mtime>
    80004782:	07105863          	blez	a7,800047f2 <clint_done+0xba>
    80004786:	6e85                	lui	t4,0x1
    80004788:	9ea2                	add	t4,t4,s0
    8000478a:	ff010e37          	lui	t3,0xff010
    8000478e:	00ff0337          	lui	t1,0xff0
    80004792:	77fd                	lui	a5,0xfffff
    80004794:	6f91                	lui	t6,0x4
    80004796:	98aa                	add	a7,a7,a0
    80004798:	4801                	li	a6,0
    8000479a:	f00e0e13          	add	t3,t3,-256 # ffffffffff00ff00 <_end+0xffffffff7eff7f00>
    8000479e:	0ff30313          	add	t1,t1,255 # ff00ff <_ftext-0x7f00ff01>
    800047a2:	45a1                	li	a1,8
    800047a4:	00fefeb3          	and	t4,t4,a5
    800047a8:	9ffa                	add	t6,t6,t5
    800047aa:	f14022f3          	csrr	t0,mhartid
    800047ae:	4110                	lw	a2,0(a0)
    800047b0:	00013717          	auipc	a4,0x13
    800047b4:	85070713          	add	a4,a4,-1968 # 80017000 <hart_phandles>
    800047b8:	4781                	li	a5,0
    800047ba:	0086169b          	sllw	a3,a2,0x8
    800047be:	0086561b          	srlw	a2,a2,0x8
    800047c2:	00667633          	and	a2,a2,t1
    800047c6:	01c6f6b3          	and	a3,a3,t3
    800047ca:	8ed1                	or	a3,a3,a2
    800047cc:	0106961b          	sllw	a2,a3,0x10
    800047d0:	0106d69b          	srlw	a3,a3,0x10
    800047d4:	8e55                	or	a2,a2,a3
    800047d6:	2601                	sext.w	a2,a2
    800047d8:	4314                	lw	a3,0(a4)
    800047da:	02c68063          	beq	a3,a2,800047fa <clint_done+0xc2>
    800047de:	2785                	addw	a5,a5,1 # fffffffffffff001 <_end+0xffffffff7ffe7001>
    800047e0:	0711                	add	a4,a4,4
    800047e2:	feb79be3          	bne	a5,a1,800047d8 <clint_done+0xa0>
    800047e6:	0541                	add	a0,a0,16
    800047e8:	40a887b3          	sub	a5,a7,a0
    800047ec:	2811                	addw	a6,a6,4 # b0004 <_ftext-0x7ff4fffc>
    800047ee:	fcf040e3          	bgtz	a5,800047ae <clint_done+0x76>
    800047f2:	60a2                	ld	ra,8(sp)
    800047f4:	6402                	ld	s0,0(sp)
    800047f6:	0141                	add	sp,sp,16
    800047f8:	8082                	ret
    800047fa:	405787b3          	sub	a5,a5,t0
    800047fe:	07b2                	sll	a5,a5,0xc
    80004800:	0018171b          	sllw	a4,a6,0x1
    80004804:	fc078793          	add	a5,a5,-64
    80004808:	97f6                	add	a5,a5,t4
    8000480a:	01e806b3          	add	a3,a6,t5
    8000480e:	977e                	add	a4,a4,t6
    80004810:	0541                	add	a0,a0,16
    80004812:	e394                	sd	a3,0(a5)
    80004814:	eb98                	sd	a4,16(a5)
    80004816:	40a887b3          	sub	a5,a7,a0
    8000481a:	2811                	addw	a6,a6,4
    8000481c:	f8f049e3          	bgtz	a5,800047ae <clint_done+0x76>
    80004820:	bfc9                	j	800047f2 <clint_done+0xba>
    80004822:	8082                	ret
    80004824:	00005517          	auipc	a0,0x5
    80004828:	74c50513          	add	a0,a0,1868 # 80009f70 <softfloat_countLeadingZeros8+0x338>
    8000482c:	00006697          	auipc	a3,0x6
    80004830:	ccc68693          	add	a3,a3,-820 # 8000a4f8 <softfloat_countLeadingZeros8+0x8c0>
    80004834:	15900613          	li	a2,345
    80004838:	00006597          	auipc	a1,0x6
    8000483c:	c4858593          	add	a1,a1,-952 # 8000a480 <softfloat_countLeadingZeros8+0x848>
    80004840:	891fe0ef          	jal	800030d0 <printm>
    80004844:	6541                	lui	a0,0x10
    80004846:	157d                	add	a0,a0,-1 # ffff <_ftext-0x7fff0001>
    80004848:	935fe0ef          	jal	8000317c <poweroff>
    8000484c:	00005517          	auipc	a0,0x5
    80004850:	72450513          	add	a0,a0,1828 # 80009f70 <softfloat_countLeadingZeros8+0x338>
    80004854:	00006697          	auipc	a3,0x6
    80004858:	c7468693          	add	a3,a3,-908 # 8000a4c8 <softfloat_countLeadingZeros8+0x890>
    8000485c:	15800613          	li	a2,344
    80004860:	00006597          	auipc	a1,0x6
    80004864:	c2058593          	add	a1,a1,-992 # 8000a480 <softfloat_countLeadingZeros8+0x848>
    80004868:	869fe0ef          	jal	800030d0 <printm>
    8000486c:	6541                	lui	a0,0x10
    8000486e:	157d                	add	a0,a0,-1 # ffff <_ftext-0x7fff0001>
    80004870:	90dfe0ef          	jal	8000317c <poweroff>
    80004874:	00005517          	auipc	a0,0x5
    80004878:	6fc50513          	add	a0,a0,1788 # 80009f70 <softfloat_countLeadingZeros8+0x338>
    8000487c:	00006697          	auipc	a3,0x6
    80004880:	c3c68693          	add	a3,a3,-964 # 8000a4b8 <softfloat_countLeadingZeros8+0x880>
    80004884:	15700613          	li	a2,343
    80004888:	00006597          	auipc	a1,0x6
    8000488c:	bf858593          	add	a1,a1,-1032 # 8000a480 <softfloat_countLeadingZeros8+0x848>
    80004890:	841fe0ef          	jal	800030d0 <printm>
    80004894:	6541                	lui	a0,0x10
    80004896:	157d                	add	a0,a0,-1 # ffff <_ftext-0x7fff0001>
    80004898:	8e5fe0ef          	jal	8000317c <poweroff>

000000008000489c <plic_done>:
    8000489c:	711d                	add	sp,sp,-96
    8000489e:	e8a2                	sd	s0,80(sp)
    800048a0:	e4a6                	sd	s1,72(sp)
    800048a2:	ec86                	sd	ra,88(sp)
    800048a4:	e0ca                	sd	s2,64(sp)
    800048a6:	fc4e                	sd	s3,56(sp)
    800048a8:	f852                	sd	s4,48(sp)
    800048aa:	f456                	sd	s5,40(sp)
    800048ac:	f05a                	sd	s6,32(sp)
    800048ae:	ec5e                	sd	s7,24(sp)
    800048b0:	e862                	sd	s8,16(sp)
    800048b2:	e466                	sd	s9,8(sp)
    800048b4:	1080                	add	s0,sp,96
    800048b6:	4198                	lw	a4,0(a1)
    800048b8:	6984                	ld	s1,16(a1)
    800048ba:	4d9c                	lw	a5,24(a1)
    800048bc:	c369                	beqz	a4,8000497e <plic_done+0xe2>
    800048be:	6594                	ld	a3,8(a1)
    800048c0:	8aae                	mv	s5,a1
    800048c2:	18068763          	beqz	a3,80004a50 <plic_done+0x1b4>
    800048c6:	1c048f63          	beqz	s1,80004aa4 <plic_done+0x208>
    800048ca:	0077f713          	and	a4,a5,7
    800048ce:	1c071b63          	bnez	a4,80004aa4 <plic_done+0x208>
    800048d2:	5198                	lw	a4,32(a1)
    800048d4:	3ff00613          	li	a2,1023
    800048d8:	1ae66b63          	bltu	a2,a4,80004a8e <plic_done+0x1f2>
    800048dc:	4dd0                	lw	a2,28(a1)
    800048de:	18061d63          	bnez	a2,80004a78 <plic_done+0x1dc>
    800048e2:	41f7da1b          	sraw	s4,a5,0x1f
    800048e6:	01ea5a1b          	srlw	s4,s4,0x1e
    800048ea:	00fa0a3b          	addw	s4,s4,a5
    800048ee:	402a5a1b          	sraw	s4,s4,0x2
    800048f2:	4785                	li	a5,1
    800048f4:	cddc                	sw	a5,28(a1)
    800048f6:	0a0a                	sll	s4,s4,0x2
    800048f8:	00012797          	auipc	a5,0x12
    800048fc:	7ad7b423          	sd	a3,1960(a5) # 800170a0 <plic_priorities>
    80004900:	00012797          	auipc	a5,0x12
    80004904:	78e7bc23          	sd	a4,1944(a5) # 80017098 <plic_ndevs>
    80004908:	07405b63          	blez	s4,8000497e <plic_done+0xe2>
    8000490c:	6c05                	lui	s8,0x1
    8000490e:	9c22                	add	s8,s8,s0
    80004910:	ff010bb7          	lui	s7,0xff010
    80004914:	00ff0b37          	lui	s6,0xff0
    80004918:	77fd                	lui	a5,0xfffff
    8000491a:	9a26                	add	s4,s4,s1
    8000491c:	4981                	li	s3,0
    8000491e:	4901                	li	s2,0
    80004920:	f00b8b93          	add	s7,s7,-256 # ffffffffff00ff00 <_end+0xffffffff7eff7f00>
    80004924:	0ffb0b13          	add	s6,s6,255 # ff00ff <_ftext-0x7f00ff01>
    80004928:	00fc7c33          	and	s8,s8,a5
    8000492c:	f1402cf3          	csrr	s9,mhartid
    80004930:	4094                	lw	a3,0(s1)
    80004932:	00012797          	auipc	a5,0x12
    80004936:	6ce78793          	add	a5,a5,1742 # 80017000 <hart_phandles>
    8000493a:	4581                	li	a1,0
    8000493c:	0086971b          	sllw	a4,a3,0x8
    80004940:	0086d69b          	srlw	a3,a3,0x8
    80004944:	0166f6b3          	and	a3,a3,s6
    80004948:	01777733          	and	a4,a4,s7
    8000494c:	8f55                	or	a4,a4,a3
    8000494e:	0107169b          	sllw	a3,a4,0x10
    80004952:	0107571b          	srlw	a4,a4,0x10
    80004956:	8ed9                	or	a3,a3,a4
    80004958:	2681                	sext.w	a3,a3
    8000495a:	4621                	li	a2,8
    8000495c:	4398                	lw	a4,0(a5)
    8000495e:	02d70d63          	beq	a4,a3,80004998 <plic_done+0xfc>
    80004962:	2585                	addw	a1,a1,1
    80004964:	0791                	add	a5,a5,4
    80004966:	fec59be3          	bne	a1,a2,8000495c <plic_done+0xc0>
    8000496a:	04a1                	add	s1,s1,8
    8000496c:	6705                	lui	a4,0x1
    8000496e:	409a07b3          	sub	a5,s4,s1
    80004972:	0809091b          	addw	s2,s2,128
    80004976:	013709bb          	addw	s3,a4,s3
    8000497a:	faf04be3          	bgtz	a5,80004930 <plic_done+0x94>
    8000497e:	60e6                	ld	ra,88(sp)
    80004980:	6446                	ld	s0,80(sp)
    80004982:	64a6                	ld	s1,72(sp)
    80004984:	6906                	ld	s2,64(sp)
    80004986:	79e2                	ld	s3,56(sp)
    80004988:	7a42                	ld	s4,48(sp)
    8000498a:	7aa2                	ld	s5,40(sp)
    8000498c:	7b02                	ld	s6,32(sp)
    8000498e:	6be2                	ld	s7,24(sp)
    80004990:	6c42                	ld	s8,16(sp)
    80004992:	6ca2                	ld	s9,8(sp)
    80004994:	6125                	add	sp,sp,96
    80004996:	8082                	ret
    80004998:	40d4                	lw	a3,4(s1)
    8000499a:	41958733          	sub	a4,a1,s9
    8000499e:	0732                	sll	a4,a4,0xc
    800049a0:	0086979b          	sllw	a5,a3,0x8
    800049a4:	0086d69b          	srlw	a3,a3,0x8
    800049a8:	0166f6b3          	and	a3,a3,s6
    800049ac:	0177f7b3          	and	a5,a5,s7
    800049b0:	8fd5                	or	a5,a5,a3
    800049b2:	fc070713          	add	a4,a4,-64 # fc0 <_ftext-0x7ffff040>
    800049b6:	2781                	sext.w	a5,a5
    800049b8:	000b06b7          	lui	a3,0xb0
    800049bc:	9762                	add	a4,a4,s8
    800049be:	02d78c63          	beq	a5,a3,800049f6 <plic_done+0x15a>
    800049c2:	000906b7          	lui	a3,0x90
    800049c6:	04d79e63          	bne	a5,a3,80004a22 <plic_done+0x186>
    800049ca:	008ab783          	ld	a5,8(s5) # 10008 <_ftext-0x7ffefff8>
    800049ce:	6689                	lui	a3,0x2
    800049d0:	00200637          	lui	a2,0x200
    800049d4:	96be                	add	a3,a3,a5
    800049d6:	97b2                	add	a5,a5,a2
    800049d8:	97ce                	add	a5,a5,s3
    800049da:	96ca                	add	a3,a3,s2
    800049dc:	04a1                	add	s1,s1,8
    800049de:	f71c                	sd	a5,40(a4)
    800049e0:	fb14                	sd	a3,48(a4)
    800049e2:	409a07b3          	sub	a5,s4,s1
    800049e6:	6705                	lui	a4,0x1
    800049e8:	0809091b          	addw	s2,s2,128
    800049ec:	013709bb          	addw	s3,a4,s3
    800049f0:	f4f040e3          	bgtz	a5,80004930 <plic_done+0x94>
    800049f4:	b769                	j	8000497e <plic_done+0xe2>
    800049f6:	008ab783          	ld	a5,8(s5)
    800049fa:	6689                	lui	a3,0x2
    800049fc:	00200637          	lui	a2,0x200
    80004a00:	96be                	add	a3,a3,a5
    80004a02:	97b2                	add	a5,a5,a2
    80004a04:	97ce                	add	a5,a5,s3
    80004a06:	96ca                	add	a3,a3,s2
    80004a08:	04a1                	add	s1,s1,8
    80004a0a:	ef1c                	sd	a5,24(a4)
    80004a0c:	f314                	sd	a3,32(a4)
    80004a0e:	409a07b3          	sub	a5,s4,s1
    80004a12:	6705                	lui	a4,0x1
    80004a14:	0809091b          	addw	s2,s2,128
    80004a18:	013709bb          	addw	s3,a4,s3
    80004a1c:	f0f04ae3          	bgtz	a5,80004930 <plic_done+0x94>
    80004a20:	bfb9                	j	8000497e <plic_done+0xe2>
    80004a22:	0107961b          	sllw	a2,a5,0x10
    80004a26:	0107d79b          	srlw	a5,a5,0x10
    80004a2a:	8e5d                	or	a2,a2,a5
    80004a2c:	2601                	sext.w	a2,a2
    80004a2e:	00006517          	auipc	a0,0x6
    80004a32:	b3250513          	add	a0,a0,-1230 # 8000a560 <softfloat_countLeadingZeros8+0x928>
    80004a36:	e9afe0ef          	jal	800030d0 <printm>
    80004a3a:	04a1                	add	s1,s1,8
    80004a3c:	6705                	lui	a4,0x1
    80004a3e:	409a07b3          	sub	a5,s4,s1
    80004a42:	0809091b          	addw	s2,s2,128
    80004a46:	013709bb          	addw	s3,a4,s3
    80004a4a:	eef043e3          	bgtz	a5,80004930 <plic_done+0x94>
    80004a4e:	bf05                	j	8000497e <plic_done+0xe2>
    80004a50:	00005517          	auipc	a0,0x5
    80004a54:	52050513          	add	a0,a0,1312 # 80009f70 <softfloat_countLeadingZeros8+0x338>
    80004a58:	00006697          	auipc	a3,0x6
    80004a5c:	a6068693          	add	a3,a3,-1440 # 8000a4b8 <softfloat_countLeadingZeros8+0x880>
    80004a60:	1ac00613          	li	a2,428
    80004a64:	00006597          	auipc	a1,0x6
    80004a68:	a1c58593          	add	a1,a1,-1508 # 8000a480 <softfloat_countLeadingZeros8+0x848>
    80004a6c:	e64fe0ef          	jal	800030d0 <printm>
    80004a70:	6541                	lui	a0,0x10
    80004a72:	157d                	add	a0,a0,-1 # ffff <_ftext-0x7fff0001>
    80004a74:	f08fe0ef          	jal	8000317c <poweroff>
    80004a78:	00005517          	auipc	a0,0x5
    80004a7c:	4f850513          	add	a0,a0,1272 # 80009f70 <softfloat_countLeadingZeros8+0x338>
    80004a80:	00006697          	auipc	a3,0x6
    80004a84:	a7868693          	add	a3,a3,-1416 # 8000a4f8 <softfloat_countLeadingZeros8+0x8c0>
    80004a88:	1af00613          	li	a2,431
    80004a8c:	bfe1                	j	80004a64 <plic_done+0x1c8>
    80004a8e:	00005517          	auipc	a0,0x5
    80004a92:	4e250513          	add	a0,a0,1250 # 80009f70 <softfloat_countLeadingZeros8+0x338>
    80004a96:	00006697          	auipc	a3,0x6
    80004a9a:	aa268693          	add	a3,a3,-1374 # 8000a538 <softfloat_countLeadingZeros8+0x900>
    80004a9e:	1ae00613          	li	a2,430
    80004aa2:	b7c9                	j	80004a64 <plic_done+0x1c8>
    80004aa4:	00005517          	auipc	a0,0x5
    80004aa8:	4cc50513          	add	a0,a0,1228 # 80009f70 <softfloat_countLeadingZeros8+0x338>
    80004aac:	00006697          	auipc	a3,0x6
    80004ab0:	a5c68693          	add	a3,a3,-1444 # 8000a508 <softfloat_countLeadingZeros8+0x8d0>
    80004ab4:	1ad00613          	li	a2,429
    80004ab8:	b775                	j	80004a64 <plic_done+0x1c8>

0000000080004aba <hart_done>:
    80004aba:	619c                	ld	a5,0(a1)
    80004abc:	1141                	add	sp,sp,-16
    80004abe:	e406                	sd	ra,8(sp)
    80004ac0:	00a78863          	beq	a5,a0,80004ad0 <hart_done+0x16>
    80004ac4:	6998                	ld	a4,16(a1)
    80004ac6:	02a70c63          	beq	a4,a0,80004afe <hart_done+0x44>
    80004aca:	60a2                	ld	ra,8(sp)
    80004acc:	0141                	add	sp,sp,16
    80004ace:	8082                	ret
    80004ad0:	4598                	lw	a4,8(a1)
    80004ad2:	fe0759e3          	bgez	a4,80004ac4 <hart_done+0xa>
    80004ad6:	00005517          	auipc	a0,0x5
    80004ada:	49a50513          	add	a0,a0,1178 # 80009f70 <softfloat_countLeadingZeros8+0x338>
    80004ade:	00006697          	auipc	a3,0x6
    80004ae2:	ab268693          	add	a3,a3,-1358 # 8000a590 <softfloat_countLeadingZeros8+0x958>
    80004ae6:	10600613          	li	a2,262
    80004aea:	00006597          	auipc	a1,0x6
    80004aee:	99658593          	add	a1,a1,-1642 # 8000a480 <softfloat_countLeadingZeros8+0x848>
    80004af2:	ddefe0ef          	jal	800030d0 <printm>
    80004af6:	6541                	lui	a0,0x10
    80004af8:	157d                	add	a0,a0,-1 # ffff <_ftext-0x7fff0001>
    80004afa:	e82fe0ef          	jal	8000317c <poweroff>
    80004afe:	d7f1                	beqz	a5,80004aca <hart_done+0x10>
    80004b00:	4dd8                	lw	a4,28(a1)
    80004b02:	cf1d                	beqz	a4,80004b40 <hart_done+0x86>
    80004b04:	4d94                	lw	a3,24(a1)
    80004b06:	4785                	li	a5,1
    80004b08:	04f69763          	bne	a3,a5,80004b56 <hart_done+0x9c>
    80004b0c:	459c                	lw	a5,8(a1)
    80004b0e:	469d                	li	a3,7
    80004b10:	faf6cde3          	blt	a3,a5,80004aca <hart_done+0x10>
    80004b14:	00012697          	auipc	a3,0x12
    80004b18:	4ec68693          	add	a3,a3,1260 # 80017000 <hart_phandles>
    80004b1c:	078a                	sll	a5,a5,0x2
    80004b1e:	97b6                	add	a5,a5,a3
    80004b20:	c398                	sw	a4,0(a5)
    80004b22:	4588                	lw	a0,8(a1)
    80004b24:	00012717          	auipc	a4,0x12
    80004b28:	5cc70713          	add	a4,a4,1484 # 800170f0 <hart_mask>
    80004b2c:	6314                	ld	a3,0(a4)
    80004b2e:	4785                	li	a5,1
    80004b30:	00a797bb          	sllw	a5,a5,a0
    80004b34:	60a2                	ld	ra,8(sp)
    80004b36:	8fd5                	or	a5,a5,a3
    80004b38:	e31c                	sd	a5,0(a4)
    80004b3a:	0141                	add	sp,sp,16
    80004b3c:	9e3fe06f          	j	8000351e <hls_init>
    80004b40:	00005517          	auipc	a0,0x5
    80004b44:	43050513          	add	a0,a0,1072 # 80009f70 <softfloat_countLeadingZeros8+0x338>
    80004b48:	00006697          	auipc	a3,0x6
    80004b4c:	a5868693          	add	a3,a3,-1448 # 8000a5a0 <softfloat_countLeadingZeros8+0x968>
    80004b50:	10a00613          	li	a2,266
    80004b54:	bf59                	j	80004aea <hart_done+0x30>
    80004b56:	00005517          	auipc	a0,0x5
    80004b5a:	41a50513          	add	a0,a0,1050 # 80009f70 <softfloat_countLeadingZeros8+0x338>
    80004b5e:	00006697          	auipc	a3,0x6
    80004b62:	a5a68693          	add	a3,a3,-1446 # 8000a5b8 <softfloat_countLeadingZeros8+0x980>
    80004b66:	10b00613          	li	a2,267
    80004b6a:	b741                	j	80004aea <hart_done+0x30>

0000000080004b6c <hart_filter_done>:
    80004b6c:	419c                	lw	a5,0(a1)
    80004b6e:	c7e1                	beqz	a5,80004c36 <hart_filter_done+0xca>
    80004b70:	1101                	add	sp,sp,-32
    80004b72:	e426                	sd	s1,8(sp)
    80004b74:	6584                	ld	s1,8(a1)
    80004b76:	e822                	sd	s0,16(sp)
    80004b78:	ec06                	sd	ra,24(sp)
    80004b7a:	e04a                	sd	s2,0(sp)
    80004b7c:	842e                	mv	s0,a1
    80004b7e:	cccd                	beqz	s1,80004c38 <hart_filter_done+0xcc>
    80004b80:	41dc                	lw	a5,4(a1)
    80004b82:	0c07cf63          	bltz	a5,80004c60 <hart_filter_done+0xf4>
    80004b86:	0105b903          	ld	s2,16(a1)
    80004b8a:	04090363          	beqz	s2,80004bd0 <hart_filter_done+0x64>
    80004b8e:	00006597          	auipc	a1,0x6
    80004b92:	a6a58593          	add	a1,a1,-1430 # 8000a5f8 <softfloat_countLeadingZeros8+0x9c0>
    80004b96:	8526                	mv	a0,s1
    80004b98:	31e040ef          	jal	80008eb6 <strcmp>
    80004b9c:	e915                	bnez	a0,80004bd0 <hart_filter_done+0x64>
    80004b9e:	00006597          	auipc	a1,0x6
    80004ba2:	a6258593          	add	a1,a1,-1438 # 8000a600 <softfloat_countLeadingZeros8+0x9c8>
    80004ba6:	854a                	mv	a0,s2
    80004ba8:	30e040ef          	jal	80008eb6 <strcmp>
    80004bac:	cd3d                	beqz	a0,80004c2a <hart_filter_done+0xbe>
    80004bae:	00006597          	auipc	a1,0x6
    80004bb2:	a6258593          	add	a1,a1,-1438 # 8000a610 <softfloat_countLeadingZeros8+0x9d8>
    80004bb6:	854a                	mv	a0,s2
    80004bb8:	2fe040ef          	jal	80008eb6 <strcmp>
    80004bbc:	c53d                	beqz	a0,80004c2a <hart_filter_done+0xbe>
    80004bbe:	85a6                	mv	a1,s1
    80004bc0:	864a                	mv	a2,s2
    80004bc2:	00006517          	auipc	a0,0x6
    80004bc6:	a5e50513          	add	a0,a0,-1442 # 8000a620 <softfloat_countLeadingZeros8+0x9e8>
    80004bca:	d06fe0ef          	jal	800030d0 <printm>
    80004bce:	6404                	ld	s1,8(s0)
    80004bd0:	00006797          	auipc	a5,0x6
    80004bd4:	a9878793          	add	a5,a5,-1384 # 8000a668 <softfloat_countLeadingZeros8+0xa30>
    80004bd8:	0037c603          	lbu	a2,3(a5)
    80004bdc:	0047c683          	lbu	a3,4(a5)
    80004be0:	0057c703          	lbu	a4,5(a5)
    80004be4:	0007c803          	lbu	a6,0(a5)
    80004be8:	0017c503          	lbu	a0,1(a5)
    80004bec:	0027c583          	lbu	a1,2(a5)
    80004bf0:	0067c783          	lbu	a5,6(a5)
    80004bf4:	00e482a3          	sb	a4,5(s1)
    80004bf8:	01048023          	sb	a6,0(s1)
    80004bfc:	00a480a3          	sb	a0,1(s1)
    80004c00:	00b48123          	sb	a1,2(s1)
    80004c04:	00c481a3          	sb	a2,3(s1)
    80004c08:	00d48223          	sb	a3,4(s1)
    80004c0c:	00f48323          	sb	a5,6(s1)
    80004c10:	641c                	ld	a5,8(s0)
    80004c12:	6c14                	ld	a3,24(s0)
    80004c14:	07000737          	lui	a4,0x7000
    80004c18:	fee7ac23          	sw	a4,-8(a5)
    80004c1c:	4050                	lw	a2,4(s0)
    80004c1e:	629c                	ld	a5,0(a3)
    80004c20:	4705                	li	a4,1
    80004c22:	00c7173b          	sllw	a4,a4,a2
    80004c26:	8fd9                	or	a5,a5,a4
    80004c28:	e29c                	sd	a5,0(a3)
    80004c2a:	60e2                	ld	ra,24(sp)
    80004c2c:	6442                	ld	s0,16(sp)
    80004c2e:	64a2                	ld	s1,8(sp)
    80004c30:	6902                	ld	s2,0(sp)
    80004c32:	6105                	add	sp,sp,32
    80004c34:	8082                	ret
    80004c36:	8082                	ret
    80004c38:	00005517          	auipc	a0,0x5
    80004c3c:	33850513          	add	a0,a0,824 # 80009f70 <softfloat_countLeadingZeros8+0x338>
    80004c40:	00006697          	auipc	a3,0x6
    80004c44:	99068693          	add	a3,a3,-1648 # 8000a5d0 <softfloat_countLeadingZeros8+0x998>
    80004c48:	2a300613          	li	a2,675
    80004c4c:	00006597          	auipc	a1,0x6
    80004c50:	83458593          	add	a1,a1,-1996 # 8000a480 <softfloat_countLeadingZeros8+0x848>
    80004c54:	c7cfe0ef          	jal	800030d0 <printm>
    80004c58:	6541                	lui	a0,0x10
    80004c5a:	157d                	add	a0,a0,-1 # ffff <_ftext-0x7fff0001>
    80004c5c:	d20fe0ef          	jal	8000317c <poweroff>
    80004c60:	00005517          	auipc	a0,0x5
    80004c64:	31050513          	add	a0,a0,784 # 80009f70 <softfloat_countLeadingZeros8+0x338>
    80004c68:	00006697          	auipc	a3,0x6
    80004c6c:	97868693          	add	a3,a3,-1672 # 8000a5e0 <softfloat_countLeadingZeros8+0x9a8>
    80004c70:	2a400613          	li	a2,676
    80004c74:	00006597          	auipc	a1,0x6
    80004c78:	80c58593          	add	a1,a1,-2036 # 8000a480 <softfloat_countLeadingZeros8+0x848>
    80004c7c:	c54fe0ef          	jal	800030d0 <printm>
    80004c80:	6541                	lui	a0,0x10
    80004c82:	157d                	add	a0,a0,-1 # ffff <_ftext-0x7fff0001>
    80004c84:	cf8fe0ef          	jal	8000317c <poweroff>

0000000080004c88 <mem_done>:
    80004c88:	419c                	lw	a5,0(a1)
    80004c8a:	0085b383          	ld	t2,8(a1)
    80004c8e:	4998                	lw	a4,16(a1)
    80004c90:	10078f63          	beqz	a5,80004dae <mem_done+0x126>
    80004c94:	1101                	add	sp,sp,-32
    80004c96:	ec06                	sd	ra,24(sp)
    80004c98:	e822                	sd	s0,16(sp)
    80004c9a:	e426                	sd	s1,8(sp)
    80004c9c:	10038a63          	beqz	t2,80004db0 <mem_done+0x128>
    80004ca0:	00377793          	and	a5,a4,3
    80004ca4:	10079663          	bnez	a5,80004db0 <mem_done+0x128>
    80004ca8:	41f7579b          	sraw	a5,a4,0x1f
    80004cac:	01e7d79b          	srlw	a5,a5,0x1e
    80004cb0:	9fb9                	addw	a5,a5,a4
    80004cb2:	4027d79b          	sraw	a5,a5,0x2
    80004cb6:	078a                	sll	a5,a5,0x2
    80004cb8:	00f38e33          	add	t3,t2,a5
    80004cbc:	0cf05b63          	blez	a5,80004d92 <mem_done+0x10a>
    80004cc0:	611c                	ld	a5,0(a0)
    80004cc2:	00000817          	auipc	a6,0x0
    80004cc6:	fc680813          	add	a6,a6,-58 # 80004c88 <mem_done>
    80004cca:	4311                	li	t1,4
    80004ccc:	0107af03          	lw	t5,16(a5)
    80004cd0:	4bc8                	lw	a0,20(a5)
    80004cd2:	ffff089b          	addw	a7,t5,-1
    80004cd6:	02089793          	sll	a5,a7,0x20
    80004cda:	01e7d893          	srl	a7,a5,0x1e
    80004cde:	0891                	add	a7,a7,4
    80004ce0:	00a05963          	blez	a0,80004cf2 <mem_done+0x6a>
    80004ce4:	fff5031b          	addw	t1,a0,-1
    80004ce8:	02031793          	sll	a5,t1,0x20
    80004cec:	01e7d313          	srl	t1,a5,0x1e
    80004cf0:	0311                	add	t1,t1,4
    80004cf2:	ff010637          	lui	a2,0xff010
    80004cf6:	00ff06b7          	lui	a3,0xff0
    80004cfa:	4f81                	li	t6,0
    80004cfc:	f0060613          	add	a2,a2,-256 # ffffffffff00ff00 <_end+0xffffffff7eff7f00>
    80004d00:	0ff68693          	add	a3,a3,255 # ff00ff <_ftext-0x7f00ff01>
    80004d04:	09e05e63          	blez	t5,80004da0 <mem_done+0x118>
    80004d08:	011385b3          	add	a1,t2,a7
    80004d0c:	4281                	li	t0,0
    80004d0e:	0003a703          	lw	a4,0(t2)
    80004d12:	1282                	sll	t0,t0,0x20
    80004d14:	0391                	add	t2,t2,4
    80004d16:	0087179b          	sllw	a5,a4,0x8
    80004d1a:	0087571b          	srlw	a4,a4,0x8
    80004d1e:	8f75                	and	a4,a4,a3
    80004d20:	8ff1                	and	a5,a5,a2
    80004d22:	8fd9                	or	a5,a5,a4
    80004d24:	0107971b          	sllw	a4,a5,0x10
    80004d28:	0107d79b          	srlw	a5,a5,0x10
    80004d2c:	8fd9                	or	a5,a5,a4
    80004d2e:	1782                	sll	a5,a5,0x20
    80004d30:	9381                	srl	a5,a5,0x20
    80004d32:	92be                	add	t0,t0,a5
    80004d34:	fcb39de3          	bne	t2,a1,80004d0e <mem_done+0x86>
    80004d38:	06a05963          	blez	a0,80004daa <mem_done+0x122>
    80004d3c:	84aa                	mv	s1,a0
    80004d3e:	842e                	mv	s0,a1
    80004d40:	4781                	li	a5,0
    80004d42:	4018                	lw	a4,0(s0)
    80004d44:	02079393          	sll	t2,a5,0x20
    80004d48:	34fd                	addw	s1,s1,-1
    80004d4a:	0087179b          	sllw	a5,a4,0x8
    80004d4e:	0087571b          	srlw	a4,a4,0x8
    80004d52:	8f75                	and	a4,a4,a3
    80004d54:	8ff1                	and	a5,a5,a2
    80004d56:	8fd9                	or	a5,a5,a4
    80004d58:	0107971b          	sllw	a4,a5,0x10
    80004d5c:	0107d79b          	srlw	a5,a5,0x10
    80004d60:	8fd9                	or	a5,a5,a4
    80004d62:	1782                	sll	a5,a5,0x20
    80004d64:	9381                	srl	a5,a5,0x20
    80004d66:	0411                	add	s0,s0,4
    80004d68:	979e                	add	a5,a5,t2
    80004d6a:	fce1                	bnez	s1,80004d42 <mem_done+0xba>
    80004d6c:	006583b3          	add	t2,a1,t1
    80004d70:	00586763          	bltu	a6,t0,80004d7e <mem_done+0xf6>
    80004d74:	92be                	add	t0,t0,a5
    80004d76:	0102e463          	bltu	t0,a6,80004d7e <mem_done+0xf6>
    80004d7a:	8ebe                	mv	t4,a5
    80004d7c:	4f85                	li	t6,1
    80004d7e:	407e07b3          	sub	a5,t3,t2
    80004d82:	f8f041e3          	bgtz	a5,80004d04 <mem_done+0x7c>
    80004d86:	000f8663          	beqz	t6,80004d92 <mem_done+0x10a>
    80004d8a:	00012797          	auipc	a5,0x12
    80004d8e:	33d7b323          	sd	t4,806(a5) # 800170b0 <mem_size>
    80004d92:	047e1363          	bne	t3,t2,80004dd8 <mem_done+0x150>
    80004d96:	60e2                	ld	ra,24(sp)
    80004d98:	6442                	ld	s0,16(sp)
    80004d9a:	64a2                	ld	s1,8(sp)
    80004d9c:	6105                	add	sp,sp,32
    80004d9e:	8082                	ret
    80004da0:	859e                	mv	a1,t2
    80004da2:	4281                	li	t0,0
    80004da4:	f8a04ce3          	bgtz	a0,80004d3c <mem_done+0xb4>
    80004da8:	bfd9                	j	80004d7e <mem_done+0xf6>
    80004daa:	4781                	li	a5,0
    80004dac:	b7d1                	j	80004d70 <mem_done+0xe8>
    80004dae:	8082                	ret
    80004db0:	00005517          	auipc	a0,0x5
    80004db4:	1c050513          	add	a0,a0,448 # 80009f70 <softfloat_countLeadingZeros8+0x338>
    80004db8:	00006697          	auipc	a3,0x6
    80004dbc:	8b868693          	add	a3,a3,-1864 # 8000a670 <softfloat_countLeadingZeros8+0xa38>
    80004dc0:	0b900613          	li	a2,185
    80004dc4:	00005597          	auipc	a1,0x5
    80004dc8:	6bc58593          	add	a1,a1,1724 # 8000a480 <softfloat_countLeadingZeros8+0x848>
    80004dcc:	b04fe0ef          	jal	800030d0 <printm>
    80004dd0:	6541                	lui	a0,0x10
    80004dd2:	157d                	add	a0,a0,-1 # ffff <_ftext-0x7fff0001>
    80004dd4:	ba8fe0ef          	jal	8000317c <poweroff>
    80004dd8:	00005517          	auipc	a0,0x5
    80004ddc:	19850513          	add	a0,a0,408 # 80009f70 <softfloat_countLeadingZeros8+0x338>
    80004de0:	00006697          	auipc	a3,0x6
    80004de4:	8c068693          	add	a3,a3,-1856 # 8000a6a0 <softfloat_countLeadingZeros8+0xa68>
    80004de8:	0c100613          	li	a2,193
    80004dec:	00005597          	auipc	a1,0x5
    80004df0:	69458593          	add	a1,a1,1684 # 8000a480 <softfloat_countLeadingZeros8+0x848>
    80004df4:	adcfe0ef          	jal	800030d0 <printm>
    80004df8:	6541                	lui	a0,0x10
    80004dfa:	157d                	add	a0,a0,-1 # ffff <_ftext-0x7fff0001>
    80004dfc:	b80fe0ef          	jal	8000317c <poweroff>

0000000080004e00 <compat_prop>:
    80004e00:	7179                	add	sp,sp,-48
    80004e02:	ec26                	sd	s1,24(sp)
    80004e04:	84aa                	mv	s1,a0
    80004e06:	6508                	ld	a0,8(a0)
    80004e08:	e44e                	sd	s3,8(sp)
    80004e0a:	89ae                	mv	s3,a1
    80004e0c:	00005597          	auipc	a1,0x5
    80004e10:	58c58593          	add	a1,a1,1420 # 8000a398 <softfloat_countLeadingZeros8+0x760>
    80004e14:	f406                	sd	ra,40(sp)
    80004e16:	f022                	sd	s0,32(sp)
    80004e18:	e84a                	sd	s2,16(sp)
    80004e1a:	09c040ef          	jal	80008eb6 <strcmp>
    80004e1e:	e909                	bnez	a0,80004e30 <compat_prop+0x30>
    80004e20:	6880                	ld	s0,16(s1)
    80004e22:	4c9c                	lw	a5,24(s1)
    80004e24:	0009b483          	ld	s1,0(s3)
    80004e28:	00f40933          	add	s2,s0,a5
    80004e2c:	02f04163          	bgtz	a5,80004e4e <compat_prop+0x4e>
    80004e30:	70a2                	ld	ra,40(sp)
    80004e32:	7402                	ld	s0,32(sp)
    80004e34:	64e2                	ld	s1,24(sp)
    80004e36:	6942                	ld	s2,16(sp)
    80004e38:	69a2                	ld	s3,8(sp)
    80004e3a:	6145                	add	sp,sp,48
    80004e3c:	8082                	ret
    80004e3e:	05e040ef          	jal	80008e9c <strlen>
    80004e42:	0505                	add	a0,a0,1
    80004e44:	942a                	add	s0,s0,a0
    80004e46:	408907b3          	sub	a5,s2,s0
    80004e4a:	fef053e3          	blez	a5,80004e30 <compat_prop+0x30>
    80004e4e:	85a6                	mv	a1,s1
    80004e50:	8522                	mv	a0,s0
    80004e52:	064040ef          	jal	80008eb6 <strcmp>
    80004e56:	87aa                	mv	a5,a0
    80004e58:	8522                	mv	a0,s0
    80004e5a:	f3f5                	bnez	a5,80004e3e <compat_prop+0x3e>
    80004e5c:	0089a783          	lw	a5,8(s3)
    80004e60:	00c9a703          	lw	a4,12(s3)
    80004e64:	fce7d6e3          	bge	a5,a4,80004e30 <compat_prop+0x30>
    80004e68:	70a2                	ld	ra,40(sp)
    80004e6a:	7402                	ld	s0,32(sp)
    80004e6c:	00f9a623          	sw	a5,12(s3)
    80004e70:	64e2                	ld	s1,24(sp)
    80004e72:	6942                	ld	s2,16(sp)
    80004e74:	69a2                	ld	s3,8(sp)
    80004e76:	6145                	add	sp,sp,48
    80004e78:	8082                	ret

0000000080004e7a <hart_filter_prop>:
    80004e7a:	1101                	add	sp,sp,-32
    80004e7c:	e04a                	sd	s2,0(sp)
    80004e7e:	00853903          	ld	s2,8(a0)
    80004e82:	e822                	sd	s0,16(sp)
    80004e84:	e426                	sd	s1,8(sp)
    80004e86:	842e                	mv	s0,a1
    80004e88:	84aa                	mv	s1,a0
    80004e8a:	00005597          	auipc	a1,0x5
    80004e8e:	5ce58593          	add	a1,a1,1486 # 8000a458 <softfloat_countLeadingZeros8+0x820>
    80004e92:	854a                	mv	a0,s2
    80004e94:	ec06                	sd	ra,24(sp)
    80004e96:	020040ef          	jal	80008eb6 <strcmp>
    80004e9a:	e909                	bnez	a0,80004eac <hart_filter_prop+0x32>
    80004e9c:	6888                	ld	a0,16(s1)
    80004e9e:	00006597          	auipc	a1,0x6
    80004ea2:	81258593          	add	a1,a1,-2030 # 8000a6b0 <softfloat_countLeadingZeros8+0xa78>
    80004ea6:	010040ef          	jal	80008eb6 <strcmp>
    80004eaa:	c931                	beqz	a0,80004efe <hart_filter_prop+0x84>
    80004eac:	00005597          	auipc	a1,0x5
    80004eb0:	51c58593          	add	a1,a1,1308 # 8000a3c8 <softfloat_countLeadingZeros8+0x790>
    80004eb4:	854a                	mv	a0,s2
    80004eb6:	000040ef          	jal	80008eb6 <strcmp>
    80004eba:	87aa                	mv	a5,a0
    80004ebc:	c929                	beqz	a0,80004f0e <hart_filter_prop+0x94>
    80004ebe:	00005597          	auipc	a1,0x5
    80004ec2:	71a58593          	add	a1,a1,1818 # 8000a5d8 <softfloat_countLeadingZeros8+0x9a0>
    80004ec6:	854a                	mv	a0,s2
    80004ec8:	7ef030ef          	jal	80008eb6 <strcmp>
    80004ecc:	e909                	bnez	a0,80004ede <hart_filter_prop+0x64>
    80004ece:	689c                	ld	a5,16(s1)
    80004ed0:	e41c                	sd	a5,8(s0)
    80004ed2:	60e2                	ld	ra,24(sp)
    80004ed4:	6442                	ld	s0,16(sp)
    80004ed6:	64a2                	ld	s1,8(sp)
    80004ed8:	6902                	ld	s2,0(sp)
    80004eda:	6105                	add	sp,sp,32
    80004edc:	8082                	ret
    80004ede:	00005597          	auipc	a1,0x5
    80004ee2:	7da58593          	add	a1,a1,2010 # 8000a6b8 <softfloat_countLeadingZeros8+0xa80>
    80004ee6:	854a                	mv	a0,s2
    80004ee8:	7cf030ef          	jal	80008eb6 <strcmp>
    80004eec:	f17d                	bnez	a0,80004ed2 <hart_filter_prop+0x58>
    80004eee:	689c                	ld	a5,16(s1)
    80004ef0:	60e2                	ld	ra,24(sp)
    80004ef2:	64a2                	ld	s1,8(sp)
    80004ef4:	e81c                	sd	a5,16(s0)
    80004ef6:	6442                	ld	s0,16(sp)
    80004ef8:	6902                	ld	s2,0(sp)
    80004efa:	6105                	add	sp,sp,32
    80004efc:	8082                	ret
    80004efe:	4785                	li	a5,1
    80004f00:	60e2                	ld	ra,24(sp)
    80004f02:	c01c                	sw	a5,0(s0)
    80004f04:	6442                	ld	s0,16(sp)
    80004f06:	64a2                	ld	s1,8(sp)
    80004f08:	6902                	ld	s2,0(sp)
    80004f0a:	6105                	add	sp,sp,32
    80004f0c:	8082                	ret
    80004f0e:	6098                	ld	a4,0(s1)
    80004f10:	6890                	ld	a2,16(s1)
    80004f12:	6318                	ld	a4,0(a4)
    80004f14:	4b0c                	lw	a1,16(a4)
    80004f16:	04b05763          	blez	a1,80004f64 <hart_filter_prop+0xea>
    80004f1a:	02059793          	sll	a5,a1,0x20
    80004f1e:	01e7d593          	srl	a1,a5,0x1e
    80004f22:	ff010837          	lui	a6,0xff010
    80004f26:	00ff0537          	lui	a0,0xff0
    80004f2a:	95b2                	add	a1,a1,a2
    80004f2c:	4781                	li	a5,0
    80004f2e:	f0080813          	add	a6,a6,-256 # ffffffffff00ff00 <_end+0xffffffff7eff7f00>
    80004f32:	0ff50513          	add	a0,a0,255 # ff00ff <_ftext-0x7f00ff01>
    80004f36:	4218                	lw	a4,0(a2)
    80004f38:	02079693          	sll	a3,a5,0x20
    80004f3c:	0611                	add	a2,a2,4
    80004f3e:	0087179b          	sllw	a5,a4,0x8
    80004f42:	0087571b          	srlw	a4,a4,0x8
    80004f46:	8f69                	and	a4,a4,a0
    80004f48:	0107f7b3          	and	a5,a5,a6
    80004f4c:	8fd9                	or	a5,a5,a4
    80004f4e:	0107971b          	sllw	a4,a5,0x10
    80004f52:	0107d79b          	srlw	a5,a5,0x10
    80004f56:	8fd9                	or	a5,a5,a4
    80004f58:	1782                	sll	a5,a5,0x20
    80004f5a:	9381                	srl	a5,a5,0x20
    80004f5c:	97b6                	add	a5,a5,a3
    80004f5e:	fcb61ce3          	bne	a2,a1,80004f36 <hart_filter_prop+0xbc>
    80004f62:	2781                	sext.w	a5,a5
    80004f64:	60e2                	ld	ra,24(sp)
    80004f66:	c05c                	sw	a5,4(s0)
    80004f68:	6442                	ld	s0,16(sp)
    80004f6a:	64a2                	ld	s1,8(sp)
    80004f6c:	6902                	ld	s2,0(sp)
    80004f6e:	6105                	add	sp,sp,32
    80004f70:	8082                	ret

0000000080004f72 <clint_prop>:
    80004f72:	7139                	add	sp,sp,-64
    80004f74:	e456                	sd	s5,8(sp)
    80004f76:	00853a83          	ld	s5,8(a0)
    80004f7a:	f426                	sd	s1,40(sp)
    80004f7c:	f04a                	sd	s2,32(sp)
    80004f7e:	84ae                	mv	s1,a1
    80004f80:	892a                	mv	s2,a0
    80004f82:	00005597          	auipc	a1,0x5
    80004f86:	41658593          	add	a1,a1,1046 # 8000a398 <softfloat_countLeadingZeros8+0x760>
    80004f8a:	8556                	mv	a0,s5
    80004f8c:	fc06                	sd	ra,56(sp)
    80004f8e:	f822                	sd	s0,48(sp)
    80004f90:	ec4e                	sd	s3,24(sp)
    80004f92:	e852                	sd	s4,16(sp)
    80004f94:	723030ef          	jal	80008eb6 <strcmp>
    80004f98:	e121                	bnez	a0,80004fd8 <clint_prop+0x66>
    80004f9a:	01093403          	ld	s0,16(s2)
    80004f9e:	01892783          	lw	a5,24(s2)
    80004fa2:	00f40a33          	add	s4,s0,a5
    80004fa6:	02f05963          	blez	a5,80004fd8 <clint_prop+0x66>
    80004faa:	00005997          	auipc	s3,0x5
    80004fae:	71e98993          	add	s3,s3,1822 # 8000a6c8 <softfloat_countLeadingZeros8+0xa90>
    80004fb2:	a809                	j	80004fc4 <clint_prop+0x52>
    80004fb4:	6e9030ef          	jal	80008e9c <strlen>
    80004fb8:	0505                	add	a0,a0,1
    80004fba:	942a                	add	s0,s0,a0
    80004fbc:	408a07b3          	sub	a5,s4,s0
    80004fc0:	00f05c63          	blez	a5,80004fd8 <clint_prop+0x66>
    80004fc4:	85ce                	mv	a1,s3
    80004fc6:	8522                	mv	a0,s0
    80004fc8:	6ef030ef          	jal	80008eb6 <strcmp>
    80004fcc:	87aa                	mv	a5,a0
    80004fce:	8522                	mv	a0,s0
    80004fd0:	f3f5                	bnez	a5,80004fb4 <clint_prop+0x42>
    80004fd2:	4785                	li	a5,1
    80004fd4:	c09c                	sw	a5,0(s1)
    80004fd6:	a03d                	j	80005004 <clint_prop+0x92>
    80004fd8:	00005597          	auipc	a1,0x5
    80004fdc:	3f058593          	add	a1,a1,1008 # 8000a3c8 <softfloat_countLeadingZeros8+0x790>
    80004fe0:	8556                	mv	a0,s5
    80004fe2:	6d5030ef          	jal	80008eb6 <strcmp>
    80004fe6:	c905                	beqz	a0,80005016 <clint_prop+0xa4>
    80004fe8:	00005597          	auipc	a1,0x5
    80004fec:	6f058593          	add	a1,a1,1776 # 8000a6d8 <softfloat_countLeadingZeros8+0xaa0>
    80004ff0:	8556                	mv	a0,s5
    80004ff2:	6c5030ef          	jal	80008eb6 <strcmp>
    80004ff6:	e519                	bnez	a0,80005004 <clint_prop+0x92>
    80004ff8:	01093703          	ld	a4,16(s2)
    80004ffc:	01892783          	lw	a5,24(s2)
    80005000:	e898                	sd	a4,16(s1)
    80005002:	cc9c                	sw	a5,24(s1)
    80005004:	70e2                	ld	ra,56(sp)
    80005006:	7442                	ld	s0,48(sp)
    80005008:	74a2                	ld	s1,40(sp)
    8000500a:	7902                	ld	s2,32(sp)
    8000500c:	69e2                	ld	s3,24(sp)
    8000500e:	6a42                	ld	s4,16(sp)
    80005010:	6aa2                	ld	s5,8(sp)
    80005012:	6121                	add	sp,sp,64
    80005014:	8082                	ret
    80005016:	00093783          	ld	a5,0(s2)
    8000501a:	01093683          	ld	a3,16(s2)
    8000501e:	639c                	ld	a5,0(a5)
    80005020:	0004b423          	sd	zero,8(s1)
    80005024:	4b8c                	lw	a1,16(a5)
    80005026:	fcb05fe3          	blez	a1,80005004 <clint_prop+0x92>
    8000502a:	02059793          	sll	a5,a1,0x20
    8000502e:	01e7d593          	srl	a1,a5,0x1e
    80005032:	ff010837          	lui	a6,0xff010
    80005036:	00ff0537          	lui	a0,0xff0
    8000503a:	95b6                	add	a1,a1,a3
    8000503c:	4781                	li	a5,0
    8000503e:	f0080813          	add	a6,a6,-256 # ffffffffff00ff00 <_end+0xffffffff7eff7f00>
    80005042:	0ff50513          	add	a0,a0,255 # ff00ff <_ftext-0x7f00ff01>
    80005046:	4298                	lw	a4,0(a3)
    80005048:	02079613          	sll	a2,a5,0x20
    8000504c:	0691                	add	a3,a3,4
    8000504e:	0087179b          	sllw	a5,a4,0x8
    80005052:	0087571b          	srlw	a4,a4,0x8
    80005056:	8f69                	and	a4,a4,a0
    80005058:	0107f7b3          	and	a5,a5,a6
    8000505c:	8fd9                	or	a5,a5,a4
    8000505e:	0107971b          	sllw	a4,a5,0x10
    80005062:	0107d79b          	srlw	a5,a5,0x10
    80005066:	8fd9                	or	a5,a5,a4
    80005068:	1782                	sll	a5,a5,0x20
    8000506a:	9381                	srl	a5,a5,0x20
    8000506c:	97b2                	add	a5,a5,a2
    8000506e:	fcb69ce3          	bne	a3,a1,80005046 <clint_prop+0xd4>
    80005072:	e49c                	sd	a5,8(s1)
    80005074:	bf41                	j	80005004 <clint_prop+0x92>

0000000080005076 <chosen_prop>:
    80005076:	619c                	ld	a5,0(a1)
    80005078:	10078363          	beqz	a5,8000517e <chosen_prop+0x108>
    8000507c:	1101                	add	sp,sp,-32
    8000507e:	e04a                	sd	s2,0(sp)
    80005080:	00853903          	ld	s2,8(a0)
    80005084:	e822                	sd	s0,16(sp)
    80005086:	e426                	sd	s1,8(sp)
    80005088:	842e                	mv	s0,a1
    8000508a:	84aa                	mv	s1,a0
    8000508c:	00005597          	auipc	a1,0x5
    80005090:	66458593          	add	a1,a1,1636 # 8000a6f0 <softfloat_countLeadingZeros8+0xab8>
    80005094:	854a                	mv	a0,s2
    80005096:	ec06                	sd	ra,24(sp)
    80005098:	61f030ef          	jal	80008eb6 <strcmp>
    8000509c:	cd19                	beqz	a0,800050ba <chosen_prop+0x44>
    8000509e:	00005597          	auipc	a1,0x5
    800050a2:	66a58593          	add	a1,a1,1642 # 8000a708 <softfloat_countLeadingZeros8+0xad0>
    800050a6:	854a                	mv	a0,s2
    800050a8:	60f030ef          	jal	80008eb6 <strcmp>
    800050ac:	c925                	beqz	a0,8000511c <chosen_prop+0xa6>
    800050ae:	60e2                	ld	ra,24(sp)
    800050b0:	6442                	ld	s0,16(sp)
    800050b2:	64a2                	ld	s1,8(sp)
    800050b4:	6902                	ld	s2,0(sp)
    800050b6:	6105                	add	sp,sp,32
    800050b8:	8082                	ret
    800050ba:	609c                	ld	a5,0(s1)
    800050bc:	6890                	ld	a2,16(s1)
    800050be:	639c                	ld	a5,0(a5)
    800050c0:	4b8c                	lw	a1,16(a5)
    800050c2:	0ab05f63          	blez	a1,80005180 <chosen_prop+0x10a>
    800050c6:	02059793          	sll	a5,a1,0x20
    800050ca:	01e7d593          	srl	a1,a5,0x1e
    800050ce:	ff010837          	lui	a6,0xff010
    800050d2:	00ff0537          	lui	a0,0xff0
    800050d6:	95b2                	add	a1,a1,a2
    800050d8:	4781                	li	a5,0
    800050da:	f0080813          	add	a6,a6,-256 # ffffffffff00ff00 <_end+0xffffffff7eff7f00>
    800050de:	0ff50513          	add	a0,a0,255 # ff00ff <_ftext-0x7f00ff01>
    800050e2:	4218                	lw	a4,0(a2)
    800050e4:	02079693          	sll	a3,a5,0x20
    800050e8:	0611                	add	a2,a2,4
    800050ea:	0087179b          	sllw	a5,a4,0x8
    800050ee:	0087571b          	srlw	a4,a4,0x8
    800050f2:	8f69                	and	a4,a4,a0
    800050f4:	0107f7b3          	and	a5,a5,a6
    800050f8:	8fd9                	or	a5,a5,a4
    800050fa:	0107971b          	sllw	a4,a5,0x10
    800050fe:	0107d79b          	srlw	a5,a5,0x10
    80005102:	8fd9                	or	a5,a5,a4
    80005104:	1782                	sll	a5,a5,0x20
    80005106:	9381                	srl	a5,a5,0x20
    80005108:	97b6                	add	a5,a5,a3
    8000510a:	fcb61ce3          	bne	a2,a1,800050e2 <chosen_prop+0x6c>
    8000510e:	e41c                	sd	a5,8(s0)
    80005110:	60e2                	ld	ra,24(sp)
    80005112:	6442                	ld	s0,16(sp)
    80005114:	64a2                	ld	s1,8(sp)
    80005116:	6902                	ld	s2,0(sp)
    80005118:	6105                	add	sp,sp,32
    8000511a:	8082                	ret
    8000511c:	609c                	ld	a5,0(s1)
    8000511e:	6890                	ld	a2,16(s1)
    80005120:	639c                	ld	a5,0(a5)
    80005122:	4b8c                	lw	a1,16(a5)
    80005124:	06b05163          	blez	a1,80005186 <chosen_prop+0x110>
    80005128:	02059793          	sll	a5,a1,0x20
    8000512c:	01e7d593          	srl	a1,a5,0x1e
    80005130:	ff010837          	lui	a6,0xff010
    80005134:	00ff0537          	lui	a0,0xff0
    80005138:	95b2                	add	a1,a1,a2
    8000513a:	4781                	li	a5,0
    8000513c:	f0080813          	add	a6,a6,-256 # ffffffffff00ff00 <_end+0xffffffff7eff7f00>
    80005140:	0ff50513          	add	a0,a0,255 # ff00ff <_ftext-0x7f00ff01>
    80005144:	4218                	lw	a4,0(a2)
    80005146:	02079693          	sll	a3,a5,0x20
    8000514a:	0611                	add	a2,a2,4
    8000514c:	0087179b          	sllw	a5,a4,0x8
    80005150:	0087571b          	srlw	a4,a4,0x8
    80005154:	8f69                	and	a4,a4,a0
    80005156:	0107f7b3          	and	a5,a5,a6
    8000515a:	8fd9                	or	a5,a5,a4
    8000515c:	0107971b          	sllw	a4,a5,0x10
    80005160:	0107d79b          	srlw	a5,a5,0x10
    80005164:	8fd9                	or	a5,a5,a4
    80005166:	1782                	sll	a5,a5,0x20
    80005168:	9381                	srl	a5,a5,0x20
    8000516a:	97b6                	add	a5,a5,a3
    8000516c:	fcb61ce3          	bne	a2,a1,80005144 <chosen_prop+0xce>
    80005170:	e81c                	sd	a5,16(s0)
    80005172:	60e2                	ld	ra,24(sp)
    80005174:	6442                	ld	s0,16(sp)
    80005176:	64a2                	ld	s1,8(sp)
    80005178:	6902                	ld	s2,0(sp)
    8000517a:	6105                	add	sp,sp,32
    8000517c:	8082                	ret
    8000517e:	8082                	ret
    80005180:	4781                	li	a5,0
    80005182:	e41c                	sd	a5,8(s0)
    80005184:	b771                	j	80005110 <chosen_prop+0x9a>
    80005186:	4781                	li	a5,0
    80005188:	e81c                	sd	a5,16(s0)
    8000518a:	b7e5                	j	80005172 <chosen_prop+0xfc>

000000008000518c <plic_prop>:
    8000518c:	7139                	add	sp,sp,-64
    8000518e:	e456                	sd	s5,8(sp)
    80005190:	00853a83          	ld	s5,8(a0)
    80005194:	f426                	sd	s1,40(sp)
    80005196:	f04a                	sd	s2,32(sp)
    80005198:	84ae                	mv	s1,a1
    8000519a:	892a                	mv	s2,a0
    8000519c:	00005597          	auipc	a1,0x5
    800051a0:	1fc58593          	add	a1,a1,508 # 8000a398 <softfloat_countLeadingZeros8+0x760>
    800051a4:	8556                	mv	a0,s5
    800051a6:	fc06                	sd	ra,56(sp)
    800051a8:	f822                	sd	s0,48(sp)
    800051aa:	ec4e                	sd	s3,24(sp)
    800051ac:	e852                	sd	s4,16(sp)
    800051ae:	509030ef          	jal	80008eb6 <strcmp>
    800051b2:	e121                	bnez	a0,800051f2 <plic_prop+0x66>
    800051b4:	01093403          	ld	s0,16(s2)
    800051b8:	01892783          	lw	a5,24(s2)
    800051bc:	00f40a33          	add	s4,s0,a5
    800051c0:	02f05963          	blez	a5,800051f2 <plic_prop+0x66>
    800051c4:	00005997          	auipc	s3,0x5
    800051c8:	55c98993          	add	s3,s3,1372 # 8000a720 <softfloat_countLeadingZeros8+0xae8>
    800051cc:	a809                	j	800051de <plic_prop+0x52>
    800051ce:	4cf030ef          	jal	80008e9c <strlen>
    800051d2:	0505                	add	a0,a0,1
    800051d4:	942a                	add	s0,s0,a0
    800051d6:	408a07b3          	sub	a5,s4,s0
    800051da:	00f05c63          	blez	a5,800051f2 <plic_prop+0x66>
    800051de:	85ce                	mv	a1,s3
    800051e0:	8522                	mv	a0,s0
    800051e2:	4d5030ef          	jal	80008eb6 <strcmp>
    800051e6:	87aa                	mv	a5,a0
    800051e8:	8522                	mv	a0,s0
    800051ea:	f3f5                	bnez	a5,800051ce <plic_prop+0x42>
    800051ec:	4785                	li	a5,1
    800051ee:	c09c                	sw	a5,0(s1)
    800051f0:	a03d                	j	8000521e <plic_prop+0x92>
    800051f2:	00005597          	auipc	a1,0x5
    800051f6:	1d658593          	add	a1,a1,470 # 8000a3c8 <softfloat_countLeadingZeros8+0x790>
    800051fa:	8556                	mv	a0,s5
    800051fc:	4bb030ef          	jal	80008eb6 <strcmp>
    80005200:	c905                	beqz	a0,80005230 <plic_prop+0xa4>
    80005202:	00005597          	auipc	a1,0x5
    80005206:	4d658593          	add	a1,a1,1238 # 8000a6d8 <softfloat_countLeadingZeros8+0xaa0>
    8000520a:	8556                	mv	a0,s5
    8000520c:	4ab030ef          	jal	80008eb6 <strcmp>
    80005210:	e141                	bnez	a0,80005290 <plic_prop+0x104>
    80005212:	01093703          	ld	a4,16(s2)
    80005216:	01892783          	lw	a5,24(s2)
    8000521a:	e898                	sd	a4,16(s1)
    8000521c:	cc9c                	sw	a5,24(s1)
    8000521e:	70e2                	ld	ra,56(sp)
    80005220:	7442                	ld	s0,48(sp)
    80005222:	74a2                	ld	s1,40(sp)
    80005224:	7902                	ld	s2,32(sp)
    80005226:	69e2                	ld	s3,24(sp)
    80005228:	6a42                	ld	s4,16(sp)
    8000522a:	6aa2                	ld	s5,8(sp)
    8000522c:	6121                	add	sp,sp,64
    8000522e:	8082                	ret
    80005230:	00093783          	ld	a5,0(s2)
    80005234:	01093683          	ld	a3,16(s2)
    80005238:	639c                	ld	a5,0(a5)
    8000523a:	0004b423          	sd	zero,8(s1)
    8000523e:	4b8c                	lw	a1,16(a5)
    80005240:	fcb05fe3          	blez	a1,8000521e <plic_prop+0x92>
    80005244:	02059793          	sll	a5,a1,0x20
    80005248:	01e7d593          	srl	a1,a5,0x1e
    8000524c:	ff010837          	lui	a6,0xff010
    80005250:	00ff0537          	lui	a0,0xff0
    80005254:	95b6                	add	a1,a1,a3
    80005256:	4781                	li	a5,0
    80005258:	f0080813          	add	a6,a6,-256 # ffffffffff00ff00 <_end+0xffffffff7eff7f00>
    8000525c:	0ff50513          	add	a0,a0,255 # ff00ff <_ftext-0x7f00ff01>
    80005260:	4298                	lw	a4,0(a3)
    80005262:	02079613          	sll	a2,a5,0x20
    80005266:	0691                	add	a3,a3,4
    80005268:	0087179b          	sllw	a5,a4,0x8
    8000526c:	0087571b          	srlw	a4,a4,0x8
    80005270:	8f69                	and	a4,a4,a0
    80005272:	0107f7b3          	and	a5,a5,a6
    80005276:	8fd9                	or	a5,a5,a4
    80005278:	0107971b          	sllw	a4,a5,0x10
    8000527c:	0107d79b          	srlw	a5,a5,0x10
    80005280:	8fd9                	or	a5,a5,a4
    80005282:	1782                	sll	a5,a5,0x20
    80005284:	9381                	srl	a5,a5,0x20
    80005286:	97b2                	add	a5,a5,a2
    80005288:	fcb69ce3          	bne	a3,a1,80005260 <plic_prop+0xd4>
    8000528c:	e49c                	sd	a5,8(s1)
    8000528e:	bf41                	j	8000521e <plic_prop+0x92>
    80005290:	00005597          	auipc	a1,0x5
    80005294:	4a058593          	add	a1,a1,1184 # 8000a730 <softfloat_countLeadingZeros8+0xaf8>
    80005298:	8556                	mv	a0,s5
    8000529a:	41d030ef          	jal	80008eb6 <strcmp>
    8000529e:	f141                	bnez	a0,8000521e <plic_prop+0x92>
    800052a0:	01093783          	ld	a5,16(s2)
    800052a4:	ff0106b7          	lui	a3,0xff010
    800052a8:	f0068693          	add	a3,a3,-256 # ffffffffff00ff00 <_end+0xffffffff7eff7f00>
    800052ac:	4398                	lw	a4,0(a5)
    800052ae:	0087179b          	sllw	a5,a4,0x8
    800052b2:	8ff5                	and	a5,a5,a3
    800052b4:	00ff06b7          	lui	a3,0xff0
    800052b8:	0087571b          	srlw	a4,a4,0x8
    800052bc:	0ff68693          	add	a3,a3,255 # ff00ff <_ftext-0x7f00ff01>
    800052c0:	8f75                	and	a4,a4,a3
    800052c2:	8fd9                	or	a5,a5,a4
    800052c4:	0107971b          	sllw	a4,a5,0x10
    800052c8:	0107d79b          	srlw	a5,a5,0x10
    800052cc:	8fd9                	or	a5,a5,a4
    800052ce:	d09c                	sw	a5,32(s1)
    800052d0:	b7b9                	j	8000521e <plic_prop+0x92>

00000000800052d2 <hart_prop>:
    800052d2:	1101                	add	sp,sp,-32
    800052d4:	e426                	sd	s1,8(sp)
    800052d6:	6504                	ld	s1,8(a0)
    800052d8:	e822                	sd	s0,16(sp)
    800052da:	e04a                	sd	s2,0(sp)
    800052dc:	842a                	mv	s0,a0
    800052de:	892e                	mv	s2,a1
    800052e0:	8526                	mv	a0,s1
    800052e2:	00005597          	auipc	a1,0x5
    800052e6:	17658593          	add	a1,a1,374 # 8000a458 <softfloat_countLeadingZeros8+0x820>
    800052ea:	ec06                	sd	ra,24(sp)
    800052ec:	3cb030ef          	jal	80008eb6 <strcmp>
    800052f0:	e515                	bnez	a0,8000531c <hart_prop+0x4a>
    800052f2:	6808                	ld	a0,16(s0)
    800052f4:	00005597          	auipc	a1,0x5
    800052f8:	3bc58593          	add	a1,a1,956 # 8000a6b0 <softfloat_countLeadingZeros8+0xa78>
    800052fc:	3bb030ef          	jal	80008eb6 <strcmp>
    80005300:	ed11                	bnez	a0,8000531c <hart_prop+0x4a>
    80005302:	00093783          	ld	a5,0(s2)
    80005306:	16079263          	bnez	a5,8000546a <hart_prop+0x198>
    8000530a:	601c                	ld	a5,0(s0)
    8000530c:	60e2                	ld	ra,24(sp)
    8000530e:	6442                	ld	s0,16(sp)
    80005310:	00f93023          	sd	a5,0(s2)
    80005314:	64a2                	ld	s1,8(sp)
    80005316:	6902                	ld	s2,0(sp)
    80005318:	6105                	add	sp,sp,32
    8000531a:	8082                	ret
    8000531c:	00005597          	auipc	a1,0x5
    80005320:	43458593          	add	a1,a1,1076 # 8000a750 <softfloat_countLeadingZeros8+0xb18>
    80005324:	8526                	mv	a0,s1
    80005326:	391030ef          	jal	80008eb6 <strcmp>
    8000532a:	ed11                	bnez	a0,80005346 <hart_prop+0x74>
    8000532c:	01093783          	ld	a5,16(s2)
    80005330:	10079963          	bnez	a5,80005442 <hart_prop+0x170>
    80005334:	601c                	ld	a5,0(s0)
    80005336:	00f93823          	sd	a5,16(s2)
    8000533a:	60e2                	ld	ra,24(sp)
    8000533c:	6442                	ld	s0,16(sp)
    8000533e:	64a2                	ld	s1,8(sp)
    80005340:	6902                	ld	s2,0(sp)
    80005342:	6105                	add	sp,sp,32
    80005344:	8082                	ret
    80005346:	00005597          	auipc	a1,0x5
    8000534a:	43a58593          	add	a1,a1,1082 # 8000a780 <softfloat_countLeadingZeros8+0xb48>
    8000534e:	8526                	mv	a0,s1
    80005350:	367030ef          	jal	80008eb6 <strcmp>
    80005354:	c131                	beqz	a0,80005398 <hart_prop+0xc6>
    80005356:	00005597          	auipc	a1,0x5
    8000535a:	44258593          	add	a1,a1,1090 # 8000a798 <softfloat_countLeadingZeros8+0xb60>
    8000535e:	8526                	mv	a0,s1
    80005360:	357030ef          	jal	80008eb6 <strcmp>
    80005364:	e925                	bnez	a0,800053d4 <hart_prop+0x102>
    80005366:	681c                	ld	a5,16(s0)
    80005368:	ff0106b7          	lui	a3,0xff010
    8000536c:	f0068693          	add	a3,a3,-256 # ffffffffff00ff00 <_end+0xffffffff7eff7f00>
    80005370:	4398                	lw	a4,0(a5)
    80005372:	0087179b          	sllw	a5,a4,0x8
    80005376:	8ff5                	and	a5,a5,a3
    80005378:	00ff06b7          	lui	a3,0xff0
    8000537c:	0087571b          	srlw	a4,a4,0x8
    80005380:	0ff68693          	add	a3,a3,255 # ff00ff <_ftext-0x7f00ff01>
    80005384:	8f75                	and	a4,a4,a3
    80005386:	8fd9                	or	a5,a5,a4
    80005388:	0107971b          	sllw	a4,a5,0x10
    8000538c:	0107d79b          	srlw	a5,a5,0x10
    80005390:	8fd9                	or	a5,a5,a4
    80005392:	00f92e23          	sw	a5,28(s2)
    80005396:	b755                	j	8000533a <hart_prop+0x68>
    80005398:	681c                	ld	a5,16(s0)
    8000539a:	ff0106b7          	lui	a3,0xff010
    8000539e:	f0068693          	add	a3,a3,-256 # ffffffffff00ff00 <_end+0xffffffff7eff7f00>
    800053a2:	4398                	lw	a4,0(a5)
    800053a4:	60e2                	ld	ra,24(sp)
    800053a6:	6442                	ld	s0,16(sp)
    800053a8:	0087179b          	sllw	a5,a4,0x8
    800053ac:	8ff5                	and	a5,a5,a3
    800053ae:	00ff06b7          	lui	a3,0xff0
    800053b2:	0087571b          	srlw	a4,a4,0x8
    800053b6:	0ff68693          	add	a3,a3,255 # ff00ff <_ftext-0x7f00ff01>
    800053ba:	8f75                	and	a4,a4,a3
    800053bc:	8fd9                	or	a5,a5,a4
    800053be:	0107971b          	sllw	a4,a5,0x10
    800053c2:	0107d79b          	srlw	a5,a5,0x10
    800053c6:	8fd9                	or	a5,a5,a4
    800053c8:	00f92c23          	sw	a5,24(s2)
    800053cc:	64a2                	ld	s1,8(sp)
    800053ce:	6902                	ld	s2,0(sp)
    800053d0:	6105                	add	sp,sp,32
    800053d2:	8082                	ret
    800053d4:	00005597          	auipc	a1,0x5
    800053d8:	ff458593          	add	a1,a1,-12 # 8000a3c8 <softfloat_countLeadingZeros8+0x790>
    800053dc:	8526                	mv	a0,s1
    800053de:	2d9030ef          	jal	80008eb6 <strcmp>
    800053e2:	fd21                	bnez	a0,8000533a <hart_prop+0x68>
    800053e4:	601c                	ld	a5,0(s0)
    800053e6:	6810                	ld	a2,16(s0)
    800053e8:	639c                	ld	a5,0(a5)
    800053ea:	4b8c                	lw	a1,16(a5)
    800053ec:	04b05863          	blez	a1,8000543c <hart_prop+0x16a>
    800053f0:	02059793          	sll	a5,a1,0x20
    800053f4:	01e7d593          	srl	a1,a5,0x1e
    800053f8:	ff010837          	lui	a6,0xff010
    800053fc:	00ff0537          	lui	a0,0xff0
    80005400:	95b2                	add	a1,a1,a2
    80005402:	4781                	li	a5,0
    80005404:	f0080813          	add	a6,a6,-256 # ffffffffff00ff00 <_end+0xffffffff7eff7f00>
    80005408:	0ff50513          	add	a0,a0,255 # ff00ff <_ftext-0x7f00ff01>
    8000540c:	4218                	lw	a4,0(a2)
    8000540e:	02079693          	sll	a3,a5,0x20
    80005412:	0611                	add	a2,a2,4
    80005414:	0087179b          	sllw	a5,a4,0x8
    80005418:	0087571b          	srlw	a4,a4,0x8
    8000541c:	8f69                	and	a4,a4,a0
    8000541e:	0107f7b3          	and	a5,a5,a6
    80005422:	8fd9                	or	a5,a5,a4
    80005424:	0107971b          	sllw	a4,a5,0x10
    80005428:	0107d79b          	srlw	a5,a5,0x10
    8000542c:	8fd9                	or	a5,a5,a4
    8000542e:	1782                	sll	a5,a5,0x20
    80005430:	9381                	srl	a5,a5,0x20
    80005432:	97b6                	add	a5,a5,a3
    80005434:	fcb61ce3          	bne	a2,a1,8000540c <hart_prop+0x13a>
    80005438:	0007851b          	sext.w	a0,a5
    8000543c:	00a92423          	sw	a0,8(s2)
    80005440:	bded                	j	8000533a <hart_prop+0x68>
    80005442:	00005517          	auipc	a0,0x5
    80005446:	b2e50513          	add	a0,a0,-1234 # 80009f70 <softfloat_countLeadingZeros8+0x338>
    8000544a:	00005697          	auipc	a3,0x5
    8000544e:	31e68693          	add	a3,a3,798 # 8000a768 <softfloat_countLeadingZeros8+0xb30>
    80005452:	0f400613          	li	a2,244
    80005456:	00005597          	auipc	a1,0x5
    8000545a:	02a58593          	add	a1,a1,42 # 8000a480 <softfloat_countLeadingZeros8+0x848>
    8000545e:	c73fd0ef          	jal	800030d0 <printm>
    80005462:	6541                	lui	a0,0x10
    80005464:	157d                	add	a0,a0,-1 # ffff <_ftext-0x7fff0001>
    80005466:	d17fd0ef          	jal	8000317c <poweroff>
    8000546a:	00005517          	auipc	a0,0x5
    8000546e:	b0650513          	add	a0,a0,-1274 # 80009f70 <softfloat_countLeadingZeros8+0x338>
    80005472:	00005697          	auipc	a3,0x5
    80005476:	2ce68693          	add	a3,a3,718 # 8000a740 <softfloat_countLeadingZeros8+0xb08>
    8000547a:	0f100613          	li	a2,241
    8000547e:	bfe1                	j	80005456 <hart_prop+0x184>

0000000080005480 <fdt_scan>:
    80005480:	4118                	lw	a4,0(a0)
    80005482:	00ff0637          	lui	a2,0xff0
    80005486:	ff010837          	lui	a6,0xff010
    8000548a:	0087579b          	srlw	a5,a4,0x8
    8000548e:	0ff60613          	add	a2,a2,255 # ff00ff <_ftext-0x7f00ff01>
    80005492:	0087171b          	sllw	a4,a4,0x8
    80005496:	f0080813          	add	a6,a6,-256 # ffffffffff00ff00 <_end+0xffffffff7eff7f00>
    8000549a:	01077733          	and	a4,a4,a6
    8000549e:	8ff1                	and	a5,a5,a2
    800054a0:	8fd9                	or	a5,a5,a4
    800054a2:	feedd737          	lui	a4,0xfeedd
    800054a6:	2781                	sext.w	a5,a5
    800054a8:	0735                	add	a4,a4,13 # fffffffffeedd00d <_end+0xffffffff7eec500d>
    800054aa:	02e79463          	bne	a5,a4,800054d2 <fdt_scan+0x52>
    800054ae:	4d18                	lw	a4,24(a0)
    800054b0:	46c5                	li	a3,17
    800054b2:	0087179b          	sllw	a5,a4,0x8
    800054b6:	0087571b          	srlw	a4,a4,0x8
    800054ba:	8f71                	and	a4,a4,a2
    800054bc:	0107f7b3          	and	a5,a5,a6
    800054c0:	8fd9                	or	a5,a5,a4
    800054c2:	0107971b          	sllw	a4,a5,0x10
    800054c6:	0107d79b          	srlw	a5,a5,0x10
    800054ca:	8fd9                	or	a5,a5,a4
    800054cc:	2781                	sext.w	a5,a5
    800054ce:	00f6f363          	bgeu	a3,a5,800054d4 <fdt_scan+0x54>
    800054d2:	8082                	ret
    800054d4:	455c                	lw	a5,12(a0)
    800054d6:	00852883          	lw	a7,8(a0)
    800054da:	86ae                	mv	a3,a1
    800054dc:	0087971b          	sllw	a4,a5,0x8
    800054e0:	0087d59b          	srlw	a1,a5,0x8
    800054e4:	0088979b          	sllw	a5,a7,0x8
    800054e8:	0088d89b          	srlw	a7,a7,0x8
    800054ec:	8df1                	and	a1,a1,a2
    800054ee:	00c8f8b3          	and	a7,a7,a2
    800054f2:	01077733          	and	a4,a4,a6
    800054f6:	0107f7b3          	and	a5,a5,a6
    800054fa:	8f4d                	or	a4,a4,a1
    800054fc:	0117e7b3          	or	a5,a5,a7
    80005500:	0107961b          	sllw	a2,a5,0x10
    80005504:	0107159b          	sllw	a1,a4,0x10
    80005508:	0107d79b          	srlw	a5,a5,0x10
    8000550c:	0107571b          	srlw	a4,a4,0x10
    80005510:	8fd1                	or	a5,a5,a2
    80005512:	8dd9                	or	a1,a1,a4
    80005514:	1582                	sll	a1,a1,0x20
    80005516:	1782                	sll	a5,a5,0x20
    80005518:	9181                	srl	a1,a1,0x20
    8000551a:	9381                	srl	a5,a5,0x20
    8000551c:	95aa                	add	a1,a1,a0
    8000551e:	4601                	li	a2,0
    80005520:	953e                	add	a0,a0,a5
    80005522:	fb9fe06f          	j	800044da <fdt_scan_helper>

0000000080005526 <fdt_size>:
    80005526:	4118                	lw	a4,0(a0)
    80005528:	ff010637          	lui	a2,0xff010
    8000552c:	00ff06b7          	lui	a3,0xff0
    80005530:	0087179b          	sllw	a5,a4,0x8
    80005534:	f0060613          	add	a2,a2,-256 # ffffffffff00ff00 <_end+0xffffffff7eff7f00>
    80005538:	0087571b          	srlw	a4,a4,0x8
    8000553c:	0ff68693          	add	a3,a3,255 # ff00ff <_ftext-0x7f00ff01>
    80005540:	8f75                	and	a4,a4,a3
    80005542:	8ff1                	and	a5,a5,a2
    80005544:	8fd9                	or	a5,a5,a4
    80005546:	feedd737          	lui	a4,0xfeedd
    8000554a:	2781                	sext.w	a5,a5
    8000554c:	0735                	add	a4,a4,13 # fffffffffeedd00d <_end+0xffffffff7eec500d>
    8000554e:	85aa                	mv	a1,a0
    80005550:	04e79363          	bne	a5,a4,80005596 <fdt_size+0x70>
    80005554:	4d18                	lw	a4,24(a0)
    80005556:	4845                	li	a6,17
    80005558:	4501                	li	a0,0
    8000555a:	0087179b          	sllw	a5,a4,0x8
    8000555e:	0087571b          	srlw	a4,a4,0x8
    80005562:	8f75                	and	a4,a4,a3
    80005564:	8ff1                	and	a5,a5,a2
    80005566:	8fd9                	or	a5,a5,a4
    80005568:	0107971b          	sllw	a4,a5,0x10
    8000556c:	0107d79b          	srlw	a5,a5,0x10
    80005570:	8fd9                	or	a5,a5,a4
    80005572:	2781                	sext.w	a5,a5
    80005574:	02f86263          	bltu	a6,a5,80005598 <fdt_size+0x72>
    80005578:	41d8                	lw	a4,4(a1)
    8000557a:	0087179b          	sllw	a5,a4,0x8
    8000557e:	0087571b          	srlw	a4,a4,0x8
    80005582:	8ff1                	and	a5,a5,a2
    80005584:	8f75                	and	a4,a4,a3
    80005586:	8fd9                	or	a5,a5,a4
    80005588:	0107951b          	sllw	a0,a5,0x10
    8000558c:	0107d79b          	srlw	a5,a5,0x10
    80005590:	8d5d                	or	a0,a0,a5
    80005592:	2501                	sext.w	a0,a0
    80005594:	8082                	ret
    80005596:	4501                	li	a0,0
    80005598:	8082                	ret

000000008000559a <fdt_get_address>:
    8000559a:	4908                	lw	a0,16(a0)
    8000559c:	00063023          	sd	zero,0(a2)
    800055a0:	04a05963          	blez	a0,800055f2 <fdt_get_address+0x58>
    800055a4:	02051793          	sll	a5,a0,0x20
    800055a8:	01e7d513          	srl	a0,a5,0x1e
    800055ac:	ff0108b7          	lui	a7,0xff010
    800055b0:	00ff0837          	lui	a6,0xff0
    800055b4:	952e                	add	a0,a0,a1
    800055b6:	4781                	li	a5,0
    800055b8:	f0088893          	add	a7,a7,-256 # ffffffffff00ff00 <_end+0xffffffff7eff7f00>
    800055bc:	0ff80813          	add	a6,a6,255 # ff00ff <_ftext-0x7f00ff01>
    800055c0:	4198                	lw	a4,0(a1)
    800055c2:	02079693          	sll	a3,a5,0x20
    800055c6:	0591                	add	a1,a1,4
    800055c8:	0087179b          	sllw	a5,a4,0x8
    800055cc:	0087571b          	srlw	a4,a4,0x8
    800055d0:	01077733          	and	a4,a4,a6
    800055d4:	0117f7b3          	and	a5,a5,a7
    800055d8:	8fd9                	or	a5,a5,a4
    800055da:	0107971b          	sllw	a4,a5,0x10
    800055de:	0107d79b          	srlw	a5,a5,0x10
    800055e2:	8fd9                	or	a5,a5,a4
    800055e4:	1782                	sll	a5,a5,0x20
    800055e6:	9381                	srl	a5,a5,0x20
    800055e8:	97b6                	add	a5,a5,a3
    800055ea:	fca59be3          	bne	a1,a0,800055c0 <fdt_get_address+0x26>
    800055ee:	e21c                	sd	a5,0(a2)
    800055f0:	8082                	ret
    800055f2:	852e                	mv	a0,a1
    800055f4:	8082                	ret

00000000800055f6 <fdt_get_size>:
    800055f6:	4948                	lw	a0,20(a0)
    800055f8:	00063023          	sd	zero,0(a2)
    800055fc:	04a05963          	blez	a0,8000564e <fdt_get_size+0x58>
    80005600:	02051793          	sll	a5,a0,0x20
    80005604:	01e7d513          	srl	a0,a5,0x1e
    80005608:	ff0108b7          	lui	a7,0xff010
    8000560c:	00ff0837          	lui	a6,0xff0
    80005610:	952e                	add	a0,a0,a1
    80005612:	4781                	li	a5,0
    80005614:	f0088893          	add	a7,a7,-256 # ffffffffff00ff00 <_end+0xffffffff7eff7f00>
    80005618:	0ff80813          	add	a6,a6,255 # ff00ff <_ftext-0x7f00ff01>
    8000561c:	4198                	lw	a4,0(a1)
    8000561e:	02079693          	sll	a3,a5,0x20
    80005622:	0591                	add	a1,a1,4
    80005624:	0087179b          	sllw	a5,a4,0x8
    80005628:	0087571b          	srlw	a4,a4,0x8
    8000562c:	01077733          	and	a4,a4,a6
    80005630:	0117f7b3          	and	a5,a5,a7
    80005634:	8fd9                	or	a5,a5,a4
    80005636:	0107971b          	sllw	a4,a5,0x10
    8000563a:	0107d79b          	srlw	a5,a5,0x10
    8000563e:	8fd9                	or	a5,a5,a4
    80005640:	1782                	sll	a5,a5,0x20
    80005642:	9381                	srl	a5,a5,0x20
    80005644:	97b6                	add	a5,a5,a3
    80005646:	fca59be3          	bne	a1,a0,8000561c <fdt_get_size+0x26>
    8000564a:	e21c                	sd	a5,0(a2)
    8000564c:	8082                	ret
    8000564e:	852e                	mv	a0,a1
    80005650:	8082                	ret

0000000080005652 <fdt_get_value>:
    80005652:	691c                	ld	a5,16(a0)
    80005654:	02059713          	sll	a4,a1,0x20
    80005658:	01e75593          	srl	a1,a4,0x1e
    8000565c:	97ae                	add	a5,a5,a1
    8000565e:	4398                	lw	a4,0(a5)
    80005660:	ff0106b7          	lui	a3,0xff010
    80005664:	f0068693          	add	a3,a3,-256 # ffffffffff00ff00 <_end+0xffffffff7eff7f00>
    80005668:	0087179b          	sllw	a5,a4,0x8
    8000566c:	8ff5                	and	a5,a5,a3
    8000566e:	00ff06b7          	lui	a3,0xff0
    80005672:	0ff68693          	add	a3,a3,255 # ff00ff <_ftext-0x7f00ff01>
    80005676:	0087571b          	srlw	a4,a4,0x8
    8000567a:	8f75                	and	a4,a4,a3
    8000567c:	8fd9                	or	a5,a5,a4
    8000567e:	0107951b          	sllw	a0,a5,0x10
    80005682:	0107d79b          	srlw	a5,a5,0x10
    80005686:	8d5d                	or	a0,a0,a5
    80005688:	2501                	sext.w	a0,a0
    8000568a:	8082                	ret

000000008000568c <fdt_string_list_index>:
    8000568c:	7179                	add	sp,sp,-48
    8000568e:	4d1c                	lw	a5,24(a0)
    80005690:	f022                	sd	s0,32(sp)
    80005692:	6900                	ld	s0,16(a0)
    80005694:	e44e                	sd	s3,8(sp)
    80005696:	f406                	sd	ra,40(sp)
    80005698:	ec26                	sd	s1,24(sp)
    8000569a:	e84a                	sd	s2,16(sp)
    8000569c:	00f409b3          	add	s3,s0,a5
    800056a0:	02f05d63          	blez	a5,800056da <fdt_string_list_index+0x4e>
    800056a4:	892e                	mv	s2,a1
    800056a6:	4481                	li	s1,0
    800056a8:	a811                	j	800056bc <fdt_string_list_index+0x30>
    800056aa:	7f2030ef          	jal	80008e9c <strlen>
    800056ae:	0505                	add	a0,a0,1
    800056b0:	942a                	add	s0,s0,a0
    800056b2:	408987b3          	sub	a5,s3,s0
    800056b6:	2485                	addw	s1,s1,1
    800056b8:	02f05163          	blez	a5,800056da <fdt_string_list_index+0x4e>
    800056bc:	85ca                	mv	a1,s2
    800056be:	8522                	mv	a0,s0
    800056c0:	7f6030ef          	jal	80008eb6 <strcmp>
    800056c4:	87aa                	mv	a5,a0
    800056c6:	8522                	mv	a0,s0
    800056c8:	f3ed                	bnez	a5,800056aa <fdt_string_list_index+0x1e>
    800056ca:	70a2                	ld	ra,40(sp)
    800056cc:	7402                	ld	s0,32(sp)
    800056ce:	6942                	ld	s2,16(sp)
    800056d0:	69a2                	ld	s3,8(sp)
    800056d2:	8526                	mv	a0,s1
    800056d4:	64e2                	ld	s1,24(sp)
    800056d6:	6145                	add	sp,sp,48
    800056d8:	8082                	ret
    800056da:	70a2                	ld	ra,40(sp)
    800056dc:	7402                	ld	s0,32(sp)
    800056de:	54fd                	li	s1,-1
    800056e0:	6942                	ld	s2,16(sp)
    800056e2:	69a2                	ld	s3,8(sp)
    800056e4:	8526                	mv	a0,s1
    800056e6:	64e2                	ld	s1,24(sp)
    800056e8:	6145                	add	sp,sp,48
    800056ea:	8082                	ret

00000000800056ec <query_mem>:
    800056ec:	715d                	add	sp,sp,-80
    800056ee:	fffff797          	auipc	a5,0xfffff
    800056f2:	04078793          	add	a5,a5,64 # 8000472e <mem_open>
    800056f6:	ec3e                	sd	a5,24(sp)
    800056f8:	fffff797          	auipc	a5,0xfffff
    800056fc:	d5478793          	add	a5,a5,-684 # 8000444c <mem_prop>
    80005700:	f03e                	sd	a5,32(sp)
    80005702:	082c                	add	a1,sp,24
    80005704:	fffff797          	auipc	a5,0xfffff
    80005708:	58478793          	add	a5,a5,1412 # 80004c88 <mem_done>
    8000570c:	f43e                	sd	a5,40(sp)
    8000570e:	e486                	sd	ra,72(sp)
    80005710:	00012797          	auipc	a5,0x12
    80005714:	9a07b023          	sd	zero,-1632(a5) # 800170b0 <mem_size>
    80005718:	f802                	sd	zero,48(sp)
    8000571a:	fc0a                	sd	sp,56(sp)
    8000571c:	d65ff0ef          	jal	80005480 <fdt_scan>
    80005720:	00012797          	auipc	a5,0x12
    80005724:	9907b783          	ld	a5,-1648(a5) # 800170b0 <mem_size>
    80005728:	c781                	beqz	a5,80005730 <query_mem+0x44>
    8000572a:	60a6                	ld	ra,72(sp)
    8000572c:	6161                	add	sp,sp,80
    8000572e:	8082                	ret
    80005730:	00005517          	auipc	a0,0x5
    80005734:	84050513          	add	a0,a0,-1984 # 80009f70 <softfloat_countLeadingZeros8+0x338>
    80005738:	00005697          	auipc	a3,0x5
    8000573c:	06868693          	add	a3,a3,104 # 8000a7a0 <softfloat_countLeadingZeros8+0xb68>
    80005740:	0d100613          	li	a2,209
    80005744:	00005597          	auipc	a1,0x5
    80005748:	d3c58593          	add	a1,a1,-708 # 8000a480 <softfloat_countLeadingZeros8+0x848>
    8000574c:	985fd0ef          	jal	800030d0 <printm>
    80005750:	6541                	lui	a0,0x10
    80005752:	157d                	add	a0,a0,-1 # ffff <_ftext-0x7fff0001>
    80005754:	a29fd0ef          	jal	8000317c <poweroff>

0000000080005758 <query_harts>:
    80005758:	711d                	add	sp,sp,-96
    8000575a:	fffff717          	auipc	a4,0xfffff
    8000575e:	bf870713          	add	a4,a4,-1032 # 80004352 <hart_open>
    80005762:	f43a                	sd	a4,40(sp)
    80005764:	00000717          	auipc	a4,0x0
    80005768:	b6e70713          	add	a4,a4,-1170 # 800052d2 <hart_prop>
    8000576c:	f83a                	sd	a4,48(sp)
    8000576e:	fffff717          	auipc	a4,0xfffff
    80005772:	34c70713          	add	a4,a4,844 # 80004aba <hart_done>
    80005776:	003c                	add	a5,sp,8
    80005778:	fc3a                	sd	a4,56(sp)
    8000577a:	102c                	add	a1,sp,40
    8000577c:	fffff717          	auipc	a4,0xfffff
    80005780:	bec70713          	add	a4,a4,-1044 # 80004368 <hart_close>
    80005784:	ec86                	sd	ra,88(sp)
    80005786:	e402                	sd	zero,8(sp)
    80005788:	e0ba                	sd	a4,64(sp)
    8000578a:	e4be                	sd	a5,72(sp)
    8000578c:	e802                	sd	zero,16(sp)
    8000578e:	ec02                	sd	zero,24(sp)
    80005790:	f002                	sd	zero,32(sp)
    80005792:	cefff0ef          	jal	80005480 <fdt_scan>
    80005796:	f1402773          	csrr	a4,mhartid
    8000579a:	00012797          	auipc	a5,0x12
    8000579e:	9567b783          	ld	a5,-1706(a5) # 800170f0 <hart_mask>
    800057a2:	00e7d7b3          	srl	a5,a5,a4
    800057a6:	c781                	beqz	a5,800057ae <query_harts+0x56>
    800057a8:	60e6                	ld	ra,88(sp)
    800057aa:	6125                	add	sp,sp,96
    800057ac:	8082                	ret
    800057ae:	00004517          	auipc	a0,0x4
    800057b2:	7c250513          	add	a0,a0,1986 # 80009f70 <softfloat_countLeadingZeros8+0x338>
    800057b6:	00005697          	auipc	a3,0x5
    800057ba:	ffa68693          	add	a3,a3,-6 # 8000a7b0 <softfloat_countLeadingZeros8+0xb78>
    800057be:	12d00613          	li	a2,301
    800057c2:	00005597          	auipc	a1,0x5
    800057c6:	cbe58593          	add	a1,a1,-834 # 8000a480 <softfloat_countLeadingZeros8+0x848>
    800057ca:	907fd0ef          	jal	800030d0 <printm>
    800057ce:	6541                	lui	a0,0x10
    800057d0:	157d                	add	a0,a0,-1 # ffff <_ftext-0x7fff0001>
    800057d2:	9abfd0ef          	jal	8000317c <poweroff>

00000000800057d6 <query_clint>:
    800057d6:	711d                	add	sp,sp,-96
    800057d8:	fffff797          	auipc	a5,0xfffff
    800057dc:	bb278793          	add	a5,a5,-1102 # 8000438a <clint_open>
    800057e0:	f43e                	sd	a5,40(sp)
    800057e2:	fffff797          	auipc	a5,0xfffff
    800057e6:	79078793          	add	a5,a5,1936 # 80004f72 <clint_prop>
    800057ea:	f83e                	sd	a5,48(sp)
    800057ec:	fffff797          	auipc	a5,0xfffff
    800057f0:	f4c78793          	add	a5,a5,-180 # 80004738 <clint_done>
    800057f4:	fc3e                	sd	a5,56(sp)
    800057f6:	102c                	add	a1,sp,40
    800057f8:	003c                	add	a5,sp,8
    800057fa:	e4be                	sd	a5,72(sp)
    800057fc:	ec86                	sd	ra,88(sp)
    800057fe:	e082                	sd	zero,64(sp)
    80005800:	d202                	sw	zero,36(sp)
    80005802:	c7fff0ef          	jal	80005480 <fdt_scan>
    80005806:	5792                	lw	a5,36(sp)
    80005808:	c781                	beqz	a5,80005810 <query_clint+0x3a>
    8000580a:	60e6                	ld	ra,88(sp)
    8000580c:	6125                	add	sp,sp,96
    8000580e:	8082                	ret
    80005810:	00004517          	auipc	a0,0x4
    80005814:	76050513          	add	a0,a0,1888 # 80009f70 <softfloat_countLeadingZeros8+0x338>
    80005818:	00005697          	auipc	a3,0x5
    8000581c:	fc068693          	add	a3,a3,-64 # 8000a7d8 <softfloat_countLeadingZeros8+0xba0>
    80005820:	17a00613          	li	a2,378
    80005824:	00005597          	auipc	a1,0x5
    80005828:	c5c58593          	add	a1,a1,-932 # 8000a480 <softfloat_countLeadingZeros8+0x848>
    8000582c:	8a5fd0ef          	jal	800030d0 <printm>
    80005830:	6541                	lui	a0,0x10
    80005832:	157d                	add	a0,a0,-1 # ffff <_ftext-0x7fff0001>
    80005834:	949fd0ef          	jal	8000317c <poweroff>

0000000080005838 <query_plic>:
    80005838:	711d                	add	sp,sp,-96
    8000583a:	fffff797          	auipc	a5,0xfffff
    8000583e:	b5e78793          	add	a5,a5,-1186 # 80004398 <plic_open>
    80005842:	e03e                	sd	a5,0(sp)
    80005844:	00000797          	auipc	a5,0x0
    80005848:	94878793          	add	a5,a5,-1720 # 8000518c <plic_prop>
    8000584c:	e43e                	sd	a5,8(sp)
    8000584e:	fffff797          	auipc	a5,0xfffff
    80005852:	04e78793          	add	a5,a5,78 # 8000489c <plic_done>
    80005856:	e83e                	sd	a5,16(sp)
    80005858:	858a                	mv	a1,sp
    8000585a:	103c                	add	a5,sp,40
    8000585c:	ec86                	sd	ra,88(sp)
    8000585e:	ec02                	sd	zero,24(sp)
    80005860:	f03e                	sd	a5,32(sp)
    80005862:	c282                	sw	zero,68(sp)
    80005864:	c1dff0ef          	jal	80005480 <fdt_scan>
    80005868:	60e6                	ld	ra,88(sp)
    8000586a:	6125                	add	sp,sp,96
    8000586c:	8082                	ret

000000008000586e <filter_plic>:
    8000586e:	711d                	add	sp,sp,-96
    80005870:	fffff797          	auipc	a5,0xfffff
    80005874:	b2878793          	add	a5,a5,-1240 # 80004398 <plic_open>
    80005878:	e03e                	sd	a5,0(sp)
    8000587a:	00000797          	auipc	a5,0x0
    8000587e:	91278793          	add	a5,a5,-1774 # 8000518c <plic_prop>
    80005882:	e43e                	sd	a5,8(sp)
    80005884:	fffff797          	auipc	a5,0xfffff
    80005888:	b2278793          	add	a5,a5,-1246 # 800043a6 <plic_redact>
    8000588c:	e83e                	sd	a5,16(sp)
    8000588e:	858a                	mv	a1,sp
    80005890:	103c                	add	a5,sp,40
    80005892:	ec86                	sd	ra,88(sp)
    80005894:	ec02                	sd	zero,24(sp)
    80005896:	f03e                	sd	a5,32(sp)
    80005898:	c282                	sw	zero,68(sp)
    8000589a:	be7ff0ef          	jal	80005480 <fdt_scan>
    8000589e:	60e6                	ld	ra,88(sp)
    800058a0:	6125                	add	sp,sp,96
    800058a2:	8082                	ret

00000000800058a4 <filter_compat>:
    800058a4:	715d                	add	sp,sp,-80
    800058a6:	fffff717          	auipc	a4,0xfffff
    800058aa:	b5e70713          	add	a4,a4,-1186 # 80004404 <compat_open>
    800058ae:	87ae                	mv	a5,a1
    800058b0:	ec3a                	sd	a4,24(sp)
    800058b2:	fffff717          	auipc	a4,0xfffff
    800058b6:	54e70713          	add	a4,a4,1358 # 80004e00 <compat_prop>
    800058ba:	f03a                	sd	a4,32(sp)
    800058bc:	e43e                	sd	a5,8(sp)
    800058be:	fffff717          	auipc	a4,0xfffff
    800058c2:	b4e70713          	add	a4,a4,-1202 # 8000440c <compat_close>
    800058c6:	3e700793          	li	a5,999
    800058ca:	f83a                	sd	a4,48(sp)
    800058cc:	082c                	add	a1,sp,24
    800058ce:	0038                	add	a4,sp,8
    800058d0:	1782                	sll	a5,a5,0x20
    800058d2:	e486                	sd	ra,72(sp)
    800058d4:	f402                	sd	zero,40(sp)
    800058d6:	fc3a                	sd	a4,56(sp)
    800058d8:	e83e                	sd	a5,16(sp)
    800058da:	ba7ff0ef          	jal	80005480 <fdt_scan>
    800058de:	60a6                	ld	ra,72(sp)
    800058e0:	6161                	add	sp,sp,80
    800058e2:	8082                	ret

00000000800058e4 <query_chosen>:
    800058e4:	715d                	add	sp,sp,-80
    800058e6:	fffff797          	auipc	a5,0xfffff
    800058ea:	bcc78793          	add	a5,a5,-1076 # 800044b2 <chosen_open>
    800058ee:	ec3e                	sd	a5,24(sp)
    800058f0:	fffff797          	auipc	a5,0xfffff
    800058f4:	b3878793          	add	a5,a5,-1224 # 80004428 <chosen_close>
    800058f8:	f83e                	sd	a5,48(sp)
    800058fa:	082c                	add	a1,sp,24
    800058fc:	fffff797          	auipc	a5,0xfffff
    80005900:	77a78793          	add	a5,a5,1914 # 80005076 <chosen_prop>
    80005904:	e486                	sd	ra,72(sp)
    80005906:	f03e                	sd	a5,32(sp)
    80005908:	f402                	sd	zero,40(sp)
    8000590a:	e002                	sd	zero,0(sp)
    8000590c:	fc0a                	sd	sp,56(sp)
    8000590e:	e402                	sd	zero,8(sp)
    80005910:	e802                	sd	zero,16(sp)
    80005912:	b6fff0ef          	jal	80005480 <fdt_scan>
    80005916:	67a2                	ld	a5,8(sp)
    80005918:	60a6                	ld	ra,72(sp)
    8000591a:	00011717          	auipc	a4,0x11
    8000591e:	76f73b23          	sd	a5,1910(a4) # 80017090 <kernel_start>
    80005922:	67c2                	ld	a5,16(sp)
    80005924:	00011717          	auipc	a4,0x11
    80005928:	76f73223          	sd	a5,1892(a4) # 80017088 <kernel_end>
    8000592c:	6161                	add	sp,sp,80
    8000592e:	8082                	ret

0000000080005930 <filter_harts>:
    80005930:	711d                	add	sp,sp,-96
    80005932:	fffff717          	auipc	a4,0xfffff
    80005936:	b0a70713          	add	a4,a4,-1270 # 8000443c <hart_filter_open>
    8000593a:	f43a                	sd	a4,40(sp)
    8000593c:	fffff717          	auipc	a4,0xfffff
    80005940:	53e70713          	add	a4,a4,1342 # 80004e7a <hart_filter_prop>
    80005944:	ec86                	sd	ra,88(sp)
    80005946:	f83a                	sd	a4,48(sp)
    80005948:	fffff717          	auipc	a4,0xfffff
    8000594c:	22470713          	add	a4,a4,548 # 80004b6c <hart_filter_done>
    80005950:	87ae                	mv	a5,a1
    80005952:	fc3a                	sd	a4,56(sp)
    80005954:	0005b023          	sd	zero,0(a1)
    80005958:	0038                	add	a4,sp,8
    8000595a:	102c                	add	a1,sp,40
    8000595c:	e082                	sd	zero,64(sp)
    8000595e:	e4ba                	sd	a4,72(sp)
    80005960:	f03e                	sd	a5,32(sp)
    80005962:	b1fff0ef          	jal	80005480 <fdt_scan>
    80005966:	60e6                	ld	ra,88(sp)
    80005968:	6125                	add	sp,sp,96
    8000596a:	8082                	ret

000000008000596c <truly_illegal_insn.constprop.0>:
    8000596c:	f88fd06f          	j	800030f4 <redirect_trap>

0000000080005970 <illegal_insn_trap>:
    80005970:	882e                	mv	a6,a1
    80005972:	87b2                	mv	a5,a2
    80005974:	300025f3          	csrr	a1,mstatus
    80005978:	34302773          	csrr	a4,mtval
    8000597c:	488d                	li	a7,3
    8000597e:	00377313          	and	t1,a4,3
    80005982:	03131463          	bne	t1,a7,800059aa <illegal_insn_trap+0x3a>
    80005986:	00478693          	add	a3,a5,4
    8000598a:	34169073          	csrw	mepc,a3
    8000598e:	00004317          	auipc	t1,0x4
    80005992:	12630313          	add	t1,t1,294 # 80009ab4 <illegal_insn_trap_table>
    80005996:	07c77613          	and	a2,a4,124
    8000599a:	961a                	add	a2,a2,t1
    8000599c:	00062883          	lw	a7,0(a2)
    800059a0:	86ae                	mv	a3,a1
    800059a2:	863e                	mv	a2,a5
    800059a4:	989a                	add	a7,a7,t1
    800059a6:	85c2                	mv	a1,a6
    800059a8:	8882                	jr	a7
    800059aa:	c701                	beqz	a4,800059b2 <illegal_insn_trap+0x42>
    800059ac:	863a                	mv	a2,a4
    800059ae:	853e                	mv	a0,a5
    800059b0:	bf75                	j	8000596c <truly_illegal_insn.constprop.0>
    800059b2:	000a05b7          	lui	a1,0xa0
    800059b6:	3005a6f3          	csrrs	a3,mstatus,a1
    800059ba:	00267313          	and	t1,a2,2
    800059be:	00031b63          	bnez	t1,800059d4 <illegal_insn_trap+0x64>
    800059c2:	00066703          	lwu	a4,0(a2)
    800059c6:	01177333          	and	t1,a4,a7
    800059ca:	01130f63          	beq	t1,a7,800059e8 <illegal_insn_trap+0x78>
    800059ce:	1742                	sll	a4,a4,0x30
    800059d0:	9341                	srl	a4,a4,0x30
    800059d2:	a819                	j	800059e8 <illegal_insn_trap+0x78>
    800059d4:	00065703          	lhu	a4,0(a2)
    800059d8:	01177333          	and	t1,a4,a7
    800059dc:	01131663          	bne	t1,a7,800059e8 <illegal_insn_trap+0x78>
    800059e0:	00265303          	lhu	t1,2(a2)
    800059e4:	0342                	sll	t1,t1,0x10
    800059e6:	971a                	add	a4,a4,t1
    800059e8:	30069073          	csrw	mstatus,a3
    800059ec:	00377613          	and	a2,a4,3
    800059f0:	85b6                	mv	a1,a3
    800059f2:	f9160ae3          	beq	a2,a7,80005986 <illegal_insn_trap+0x16>
    800059f6:	bf5d                	j	800059ac <illegal_insn_trap+0x3c>

00000000800059f8 <truly_illegal_insn>:
    800059f8:	8532                	mv	a0,a2
    800059fa:	85b6                	mv	a1,a3
    800059fc:	863a                	mv	a2,a4
    800059fe:	ef6fd06f          	j	800030f4 <redirect_trap>

0000000080005a02 <emulate_system_opcode>:
    80005a02:	6789                	lui	a5,0x2
    80005a04:	80078793          	add	a5,a5,-2048 # 1800 <_ftext-0x7fffe800>
    80005a08:	8ff5                	and	a5,a5,a3
    80005a0a:	7ff00313          	li	t1,2047
    80005a0e:	88aa                	mv	a7,a0
    80005a10:	85b6                	mv	a1,a3
    80005a12:	8532                	mv	a0,a2
    80005a14:	00c75813          	srl	a6,a4,0xc
    80005a18:	0147561b          	srlw	a2,a4,0x14
    80005a1c:	04f37863          	bgeu	t1,a5,80005a6c <emulate_system_opcode+0x6a>
    80005a20:	6785                	lui	a5,0x1
    80005a22:	c0178793          	add	a5,a5,-1023 # c01 <_ftext-0x7ffff3ff>
    80005a26:	02f61163          	bne	a2,a5,80005a48 <emulate_system_opcode+0x46>
    80005a2a:	00011797          	auipc	a5,0x11
    80005a2e:	67e7b783          	ld	a5,1662(a5) # 800170a8 <mtime>
    80005a32:	0007b303          	ld	t1,0(a5)
    80005a36:	00487613          	and	a2,a6,4
    80005a3a:	00787793          	and	a5,a6,7
    80005a3e:	c619                	beqz	a2,80005a4c <emulate_system_opcode+0x4a>
    80005a40:	17e9                	add	a5,a5,-6
    80005a42:	4685                	li	a3,1
    80005a44:	00f6f863          	bgeu	a3,a5,80005a54 <emulate_system_opcode+0x52>
    80005a48:	863a                	mv	a2,a4
    80005a4a:	b70d                	j	8000596c <truly_illegal_insn.constprop.0>
    80005a4c:	00687813          	and	a6,a6,6
    80005a50:	fe080ce3          	beqz	a6,80005a48 <emulate_system_opcode+0x46>
    80005a54:	00f75793          	srl	a5,a4,0xf
    80005a58:	8bfd                	and	a5,a5,31
    80005a5a:	f7fd                	bnez	a5,80005a48 <emulate_system_opcode+0x46>
    80005a5c:	8311                	srl	a4,a4,0x4
    80005a5e:	0f877713          	and	a4,a4,248
    80005a62:	00e88533          	add	a0,a7,a4
    80005a66:	00653023          	sd	t1,0(a0)
    80005a6a:	8082                	ret
    80005a6c:	106026f3          	csrr	a3,scounteren
    80005a70:	6785                	lui	a5,0x1
    80005a72:	c0178793          	add	a5,a5,-1023 # c01 <_ftext-0x7ffff3ff>
    80005a76:	fcf619e3          	bne	a2,a5,80005a48 <emulate_system_opcode+0x46>
    80005a7a:	8a89                	and	a3,a3,2
    80005a7c:	d6f1                	beqz	a3,80005a48 <emulate_system_opcode+0x46>
    80005a7e:	00011797          	auipc	a5,0x11
    80005a82:	62a7b783          	ld	a5,1578(a5) # 800170a8 <mtime>
    80005a86:	0007b303          	ld	t1,0(a5)
    80005a8a:	00487613          	and	a2,a6,4
    80005a8e:	00787793          	and	a5,a6,7
    80005a92:	f65d                	bnez	a2,80005a40 <emulate_system_opcode+0x3e>
    80005a94:	bf65                	j	80005a4c <emulate_system_opcode+0x4a>

0000000080005a96 <emulate_fp>:
    80005a96:	6799                	lui	a5,0x6
    80005a98:	8ff5                	and	a5,a5,a3
    80005a9a:	c78d                	beqz	a5,80005ac4 <emulate_fp+0x2e>
    80005a9c:	01975793          	srl	a5,a4,0x19
    80005aa0:	00004817          	auipc	a6,0x4
    80005aa4:	09480813          	add	a6,a6,148 # 80009b34 <fp_emulation_table>
    80005aa8:	07c7f793          	and	a5,a5,124
    80005aac:	97c2                	add	a5,a5,a6
    80005aae:	439c                	lw	a5,0(a5)
    80005ab0:	97c2                	add	a5,a5,a6
    80005ab2:	00202373          	frrm	t1
    80005ab6:	681d                	lui	a6,0x7
    80005ab8:	010778b3          	and	a7,a4,a6
    80005abc:	821a                	mv	tp,t1
    80005abe:	01089463          	bne	a7,a6,80005ac6 <emulate_fp+0x30>
    80005ac2:	8782                	jr	a5
    80005ac4:	bf15                	j	800059f8 <truly_illegal_insn>
    80005ac6:	00c75813          	srl	a6,a4,0xc
    80005aca:	00787813          	and	a6,a6,7
    80005ace:	4891                	li	a7,4
    80005ad0:	ff08eae3          	bltu	a7,a6,80005ac4 <emulate_fp+0x2e>
    80005ad4:	8242                	mv	tp,a6
    80005ad6:	b7f5                	j	80005ac2 <emulate_fp+0x2c>

0000000080005ad8 <emulate_any_fadd>:
    80005ad8:	1141                	add	sp,sp,-16
    80005ada:	01975813          	srl	a6,a4,0x19
    80005ade:	e022                	sd	s0,0(sp)
    80005ae0:	e406                	sd	ra,8(sp)
    80005ae2:	00387813          	and	a6,a6,3
    80005ae6:	843a                	mv	s0,a4
    80005ae8:	04080f63          	beqz	a6,80005b46 <emulate_any_fadd+0x6e>
    80005aec:	4885                	li	a7,1
    80005aee:	05181763          	bne	a6,a7,80005b3c <emulate_any_fadd+0x64>
    80005af2:	00c75513          	srl	a0,a4,0xc
    80005af6:	01175693          	srl	a3,a4,0x11
    80005afa:	1782                	sll	a5,a5,0x20
    80005afc:	0f857513          	and	a0,a0,248
    80005b00:	ffffe717          	auipc	a4,0xffffe
    80005b04:	972a                	add	a4,a4,a0
    80005b06:	652702e7          	jalr	t0,1618(a4) # 80004152 <get_f64_reg>
    80005b0a:	872a                	mv	a4,a0
    80005b0c:	8011                	srl	s0,s0,0x4
    80005b0e:	0f86f513          	and	a0,a3,248
    80005b12:	ffffe697          	auipc	a3,0xffffe
    80005b16:	96aa                	add	a3,a3,a0
    80005b18:	640682e7          	jalr	t0,1600(a3) # 80004152 <get_f64_reg>
    80005b1c:	00a7c5b3          	xor	a1,a5,a0
    80005b20:	853a                	mv	a0,a4
    80005b22:	422010ef          	jal	80006f44 <f64_add>
    80005b26:	0f847413          	and	s0,s0,248
    80005b2a:	ffffe797          	auipc	a5,0xffffe
    80005b2e:	97a2                	add	a5,a5,s0
    80005b30:	728782e7          	jalr	t0,1832(a5) # 80004252 <put_f64_reg>
    80005b34:	60a2                	ld	ra,8(sp)
    80005b36:	6402                	ld	s0,0(sp)
    80005b38:	0141                	add	sp,sp,16
    80005b3a:	8082                	ret
    80005b3c:	6402                	ld	s0,0(sp)
    80005b3e:	60a2                	ld	ra,8(sp)
    80005b40:	0141                	add	sp,sp,16
    80005b42:	eb7ff06f          	j	800059f8 <truly_illegal_insn>
    80005b46:	01175693          	srl	a3,a4,0x11
    80005b4a:	00c75513          	srl	a0,a4,0xc
    80005b4e:	0f857513          	and	a0,a0,248
    80005b52:	ffffe717          	auipc	a4,0xffffe
    80005b56:	972a                	add	a4,a4,a0
    80005b58:	400702e7          	jalr	t0,1024(a4) # 80003f52 <get_f32_reg>
    80005b5c:	0005071b          	sext.w	a4,a0
    80005b60:	0f86f513          	and	a0,a3,248
    80005b64:	ffffe697          	auipc	a3,0xffffe
    80005b68:	96aa                	add	a3,a3,a0
    80005b6a:	3ee682e7          	jalr	t0,1006(a3) # 80003f52 <get_f32_reg>
    80005b6e:	0005059b          	sext.w	a1,a0
    80005b72:	8dbd                	xor	a1,a1,a5
    80005b74:	853a                	mv	a0,a4
    80005b76:	8011                	srl	s0,s0,0x4
    80005b78:	539000ef          	jal	800068b0 <f32_add>
    80005b7c:	0f847413          	and	s0,s0,248
    80005b80:	ffffe797          	auipc	a5,0xffffe
    80005b84:	97a2                	add	a5,a5,s0
    80005b86:	4d2782e7          	jalr	t0,1234(a5) # 80004052 <put_f32_reg>
    80005b8a:	60a2                	ld	ra,8(sp)
    80005b8c:	6402                	ld	s0,0(sp)
    80005b8e:	0141                	add	sp,sp,16
    80005b90:	8082                	ret

0000000080005b92 <emulate_fadd>:
    80005b92:	4781                	li	a5,0
    80005b94:	b791                	j	80005ad8 <emulate_any_fadd>

0000000080005b96 <emulate_fsub>:
    80005b96:	800007b7          	lui	a5,0x80000
    80005b9a:	bf3d                	j	80005ad8 <emulate_any_fadd>

0000000080005b9c <emulate_fmul>:
    80005b9c:	1141                	add	sp,sp,-16
    80005b9e:	01975793          	srl	a5,a4,0x19
    80005ba2:	e022                	sd	s0,0(sp)
    80005ba4:	e406                	sd	ra,8(sp)
    80005ba6:	8b8d                	and	a5,a5,3
    80005ba8:	843a                	mv	s0,a4
    80005baa:	cbb9                	beqz	a5,80005c00 <emulate_fmul+0x64>
    80005bac:	4805                	li	a6,1
    80005bae:	05079463          	bne	a5,a6,80005bf6 <emulate_fmul+0x5a>
    80005bb2:	00c75513          	srl	a0,a4,0xc
    80005bb6:	0f857513          	and	a0,a0,248
    80005bba:	8345                	srl	a4,a4,0x11
    80005bbc:	ffffe797          	auipc	a5,0xffffe
    80005bc0:	97aa                	add	a5,a5,a0
    80005bc2:	596782e7          	jalr	t0,1430(a5) # 80004152 <get_f64_reg>
    80005bc6:	87aa                	mv	a5,a0
    80005bc8:	8011                	srl	s0,s0,0x4
    80005bca:	0f877513          	and	a0,a4,248
    80005bce:	ffffe717          	auipc	a4,0xffffe
    80005bd2:	972a                	add	a4,a4,a0
    80005bd4:	584702e7          	jalr	t0,1412(a4) # 80004152 <get_f64_reg>
    80005bd8:	85aa                	mv	a1,a0
    80005bda:	853e                	mv	a0,a5
    80005bdc:	684010ef          	jal	80007260 <f64_mul>
    80005be0:	0f847413          	and	s0,s0,248
    80005be4:	ffffe797          	auipc	a5,0xffffe
    80005be8:	97a2                	add	a5,a5,s0
    80005bea:	66e782e7          	jalr	t0,1646(a5) # 80004252 <put_f64_reg>
    80005bee:	60a2                	ld	ra,8(sp)
    80005bf0:	6402                	ld	s0,0(sp)
    80005bf2:	0141                	add	sp,sp,16
    80005bf4:	8082                	ret
    80005bf6:	6402                	ld	s0,0(sp)
    80005bf8:	60a2                	ld	ra,8(sp)
    80005bfa:	0141                	add	sp,sp,16
    80005bfc:	dfdff06f          	j	800059f8 <truly_illegal_insn>
    80005c00:	00c75513          	srl	a0,a4,0xc
    80005c04:	0f857513          	and	a0,a0,248
    80005c08:	8345                	srl	a4,a4,0x11
    80005c0a:	ffffe797          	auipc	a5,0xffffe
    80005c0e:	97aa                	add	a5,a5,a0
    80005c10:	348782e7          	jalr	t0,840(a5) # 80003f52 <get_f32_reg>
    80005c14:	0005079b          	sext.w	a5,a0
    80005c18:	8011                	srl	s0,s0,0x4
    80005c1a:	0f877513          	and	a0,a4,248
    80005c1e:	ffffe717          	auipc	a4,0xffffe
    80005c22:	972a                	add	a4,a4,a0
    80005c24:	334702e7          	jalr	t0,820(a4) # 80003f52 <get_f32_reg>
    80005c28:	85aa                	mv	a1,a0
    80005c2a:	853e                	mv	a0,a5
    80005c2c:	793000ef          	jal	80006bbe <f32_mul>
    80005c30:	0f847413          	and	s0,s0,248
    80005c34:	ffffe797          	auipc	a5,0xffffe
    80005c38:	97a2                	add	a5,a5,s0
    80005c3a:	41e782e7          	jalr	t0,1054(a5) # 80004052 <put_f32_reg>
    80005c3e:	60a2                	ld	ra,8(sp)
    80005c40:	6402                	ld	s0,0(sp)
    80005c42:	0141                	add	sp,sp,16
    80005c44:	8082                	ret

0000000080005c46 <emulate_fdiv>:
    80005c46:	1141                	add	sp,sp,-16
    80005c48:	01975793          	srl	a5,a4,0x19
    80005c4c:	e022                	sd	s0,0(sp)
    80005c4e:	e406                	sd	ra,8(sp)
    80005c50:	8b8d                	and	a5,a5,3
    80005c52:	843a                	mv	s0,a4
    80005c54:	cbb9                	beqz	a5,80005caa <emulate_fdiv+0x64>
    80005c56:	4805                	li	a6,1
    80005c58:	05079463          	bne	a5,a6,80005ca0 <emulate_fdiv+0x5a>
    80005c5c:	00c75513          	srl	a0,a4,0xc
    80005c60:	0f857513          	and	a0,a0,248
    80005c64:	8345                	srl	a4,a4,0x11
    80005c66:	ffffe797          	auipc	a5,0xffffe
    80005c6a:	97aa                	add	a5,a5,a0
    80005c6c:	4ec782e7          	jalr	t0,1260(a5) # 80004152 <get_f64_reg>
    80005c70:	87aa                	mv	a5,a0
    80005c72:	8011                	srl	s0,s0,0x4
    80005c74:	0f877513          	and	a0,a4,248
    80005c78:	ffffe717          	auipc	a4,0xffffe
    80005c7c:	972a                	add	a4,a4,a0
    80005c7e:	4da702e7          	jalr	t0,1242(a4) # 80004152 <get_f64_reg>
    80005c82:	85aa                	mv	a1,a0
    80005c84:	853e                	mv	a0,a5
    80005c86:	2de010ef          	jal	80006f64 <f64_div>
    80005c8a:	0f847413          	and	s0,s0,248
    80005c8e:	ffffe797          	auipc	a5,0xffffe
    80005c92:	97a2                	add	a5,a5,s0
    80005c94:	5c4782e7          	jalr	t0,1476(a5) # 80004252 <put_f64_reg>
    80005c98:	60a2                	ld	ra,8(sp)
    80005c9a:	6402                	ld	s0,0(sp)
    80005c9c:	0141                	add	sp,sp,16
    80005c9e:	8082                	ret
    80005ca0:	6402                	ld	s0,0(sp)
    80005ca2:	60a2                	ld	ra,8(sp)
    80005ca4:	0141                	add	sp,sp,16
    80005ca6:	d53ff06f          	j	800059f8 <truly_illegal_insn>
    80005caa:	00c75513          	srl	a0,a4,0xc
    80005cae:	0f857513          	and	a0,a0,248
    80005cb2:	8345                	srl	a4,a4,0x11
    80005cb4:	ffffe797          	auipc	a5,0xffffe
    80005cb8:	97aa                	add	a5,a5,a0
    80005cba:	29e782e7          	jalr	t0,670(a5) # 80003f52 <get_f32_reg>
    80005cbe:	0005079b          	sext.w	a5,a0
    80005cc2:	8011                	srl	s0,s0,0x4
    80005cc4:	0f877513          	and	a0,a4,248
    80005cc8:	ffffe717          	auipc	a4,0xffffe
    80005ccc:	972a                	add	a4,a4,a0
    80005cce:	28a702e7          	jalr	t0,650(a4) # 80003f52 <get_f32_reg>
    80005cd2:	85aa                	mv	a1,a0
    80005cd4:	853e                	mv	a0,a5
    80005cd6:	3fd000ef          	jal	800068d2 <f32_div>
    80005cda:	0f847413          	and	s0,s0,248
    80005cde:	ffffe797          	auipc	a5,0xffffe
    80005ce2:	97a2                	add	a5,a5,s0
    80005ce4:	374782e7          	jalr	t0,884(a5) # 80004052 <put_f32_reg>
    80005ce8:	60a2                	ld	ra,8(sp)
    80005cea:	6402                	ld	s0,0(sp)
    80005cec:	0141                	add	sp,sp,16
    80005cee:	8082                	ret

0000000080005cf0 <emulate_fsqrt>:
    80005cf0:	1141                	add	sp,sp,-16
    80005cf2:	01475793          	srl	a5,a4,0x14
    80005cf6:	e022                	sd	s0,0(sp)
    80005cf8:	e406                	sd	ra,8(sp)
    80005cfa:	8bfd                	and	a5,a5,31
    80005cfc:	843a                	mv	s0,a4
    80005cfe:	ef9d                	bnez	a5,80005d3c <emulate_fsqrt+0x4c>
    80005d00:	01975793          	srl	a5,a4,0x19
    80005d04:	8b8d                	and	a5,a5,3
    80005d06:	c3a9                	beqz	a5,80005d48 <emulate_fsqrt+0x58>
    80005d08:	4705                	li	a4,1
    80005d0a:	02e79963          	bne	a5,a4,80005d3c <emulate_fsqrt+0x4c>
    80005d0e:	00c45513          	srl	a0,s0,0xc
    80005d12:	8011                	srl	s0,s0,0x4
    80005d14:	0f857513          	and	a0,a0,248
    80005d18:	0f847413          	and	s0,s0,248
    80005d1c:	ffffe797          	auipc	a5,0xffffe
    80005d20:	97aa                	add	a5,a5,a0
    80005d22:	436782e7          	jalr	t0,1078(a5) # 80004152 <get_f64_reg>
    80005d26:	66a010ef          	jal	80007390 <f64_sqrt>
    80005d2a:	ffffe797          	auipc	a5,0xffffe
    80005d2e:	97a2                	add	a5,a5,s0
    80005d30:	528782e7          	jalr	t0,1320(a5) # 80004252 <put_f64_reg>
    80005d34:	60a2                	ld	ra,8(sp)
    80005d36:	6402                	ld	s0,0(sp)
    80005d38:	0141                	add	sp,sp,16
    80005d3a:	8082                	ret
    80005d3c:	8722                	mv	a4,s0
    80005d3e:	6402                	ld	s0,0(sp)
    80005d40:	60a2                	ld	ra,8(sp)
    80005d42:	0141                	add	sp,sp,16
    80005d44:	cb5ff06f          	j	800059f8 <truly_illegal_insn>
    80005d48:	00c75513          	srl	a0,a4,0xc
    80005d4c:	8011                	srl	s0,s0,0x4
    80005d4e:	0f857513          	and	a0,a0,248
    80005d52:	0f847413          	and	s0,s0,248
    80005d56:	ffffe797          	auipc	a5,0xffffe
    80005d5a:	97aa                	add	a5,a5,a0
    80005d5c:	1fc782e7          	jalr	t0,508(a5) # 80003f52 <get_f32_reg>
    80005d60:	7af000ef          	jal	80006d0e <f32_sqrt>
    80005d64:	ffffe797          	auipc	a5,0xffffe
    80005d68:	97a2                	add	a5,a5,s0
    80005d6a:	2ee782e7          	jalr	t0,750(a5) # 80004052 <put_f32_reg>
    80005d6e:	60a2                	ld	ra,8(sp)
    80005d70:	6402                	ld	s0,0(sp)
    80005d72:	0141                	add	sp,sp,16
    80005d74:	8082                	ret

0000000080005d76 <emulate_fsgnj>:
    80005d76:	00c75893          	srl	a7,a4,0xc
    80005d7a:	0078f813          	and	a6,a7,7
    80005d7e:	4789                	li	a5,2
    80005d80:	0008831b          	sext.w	t1,a7
    80005d84:	0b07cd63          	blt	a5,a6,80005e3e <emulate_fsgnj+0xc8>
    80005d88:	01975793          	srl	a5,a4,0x19
    80005d8c:	8b8d                	and	a5,a5,3
    80005d8e:	cfa9                	beqz	a5,80005de8 <emulate_fsgnj+0x72>
    80005d90:	4305                	li	t1,1
    80005d92:	0a679663          	bne	a5,t1,80005e3e <emulate_fsgnj+0xc8>
    80005d96:	01175793          	srl	a5,a4,0x11
    80005d9a:	0f88f513          	and	a0,a7,248
    80005d9e:	ffffe697          	auipc	a3,0xffffe
    80005da2:	96aa                	add	a3,a3,a0
    80005da4:	3b4682e7          	jalr	t0,948(a3) # 80004152 <get_f64_reg>
    80005da8:	86aa                	mv	a3,a0
    80005daa:	03f6d593          	srl	a1,a3,0x3f
    80005dae:	00185613          	srl	a2,a6,0x1
    80005db2:	0f87f513          	and	a0,a5,248
    80005db6:	ffffe797          	auipc	a5,0xffffe
    80005dba:	97aa                	add	a5,a5,a0
    80005dbc:	39c782e7          	jalr	t0,924(a5) # 80004152 <get_f64_reg>
    80005dc0:	03f55793          	srl	a5,a0,0x3f
    80005dc4:	8e6d                	and	a2,a2,a1
    80005dc6:	0107c7b3          	xor	a5,a5,a6
    80005dca:	8fb1                	xor	a5,a5,a2
    80005dcc:	00169513          	sll	a0,a3,0x1
    80005dd0:	17fe                	sll	a5,a5,0x3f
    80005dd2:	8105                	srl	a0,a0,0x1
    80005dd4:	8311                	srl	a4,a4,0x4
    80005dd6:	8d5d                	or	a0,a0,a5
    80005dd8:	0f877713          	and	a4,a4,248
    80005ddc:	ffffe797          	auipc	a5,0xffffe
    80005de0:	97ba                	add	a5,a5,a4
    80005de2:	476782e7          	jalr	t0,1142(a5) # 80004252 <put_f64_reg>
    80005de6:	8082                	ret
    80005de8:	01175793          	srl	a5,a4,0x11
    80005dec:	0f837513          	and	a0,t1,248
    80005df0:	ffffe697          	auipc	a3,0xffffe
    80005df4:	96aa                	add	a3,a3,a0
    80005df6:	162682e7          	jalr	t0,354(a3) # 80003f52 <get_f32_reg>
    80005dfa:	0005061b          	sext.w	a2,a0
    80005dfe:	86b2                	mv	a3,a2
    80005e00:	4018559b          	sraw	a1,a6,0x1
    80005e04:	0f87f513          	and	a0,a5,248
    80005e08:	927d                	srl	a2,a2,0x3f
    80005e0a:	ffffe797          	auipc	a5,0xffffe
    80005e0e:	97aa                	add	a5,a5,a0
    80005e10:	148782e7          	jalr	t0,328(a5) # 80003f52 <get_f32_reg>
    80005e14:	01f5579b          	srlw	a5,a0,0x1f
    80005e18:	8e6d                	and	a2,a2,a1
    80005e1a:	00f847b3          	xor	a5,a6,a5
    80005e1e:	8fb1                	xor	a5,a5,a2
    80005e20:	02169513          	sll	a0,a3,0x21
    80005e24:	01f7979b          	sllw	a5,a5,0x1f
    80005e28:	9105                	srl	a0,a0,0x21
    80005e2a:	8311                	srl	a4,a4,0x4
    80005e2c:	8d5d                	or	a0,a0,a5
    80005e2e:	0f877713          	and	a4,a4,248
    80005e32:	ffffe797          	auipc	a5,0xffffe
    80005e36:	97ba                	add	a5,a5,a4
    80005e38:	220782e7          	jalr	t0,544(a5) # 80004052 <put_f32_reg>
    80005e3c:	8082                	ret
    80005e3e:	bbbff06f          	j	800059f8 <truly_illegal_insn>

0000000080005e42 <emulate_fmin>:
    80005e42:	7179                	add	sp,sp,-48
    80005e44:	00c75793          	srl	a5,a4,0xc
    80005e48:	f022                	sd	s0,32(sp)
    80005e4a:	f406                	sd	ra,40(sp)
    80005e4c:	843a                	mv	s0,a4
    80005e4e:	ec26                	sd	s1,24(sp)
    80005e50:	e84a                	sd	s2,16(sp)
    80005e52:	e44e                	sd	s3,8(sp)
    80005e54:	0067f713          	and	a4,a5,6
    80005e58:	eb79                	bnez	a4,80005f2e <emulate_fmin+0xec>
    80005e5a:	01945713          	srl	a4,s0,0x19
    80005e5e:	8b0d                	and	a4,a4,3
    80005e60:	0077f813          	and	a6,a5,7
    80005e64:	cf31                	beqz	a4,80005ec0 <emulate_fmin+0x7e>
    80005e66:	4885                	li	a7,1
    80005e68:	0d171363          	bne	a4,a7,80005f2e <emulate_fmin+0xec>
    80005e6c:	01145713          	srl	a4,s0,0x11
    80005e70:	0f87f513          	and	a0,a5,248
    80005e74:	ffffe797          	auipc	a5,0xffffe
    80005e78:	97aa                	add	a5,a5,a0
    80005e7a:	2de782e7          	jalr	t0,734(a5) # 80004152 <get_f64_reg>
    80005e7e:	84aa                	mv	s1,a0
    80005e80:	85a6                	mv	a1,s1
    80005e82:	0f877513          	and	a0,a4,248
    80005e86:	ffffe797          	auipc	a5,0xffffe
    80005e8a:	97aa                	add	a5,a5,a0
    80005e8c:	2cc782e7          	jalr	t0,716(a5) # 80004152 <get_f64_reg>
    80005e90:	892a                	mv	s2,a0
    80005e92:	00081463          	bnez	a6,80005e9a <emulate_fmin+0x58>
    80005e96:	8526                	mv	a0,s1
    80005e98:	85ca                	mv	a1,s2
    80005e9a:	33c010ef          	jal	800071d6 <f64_lt_quiet>
    80005e9e:	c545                	beqz	a0,80005f46 <emulate_fmin+0x104>
    80005ea0:	8011                	srl	s0,s0,0x4
    80005ea2:	8526                	mv	a0,s1
    80005ea4:	0f847413          	and	s0,s0,248
    80005ea8:	ffffe797          	auipc	a5,0xffffe
    80005eac:	97a2                	add	a5,a5,s0
    80005eae:	3aa782e7          	jalr	t0,938(a5) # 80004252 <put_f64_reg>
    80005eb2:	70a2                	ld	ra,40(sp)
    80005eb4:	7402                	ld	s0,32(sp)
    80005eb6:	64e2                	ld	s1,24(sp)
    80005eb8:	6942                	ld	s2,16(sp)
    80005eba:	69a2                	ld	s3,8(sp)
    80005ebc:	6145                	add	sp,sp,48
    80005ebe:	8082                	ret
    80005ec0:	0007889b          	sext.w	a7,a5
    80005ec4:	01145793          	srl	a5,s0,0x11
    80005ec8:	0f88f513          	and	a0,a7,248
    80005ecc:	ffffe717          	auipc	a4,0xffffe
    80005ed0:	972a                	add	a4,a4,a0
    80005ed2:	086702e7          	jalr	t0,134(a4) # 80003f52 <get_f32_reg>
    80005ed6:	0005049b          	sext.w	s1,a0
    80005eda:	0f87f513          	and	a0,a5,248
    80005ede:	ffffe797          	auipc	a5,0xffffe
    80005ee2:	97aa                	add	a5,a5,a0
    80005ee4:	074782e7          	jalr	t0,116(a5) # 80003f52 <get_f32_reg>
    80005ee8:	0005099b          	sext.w	s3,a0
    80005eec:	894e                	mv	s2,s3
    80005eee:	04081963          	bnez	a6,80005f40 <emulate_fmin+0xfe>
    80005ef2:	8526                	mv	a0,s1
    80005ef4:	85ce                	mv	a1,s3
    80005ef6:	439000ef          	jal	80006b2e <f32_lt_quiet>
    80005efa:	e911                	bnez	a0,80005f0e <emulate_fmin+0xcc>
    80005efc:	fff94793          	not	a5,s2
    80005f00:	7f800737          	lui	a4,0x7f800
    80005f04:	8ff9                	and	a5,a5,a4
    80005f06:	efa1                	bnez	a5,80005f5e <emulate_fmin+0x11c>
    80005f08:	19a6                	sll	s3,s3,0x29
    80005f0a:	04098a63          	beqz	s3,80005f5e <emulate_fmin+0x11c>
    80005f0e:	8011                	srl	s0,s0,0x4
    80005f10:	8526                	mv	a0,s1
    80005f12:	0f847413          	and	s0,s0,248
    80005f16:	ffffe797          	auipc	a5,0xffffe
    80005f1a:	97a2                	add	a5,a5,s0
    80005f1c:	13c782e7          	jalr	t0,316(a5) # 80004052 <put_f32_reg>
    80005f20:	70a2                	ld	ra,40(sp)
    80005f22:	7402                	ld	s0,32(sp)
    80005f24:	64e2                	ld	s1,24(sp)
    80005f26:	6942                	ld	s2,16(sp)
    80005f28:	69a2                	ld	s3,8(sp)
    80005f2a:	6145                	add	sp,sp,48
    80005f2c:	8082                	ret
    80005f2e:	8722                	mv	a4,s0
    80005f30:	7402                	ld	s0,32(sp)
    80005f32:	70a2                	ld	ra,40(sp)
    80005f34:	64e2                	ld	s1,24(sp)
    80005f36:	6942                	ld	s2,16(sp)
    80005f38:	69a2                	ld	s3,8(sp)
    80005f3a:	6145                	add	sp,sp,48
    80005f3c:	abdff06f          	j	800059f8 <truly_illegal_insn>
    80005f40:	854e                	mv	a0,s3
    80005f42:	85a6                	mv	a1,s1
    80005f44:	bf4d                	j	80005ef6 <emulate_fmin+0xb4>
    80005f46:	7ff00713          	li	a4,2047
    80005f4a:	fff94793          	not	a5,s2
    80005f4e:	1752                	sll	a4,a4,0x34
    80005f50:	8ff9                	and	a5,a5,a4
    80005f52:	e781                	bnez	a5,80005f5a <emulate_fmin+0x118>
    80005f54:	00c91793          	sll	a5,s2,0xc
    80005f58:	f7a1                	bnez	a5,80005ea0 <emulate_fmin+0x5e>
    80005f5a:	84ca                	mv	s1,s2
    80005f5c:	b791                	j	80005ea0 <emulate_fmin+0x5e>
    80005f5e:	84ca                	mv	s1,s2
    80005f60:	8011                	srl	s0,s0,0x4
    80005f62:	8526                	mv	a0,s1
    80005f64:	0f847413          	and	s0,s0,248
    80005f68:	ffffe797          	auipc	a5,0xffffe
    80005f6c:	97a2                	add	a5,a5,s0
    80005f6e:	0ea782e7          	jalr	t0,234(a5) # 80004052 <put_f32_reg>
    80005f72:	b77d                	j	80005f20 <emulate_fmin+0xde>

0000000080005f74 <emulate_fcvt_ff>:
    80005f74:	1141                	add	sp,sp,-16
    80005f76:	01975793          	srl	a5,a4,0x19
    80005f7a:	e022                	sd	s0,0(sp)
    80005f7c:	e406                	sd	ra,8(sp)
    80005f7e:	843a                	mv	s0,a4
    80005f80:	8b8d                	and	a5,a5,3
    80005f82:	8351                	srl	a4,a4,0x14
    80005f84:	8b7d                	and	a4,a4,31
    80005f86:	eb91                	bnez	a5,80005f9a <emulate_fcvt_ff+0x26>
    80005f88:	4785                	li	a5,1
    80005f8a:	04f70363          	beq	a4,a5,80005fd0 <emulate_fcvt_ff+0x5c>
    80005f8e:	8722                	mv	a4,s0
    80005f90:	6402                	ld	s0,0(sp)
    80005f92:	60a2                	ld	ra,8(sp)
    80005f94:	0141                	add	sp,sp,16
    80005f96:	a63ff06f          	j	800059f8 <truly_illegal_insn>
    80005f9a:	4805                	li	a6,1
    80005f9c:	ff0799e3          	bne	a5,a6,80005f8e <emulate_fcvt_ff+0x1a>
    80005fa0:	f77d                	bnez	a4,80005f8e <emulate_fcvt_ff+0x1a>
    80005fa2:	00c45513          	srl	a0,s0,0xc
    80005fa6:	8011                	srl	s0,s0,0x4
    80005fa8:	0f857513          	and	a0,a0,248
    80005fac:	0f847413          	and	s0,s0,248
    80005fb0:	ffffe797          	auipc	a5,0xffffe
    80005fb4:	97aa                	add	a5,a5,a0
    80005fb6:	fa2782e7          	jalr	t0,-94(a5) # 80003f52 <get_f32_reg>
    80005fba:	647000ef          	jal	80006e00 <f32_to_f64>
    80005fbe:	ffffe797          	auipc	a5,0xffffe
    80005fc2:	97a2                	add	a5,a5,s0
    80005fc4:	294782e7          	jalr	t0,660(a5) # 80004252 <put_f64_reg>
    80005fc8:	60a2                	ld	ra,8(sp)
    80005fca:	6402                	ld	s0,0(sp)
    80005fcc:	0141                	add	sp,sp,16
    80005fce:	8082                	ret
    80005fd0:	00c45513          	srl	a0,s0,0xc
    80005fd4:	8011                	srl	s0,s0,0x4
    80005fd6:	0f857513          	and	a0,a0,248
    80005fda:	0f847413          	and	s0,s0,248
    80005fde:	ffffe797          	auipc	a5,0xffffe
    80005fe2:	97aa                	add	a5,a5,a0
    80005fe4:	174782e7          	jalr	t0,372(a5) # 80004152 <get_f64_reg>
    80005fe8:	4c2010ef          	jal	800074aa <f64_to_f32>
    80005fec:	ffffe797          	auipc	a5,0xffffe
    80005ff0:	97a2                	add	a5,a5,s0
    80005ff2:	066782e7          	jalr	t0,102(a5) # 80004052 <put_f32_reg>
    80005ff6:	60a2                	ld	ra,8(sp)
    80005ff8:	6402                	ld	s0,0(sp)
    80005ffa:	0141                	add	sp,sp,16
    80005ffc:	8082                	ret

0000000080005ffe <emulate_fcvt_fi>:
    80005ffe:	040007b7          	lui	a5,0x4000
    80006002:	8ff9                	and	a5,a5,a4
    80006004:	e7d1                	bnez	a5,80006090 <emulate_fcvt_fi+0x92>
    80006006:	00c75893          	srl	a7,a4,0xc
    8000600a:	1141                	add	sp,sp,-16
    8000600c:	0f88f893          	and	a7,a7,248
    80006010:	01475793          	srl	a5,a4,0x14
    80006014:	01150833          	add	a6,a0,a7
    80006018:	e022                	sd	s0,0(sp)
    8000601a:	e406                	sd	ra,8(sp)
    8000601c:	8bfd                	and	a5,a5,31
    8000601e:	4889                	li	a7,2
    80006020:	00083803          	ld	a6,0(a6) # 7000 <_ftext-0x7fff9000>
    80006024:	843a                	mv	s0,a4
    80006026:	09178663          	beq	a5,a7,800060b2 <emulate_fcvt_fi+0xb4>
    8000602a:	02f8e863          	bltu	a7,a5,8000605a <emulate_fcvt_fi+0x5c>
    8000602e:	c3bd                	beqz	a5,80006094 <emulate_fcvt_fi+0x96>
    80006030:	02081513          	sll	a0,a6,0x20
    80006034:	9101                	srl	a0,a0,0x20
    80006036:	13d020ef          	jal	80008972 <ui64_to_f64>
    8000603a:	01945793          	srl	a5,s0,0x19
    8000603e:	8b8d                	and	a5,a5,3
    80006040:	8011                	srl	s0,s0,0x4
    80006042:	0f847413          	and	s0,s0,248
    80006046:	c79d                	beqz	a5,80006074 <emulate_fcvt_fi+0x76>
    80006048:	ffffe797          	auipc	a5,0xffffe
    8000604c:	97a2                	add	a5,a5,s0
    8000604e:	20a782e7          	jalr	t0,522(a5) # 80004252 <put_f64_reg>
    80006052:	60a2                	ld	ra,8(sp)
    80006054:	6402                	ld	s0,0(sp)
    80006056:	0141                	add	sp,sp,16
    80006058:	8082                	ret
    8000605a:	488d                	li	a7,3
    8000605c:	03179763          	bne	a5,a7,8000608a <emulate_fcvt_fi+0x8c>
    80006060:	8542                	mv	a0,a6
    80006062:	111020ef          	jal	80008972 <ui64_to_f64>
    80006066:	01945793          	srl	a5,s0,0x19
    8000606a:	8b8d                	and	a5,a5,3
    8000606c:	8011                	srl	s0,s0,0x4
    8000606e:	0f847413          	and	s0,s0,248
    80006072:	fbf9                	bnez	a5,80006048 <emulate_fcvt_fi+0x4a>
    80006074:	436010ef          	jal	800074aa <f64_to_f32>
    80006078:	ffffe797          	auipc	a5,0xffffe
    8000607c:	97a2                	add	a5,a5,s0
    8000607e:	fda782e7          	jalr	t0,-38(a5) # 80004052 <put_f32_reg>
    80006082:	60a2                	ld	ra,8(sp)
    80006084:	6402                	ld	s0,0(sp)
    80006086:	0141                	add	sp,sp,16
    80006088:	8082                	ret
    8000608a:	6402                	ld	s0,0(sp)
    8000608c:	60a2                	ld	ra,8(sp)
    8000608e:	0141                	add	sp,sp,16
    80006090:	969ff06f          	j	800059f8 <truly_illegal_insn>
    80006094:	0008079b          	sext.w	a5,a6
    80006098:	f807dce3          	bgez	a5,80006030 <emulate_fcvt_fi+0x32>
    8000609c:	4100083b          	negw	a6,a6
    800060a0:	02081513          	sll	a0,a6,0x20
    800060a4:	9101                	srl	a0,a0,0x20
    800060a6:	0cd020ef          	jal	80008972 <ui64_to_f64>
    800060aa:	57fd                	li	a5,-1
    800060ac:	17fe                	sll	a5,a5,0x3f
    800060ae:	8d3d                	xor	a0,a0,a5
    800060b0:	bf5d                	j	80006066 <emulate_fcvt_fi+0x68>
    800060b2:	41000533          	neg	a0,a6
    800060b6:	fa0855e3          	bgez	a6,80006060 <emulate_fcvt_fi+0x62>
    800060ba:	b7f5                	j	800060a6 <emulate_fcvt_fi+0xa8>

00000000800060bc <emulate_fcvt_if>:
    800060bc:	7139                	add	sp,sp,-64
    800060be:	01475793          	srl	a5,a4,0x14
    800060c2:	f822                	sd	s0,48(sp)
    800060c4:	f04a                	sd	s2,32(sp)
    800060c6:	843a                	mv	s0,a4
    800060c8:	fc06                	sd	ra,56(sp)
    800060ca:	f426                	sd	s1,40(sp)
    800060cc:	ec4e                	sd	s3,24(sp)
    800060ce:	e852                	sd	s4,16(sp)
    800060d0:	e456                	sd	s5,8(sp)
    800060d2:	01c7f713          	and	a4,a5,28
    800060d6:	892a                	mv	s2,a0
    800060d8:	ef35                	bnez	a4,80006154 <emulate_fcvt_if+0x98>
    800060da:	0007849b          	sext.w	s1,a5
    800060de:	01945793          	srl	a5,s0,0x19
    800060e2:	8b8d                	and	a5,a5,3
    800060e4:	c7c1                	beqz	a5,8000616c <emulate_fcvt_if+0xb0>
    800060e6:	4705                	li	a4,1
    800060e8:	06e79663          	bne	a5,a4,80006154 <emulate_fcvt_if+0x98>
    800060ec:	00c45513          	srl	a0,s0,0xc
    800060f0:	0f857513          	and	a0,a0,248
    800060f4:	01f4fa13          	and	s4,s1,31
    800060f8:	0002059b          	sext.w	a1,tp
    800060fc:	ffffe797          	auipc	a5,0xffffe
    80006100:	97aa                	add	a5,a5,a0
    80006102:	056782e7          	jalr	t0,86(a5) # 80004152 <get_f64_reg>
    80006106:	08054463          	bltz	a0,8000618e <emulate_fcvt_if+0xd2>
    8000610a:	4605                	li	a2,1
    8000610c:	41c010ef          	jal	80007528 <f64_to_ui64>
    80006110:	4785                	li	a5,1
    80006112:	0cfa0563          	beq	s4,a5,800061dc <emulate_fcvt_if+0x120>
    80006116:	01e4f793          	and	a5,s1,30
    8000611a:	c3c5                	beqz	a5,800061ba <emulate_fcvt_if+0xfe>
    8000611c:	4789                	li	a5,2
    8000611e:	872a                	mv	a4,a0
    80006120:	00fa1b63          	bne	s4,a5,80006136 <emulate_fcvt_if+0x7a>
    80006124:	57fd                	li	a5,-1
    80006126:	8385                	srl	a5,a5,0x1
    80006128:	872a                	mv	a4,a0
    8000612a:	86be                	mv	a3,a5
    8000612c:	00a6f563          	bgeu	a3,a0,80006136 <emulate_fcvt_if+0x7a>
    80006130:	00186773          	csrrs	a4,fflags,16
    80006134:	873e                	mv	a4,a5
    80006136:	8011                	srl	s0,s0,0x4
    80006138:	0f847413          	and	s0,s0,248
    8000613c:	00890533          	add	a0,s2,s0
    80006140:	70e2                	ld	ra,56(sp)
    80006142:	7442                	ld	s0,48(sp)
    80006144:	e118                	sd	a4,0(a0)
    80006146:	74a2                	ld	s1,40(sp)
    80006148:	7902                	ld	s2,32(sp)
    8000614a:	69e2                	ld	s3,24(sp)
    8000614c:	6a42                	ld	s4,16(sp)
    8000614e:	6aa2                	ld	s5,8(sp)
    80006150:	6121                	add	sp,sp,64
    80006152:	8082                	ret
    80006154:	8722                	mv	a4,s0
    80006156:	7442                	ld	s0,48(sp)
    80006158:	70e2                	ld	ra,56(sp)
    8000615a:	74a2                	ld	s1,40(sp)
    8000615c:	69e2                	ld	s3,24(sp)
    8000615e:	6a42                	ld	s4,16(sp)
    80006160:	6aa2                	ld	s5,8(sp)
    80006162:	854a                	mv	a0,s2
    80006164:	7902                	ld	s2,32(sp)
    80006166:	6121                	add	sp,sp,64
    80006168:	891ff06f          	j	800059f8 <truly_illegal_insn>
    8000616c:	00c45513          	srl	a0,s0,0xc
    80006170:	0f857513          	and	a0,a0,248
    80006174:	ffffe797          	auipc	a5,0xffffe
    80006178:	97aa                	add	a5,a5,a0
    8000617a:	dde782e7          	jalr	t0,-546(a5) # 80003f52 <get_f32_reg>
    8000617e:	483000ef          	jal	80006e00 <f32_to_f64>
    80006182:	01f4fa13          	and	s4,s1,31
    80006186:	0002059b          	sext.w	a1,tp
    8000618a:	f80550e3          	bgez	a0,8000610a <emulate_fcvt_if+0x4e>
    8000618e:	5afd                	li	s5,-1
    80006190:	03fa9993          	sll	s3,s5,0x3f
    80006194:	4605                	li	a2,1
    80006196:	01354533          	xor	a0,a0,s3
    8000619a:	38e010ef          	jal	80007528 <f64_to_ui64>
    8000619e:	4705                	li	a4,1
    800061a0:	02ea0563          	beq	s4,a4,800061ca <emulate_fcvt_if+0x10e>
    800061a4:	01e4f793          	and	a5,s1,30
    800061a8:	c3a1                	beqz	a5,800061e8 <emulate_fcvt_if+0x12c>
    800061aa:	4789                	li	a5,2
    800061ac:	02fa1463          	bne	s4,a5,800061d4 <emulate_fcvt_if+0x118>
    800061b0:	87ce                	mv	a5,s3
    800061b2:	40a00733          	neg	a4,a0
    800061b6:	86ce                	mv	a3,s3
    800061b8:	bf95                	j	8000612c <emulate_fcvt_if+0x70>
    800061ba:	800007b7          	lui	a5,0x80000
    800061be:	fff7c793          	not	a5,a5
    800061c2:	0005071b          	sext.w	a4,a0
    800061c6:	86be                	mv	a3,a5
    800061c8:	b795                	j	8000612c <emulate_fcvt_if+0x70>
    800061ca:	020ad793          	srl	a5,s5,0x20
    800061ce:	4681                	li	a3,0
    800061d0:	4701                	li	a4,0
    800061d2:	bfa9                	j	8000612c <emulate_fcvt_if+0x70>
    800061d4:	57fd                	li	a5,-1
    800061d6:	4681                	li	a3,0
    800061d8:	4701                	li	a4,0
    800061da:	bf89                	j	8000612c <emulate_fcvt_if+0x70>
    800061dc:	577d                	li	a4,-1
    800061de:	9301                	srl	a4,a4,0x20
    800061e0:	87ba                	mv	a5,a4
    800061e2:	86be                	mv	a3,a5
    800061e4:	8f69                	and	a4,a4,a0
    800061e6:	b799                	j	8000612c <emulate_fcvt_if+0x70>
    800061e8:	01f71793          	sll	a5,a4,0x1f
    800061ec:	86be                	mv	a3,a5
    800061ee:	40a0073b          	negw	a4,a0
    800061f2:	bf2d                	j	8000612c <emulate_fcvt_if+0x70>

00000000800061f4 <emulate_fcmp>:
    800061f4:	7179                	add	sp,sp,-48
    800061f6:	f022                	sd	s0,32(sp)
    800061f8:	843a                	mv	s0,a4
    800061fa:	8331                	srl	a4,a4,0xc
    800061fc:	ec26                	sd	s1,24(sp)
    800061fe:	e84a                	sd	s2,16(sp)
    80006200:	f406                	sd	ra,40(sp)
    80006202:	e44e                	sd	s3,8(sp)
    80006204:	e052                	sd	s4,0(sp)
    80006206:	00777493          	and	s1,a4,7
    8000620a:	4809                	li	a6,2
    8000620c:	892a                	mv	s2,a0
    8000620e:	00984963          	blt	a6,s1,80006220 <emulate_fcmp+0x2c>
    80006212:	01945793          	srl	a5,s0,0x19
    80006216:	8b8d                	and	a5,a5,3
    80006218:	cf99                	beqz	a5,80006236 <emulate_fcmp+0x42>
    8000621a:	4505                	li	a0,1
    8000621c:	06a78e63          	beq	a5,a0,80006298 <emulate_fcmp+0xa4>
    80006220:	8722                	mv	a4,s0
    80006222:	7402                	ld	s0,32(sp)
    80006224:	70a2                	ld	ra,40(sp)
    80006226:	64e2                	ld	s1,24(sp)
    80006228:	69a2                	ld	s3,8(sp)
    8000622a:	6a02                	ld	s4,0(sp)
    8000622c:	854a                	mv	a0,s2
    8000622e:	6942                	ld	s2,16(sp)
    80006230:	6145                	add	sp,sp,48
    80006232:	fc6ff06f          	j	800059f8 <truly_illegal_insn>
    80006236:	0007051b          	sext.w	a0,a4
    8000623a:	01145793          	srl	a5,s0,0x11
    8000623e:	4705                	li	a4,1
    80006240:	0f857513          	and	a0,a0,248
    80006244:	ffffe697          	auipc	a3,0xffffe
    80006248:	96aa                	add	a3,a3,a0
    8000624a:	d0e682e7          	jalr	t0,-754(a3) # 80003f52 <get_f32_reg>
    8000624e:	0005099b          	sext.w	s3,a0
    80006252:	0f87f513          	and	a0,a5,248
    80006256:	ffffe797          	auipc	a5,0xffffe
    8000625a:	97aa                	add	a5,a5,a0
    8000625c:	cfc782e7          	jalr	t0,-772(a5) # 80003f52 <get_f32_reg>
    80006260:	00050a1b          	sext.w	s4,a0
    80006264:	00e48863          	beq	s1,a4,80006274 <emulate_fcmp+0x80>
    80006268:	85d2                	mv	a1,s4
    8000626a:	854e                	mv	a0,s3
    8000626c:	7e8000ef          	jal	80006a54 <f32_eq>
    80006270:	e491                	bnez	s1,8000627c <emulate_fcmp+0x88>
    80006272:	e135                	bnez	a0,800062d6 <emulate_fcmp+0xe2>
    80006274:	85d2                	mv	a1,s4
    80006276:	854e                	mv	a0,s3
    80006278:	04f000ef          	jal	80006ac6 <f32_lt>
    8000627c:	8011                	srl	s0,s0,0x4
    8000627e:	0f847413          	and	s0,s0,248
    80006282:	008907b3          	add	a5,s2,s0
    80006286:	70a2                	ld	ra,40(sp)
    80006288:	7402                	ld	s0,32(sp)
    8000628a:	e388                	sd	a0,0(a5)
    8000628c:	64e2                	ld	s1,24(sp)
    8000628e:	6942                	ld	s2,16(sp)
    80006290:	69a2                	ld	s3,8(sp)
    80006292:	6a02                	ld	s4,0(sp)
    80006294:	6145                	add	sp,sp,48
    80006296:	8082                	ret
    80006298:	01145693          	srl	a3,s0,0x11
    8000629c:	0f877513          	and	a0,a4,248
    800062a0:	ffffe717          	auipc	a4,0xffffe
    800062a4:	972a                	add	a4,a4,a0
    800062a6:	eb2702e7          	jalr	t0,-334(a4) # 80004152 <get_f64_reg>
    800062aa:	89aa                	mv	s3,a0
    800062ac:	0f86f513          	and	a0,a3,248
    800062b0:	ffffe717          	auipc	a4,0xffffe
    800062b4:	972a                	add	a4,a4,a0
    800062b6:	ea2702e7          	jalr	t0,-350(a4) # 80004152 <get_f64_reg>
    800062ba:	8a2a                	mv	s4,a0
    800062bc:	00f48863          	beq	s1,a5,800062cc <emulate_fcmp+0xd8>
    800062c0:	85aa                	mv	a1,a0
    800062c2:	854e                	mv	a0,s3
    800062c4:	645000ef          	jal	80007108 <f64_eq>
    800062c8:	f8d5                	bnez	s1,8000627c <emulate_fcmp+0x88>
    800062ca:	e511                	bnez	a0,800062d6 <emulate_fcmp+0xe2>
    800062cc:	85d2                	mv	a1,s4
    800062ce:	854e                	mv	a0,s3
    800062d0:	6ad000ef          	jal	8000717c <f64_lt>
    800062d4:	b765                	j	8000627c <emulate_fcmp+0x88>
    800062d6:	4505                	li	a0,1
    800062d8:	b755                	j	8000627c <emulate_fcmp+0x88>

00000000800062da <emulate_fmv_if>:
    800062da:	1101                	add	sp,sp,-32
    800062dc:	01475793          	srl	a5,a4,0x14
    800062e0:	e822                	sd	s0,16(sp)
    800062e2:	e426                	sd	s1,8(sp)
    800062e4:	ec06                	sd	ra,24(sp)
    800062e6:	8bfd                	and	a5,a5,31
    800062e8:	843a                	mv	s0,a4
    800062ea:	84aa                	mv	s1,a0
    800062ec:	882e                	mv	a6,a1
    800062ee:	88b2                	mv	a7,a2
    800062f0:	8336                	mv	t1,a3
    800062f2:	e3d1                	bnez	a5,80006376 <emulate_fmv_if+0x9c>
    800062f4:	01975793          	srl	a5,a4,0x19
    800062f8:	8b8d                	and	a5,a5,3
    800062fa:	eb8d                	bnez	a5,8000632c <emulate_fmv_if+0x52>
    800062fc:	00c75513          	srl	a0,a4,0xc
    80006300:	00757793          	and	a5,a0,7
    80006304:	0f857513          	and	a0,a0,248
    80006308:	ffffe817          	auipc	a6,0xffffe
    8000630c:	982a                	add	a6,a6,a0
    8000630e:	c4a802e7          	jalr	t0,-950(a6) # 80003f52 <get_f32_reg>
    80006312:	0005081b          	sext.w	a6,a0
    80006316:	c7a1                	beqz	a5,8000635e <emulate_fmv_if+0x84>
    80006318:	4505                	li	a0,1
    8000631a:	06a78963          	beq	a5,a0,8000638c <emulate_fmv_if+0xb2>
    8000631e:	6442                	ld	s0,16(sp)
    80006320:	60e2                	ld	ra,24(sp)
    80006322:	8526                	mv	a0,s1
    80006324:	64a2                	ld	s1,8(sp)
    80006326:	6105                	add	sp,sp,32
    80006328:	ed0ff06f          	j	800059f8 <truly_illegal_insn>
    8000632c:	4505                	li	a0,1
    8000632e:	04a79463          	bne	a5,a0,80006376 <emulate_fmv_if+0x9c>
    80006332:	00c75893          	srl	a7,a4,0xc
    80006336:	0f88f513          	and	a0,a7,248
    8000633a:	0078f893          	and	a7,a7,7
    8000633e:	ffffe817          	auipc	a6,0xffffe
    80006342:	982a                	add	a6,a6,a0
    80006344:	e14802e7          	jalr	t0,-492(a6) # 80004152 <get_f64_reg>
    80006348:	882a                	mv	a6,a0
    8000634a:	00088a63          	beqz	a7,8000635e <emulate_fmv_if+0x84>
    8000634e:	fcf898e3          	bne	a7,a5,8000631e <emulate_fmv_if+0x44>
    80006352:	28c010ef          	jal	800075de <f64_classify>
    80006356:	02051813          	sll	a6,a0,0x20
    8000635a:	02085813          	srl	a6,a6,0x20
    8000635e:	8011                	srl	s0,s0,0x4
    80006360:	0f847413          	and	s0,s0,248
    80006364:	00848533          	add	a0,s1,s0
    80006368:	60e2                	ld	ra,24(sp)
    8000636a:	6442                	ld	s0,16(sp)
    8000636c:	01053023          	sd	a6,0(a0)
    80006370:	64a2                	ld	s1,8(sp)
    80006372:	6105                	add	sp,sp,32
    80006374:	8082                	ret
    80006376:	8722                	mv	a4,s0
    80006378:	6442                	ld	s0,16(sp)
    8000637a:	60e2                	ld	ra,24(sp)
    8000637c:	8526                	mv	a0,s1
    8000637e:	64a2                	ld	s1,8(sp)
    80006380:	869a                	mv	a3,t1
    80006382:	8646                	mv	a2,a7
    80006384:	85c2                	mv	a1,a6
    80006386:	6105                	add	sp,sp,32
    80006388:	e70ff06f          	j	800059f8 <truly_illegal_insn>
    8000638c:	8542                	mv	a0,a6
    8000638e:	2f9000ef          	jal	80006e86 <f32_classify>
    80006392:	02051813          	sll	a6,a0,0x20
    80006396:	02085813          	srl	a6,a6,0x20
    8000639a:	b7d1                	j	8000635e <emulate_fmv_if+0x84>

000000008000639c <emulate_fmv_fi>:
    8000639c:	00c75893          	srl	a7,a4,0xc
    800063a0:	0f88f893          	and	a7,a7,248
    800063a4:	483d                	li	a6,15
    800063a6:	01150333          	add	t1,a0,a7
    800063aa:	0872                	sll	a6,a6,0x1c
    800063ac:	00006897          	auipc	a7,0x6
    800063b0:	0dc8b883          	ld	a7,220(a7) # 8000c488 <trap_table+0x88>
    800063b4:	011778b3          	and	a7,a4,a7
    800063b8:	05380813          	add	a6,a6,83
    800063bc:	00033303          	ld	t1,0(t1)
    800063c0:	03088663          	beq	a7,a6,800063ec <emulate_fmv_fi+0x50>
    800063c4:	07900813          	li	a6,121
    800063c8:	0866                	sll	a6,a6,0x19
    800063ca:	05380813          	add	a6,a6,83
    800063ce:	01089d63          	bne	a7,a6,800063e8 <emulate_fmv_fi+0x4c>
    800063d2:	00475793          	srl	a5,a4,0x4
    800063d6:	851a                	mv	a0,t1
    800063d8:	0f87f793          	and	a5,a5,248
    800063dc:	ffffe717          	auipc	a4,0xffffe
    800063e0:	973e                	add	a4,a4,a5
    800063e2:	e76702e7          	jalr	t0,-394(a4) # 80004252 <put_f64_reg>
    800063e6:	8082                	ret
    800063e8:	e10ff06f          	j	800059f8 <truly_illegal_insn>
    800063ec:	00475793          	srl	a5,a4,0x4
    800063f0:	851a                	mv	a0,t1
    800063f2:	0f87f793          	and	a5,a5,248
    800063f6:	ffffe717          	auipc	a4,0xffffe
    800063fa:	973e                	add	a4,a4,a5
    800063fc:	c5c702e7          	jalr	t0,-932(a4) # 80004052 <put_f32_reg>
    80006400:	8082                	ret

0000000080006402 <emulate_fmadd>:
    80006402:	1141                	add	sp,sp,-16
    80006404:	6799                	lui	a5,0x6
    80006406:	e022                	sd	s0,0(sp)
    80006408:	e406                	sd	ra,8(sp)
    8000640a:	8ff5                	and	a5,a5,a3
    8000640c:	843a                	mv	s0,a4
    8000640e:	10078063          	beqz	a5,8000650e <emulate_fmadd+0x10c>
    80006412:	00375793          	srl	a5,a4,0x3
    80006416:	8309                	srl	a4,a4,0x2
    80006418:	8b85                	and	a5,a5,1
    8000641a:	8b05                	and	a4,a4,1
    8000641c:	00202373          	frrm	t1
    80006420:	681d                	lui	a6,0x7
    80006422:	010478b3          	and	a7,s0,a6
    80006426:	821a                	mv	tp,t1
    80006428:	0f089963          	bne	a7,a6,8000651a <emulate_fmadd+0x118>
    8000642c:	01945813          	srl	a6,s0,0x19
    80006430:	00387813          	and	a6,a6,3
    80006434:	06080763          	beqz	a6,800064a2 <emulate_fmadd+0xa0>
    80006438:	4885                	li	a7,1
    8000643a:	0d181a63          	bne	a6,a7,8000650e <emulate_fmadd+0x10c>
    8000643e:	00c45513          	srl	a0,s0,0xc
    80006442:	01145613          	srl	a2,s0,0x11
    80006446:	01845693          	srl	a3,s0,0x18
    8000644a:	17fe                	sll	a5,a5,0x3f
    8000644c:	177e                	sll	a4,a4,0x3f
    8000644e:	0f857513          	and	a0,a0,248
    80006452:	ffffe597          	auipc	a1,0xffffe
    80006456:	95aa                	add	a1,a1,a0
    80006458:	d00582e7          	jalr	t0,-768(a1) # 80004152 <get_f64_reg>
    8000645c:	882a                	mv	a6,a0
    8000645e:	8011                	srl	s0,s0,0x4
    80006460:	0f867513          	and	a0,a2,248
    80006464:	ffffe617          	auipc	a2,0xffffe
    80006468:	962a                	add	a2,a2,a0
    8000646a:	cee602e7          	jalr	t0,-786(a2) # 80004152 <get_f64_reg>
    8000646e:	85aa                	mv	a1,a0
    80006470:	0f86f513          	and	a0,a3,248
    80006474:	ffffe697          	auipc	a3,0xffffe
    80006478:	96aa                	add	a3,a3,a0
    8000647a:	cde682e7          	jalr	t0,-802(a3) # 80004152 <get_f64_reg>
    8000647e:	4681                	li	a3,0
    80006480:	00a74633          	xor	a2,a4,a0
    80006484:	0107c533          	xor	a0,a5,a6
    80006488:	047010ef          	jal	80007cce <softfloat_mulAddF64>
    8000648c:	0f847413          	and	s0,s0,248
    80006490:	ffffe797          	auipc	a5,0xffffe
    80006494:	97a2                	add	a5,a5,s0
    80006496:	dc2782e7          	jalr	t0,-574(a5) # 80004252 <put_f64_reg>
    8000649a:	60a2                	ld	ra,8(sp)
    8000649c:	6402                	ld	s0,0(sp)
    8000649e:	0141                	add	sp,sp,16
    800064a0:	8082                	ret
    800064a2:	01145613          	srl	a2,s0,0x11
    800064a6:	01845693          	srl	a3,s0,0x18
    800064aa:	00c45513          	srl	a0,s0,0xc
    800064ae:	01f7979b          	sllw	a5,a5,0x1f
    800064b2:	01f7171b          	sllw	a4,a4,0x1f
    800064b6:	0f857513          	and	a0,a0,248
    800064ba:	ffffe597          	auipc	a1,0xffffe
    800064be:	95aa                	add	a1,a1,a0
    800064c0:	a98582e7          	jalr	t0,-1384(a1) # 80003f52 <get_f32_reg>
    800064c4:	8fa9                	xor	a5,a5,a0
    800064c6:	0f867513          	and	a0,a2,248
    800064ca:	ffffe617          	auipc	a2,0xffffe
    800064ce:	962a                	add	a2,a2,a0
    800064d0:	a88602e7          	jalr	t0,-1400(a2) # 80003f52 <get_f32_reg>
    800064d4:	0005059b          	sext.w	a1,a0
    800064d8:	0f86f513          	and	a0,a3,248
    800064dc:	ffffe697          	auipc	a3,0xffffe
    800064e0:	96aa                	add	a3,a3,a0
    800064e2:	a76682e7          	jalr	t0,-1418(a3) # 80003f52 <get_f32_reg>
    800064e6:	8f29                	xor	a4,a4,a0
    800064e8:	4681                	li	a3,0
    800064ea:	0007061b          	sext.w	a2,a4
    800064ee:	0007851b          	sext.w	a0,a5
    800064f2:	8011                	srl	s0,s0,0x4
    800064f4:	558010ef          	jal	80007a4c <softfloat_mulAddF32>
    800064f8:	0f847413          	and	s0,s0,248
    800064fc:	ffffe797          	auipc	a5,0xffffe
    80006500:	97a2                	add	a5,a5,s0
    80006502:	b56782e7          	jalr	t0,-1194(a5) # 80004052 <put_f32_reg>
    80006506:	60a2                	ld	ra,8(sp)
    80006508:	6402                	ld	s0,0(sp)
    8000650a:	0141                	add	sp,sp,16
    8000650c:	8082                	ret
    8000650e:	8722                	mv	a4,s0
    80006510:	6402                	ld	s0,0(sp)
    80006512:	60a2                	ld	ra,8(sp)
    80006514:	0141                	add	sp,sp,16
    80006516:	ce2ff06f          	j	800059f8 <truly_illegal_insn>
    8000651a:	00c45813          	srl	a6,s0,0xc
    8000651e:	00787813          	and	a6,a6,7
    80006522:	4891                	li	a7,4
    80006524:	ff08e5e3          	bltu	a7,a6,8000650e <emulate_fmadd+0x10c>
    80006528:	8242                	mv	tp,a6
    8000652a:	b709                	j	8000642c <emulate_fmadd+0x2a>

000000008000652c <misaligned_load_trap>:
    8000652c:	000a05b7          	lui	a1,0xa0
    80006530:	478d                	li	a5,3
    80006532:	3005a6f3          	csrrs	a3,mstatus,a1
    80006536:	00267813          	and	a6,a2,2
    8000653a:	00081b63          	bnez	a6,80006550 <misaligned_load_trap+0x24>
    8000653e:	00066703          	lwu	a4,0(a2)
    80006542:	00f77833          	and	a6,a4,a5
    80006546:	00f80f63          	beq	a6,a5,80006564 <misaligned_load_trap+0x38>
    8000654a:	1742                	sll	a4,a4,0x30
    8000654c:	9341                	srl	a4,a4,0x30
    8000654e:	a819                	j	80006564 <misaligned_load_trap+0x38>
    80006550:	00065703          	lhu	a4,0(a2)
    80006554:	00f77833          	and	a6,a4,a5
    80006558:	00f81663          	bne	a6,a5,80006564 <misaligned_load_trap+0x38>
    8000655c:	00265803          	lhu	a6,2(a2)
    80006560:	0842                	sll	a6,a6,0x10
    80006562:	9742                	add	a4,a4,a6
    80006564:	30069073          	csrw	mstatus,a3
    80006568:	00377593          	and	a1,a4,3
    8000656c:	833a                	mv	t1,a4
    8000656e:	8eb6                	mv	t4,a3
    80006570:	4e11                	li	t3,4
    80006572:	00f58363          	beq	a1,a5,80006578 <misaligned_load_trap+0x4c>
    80006576:	4e09                	li	t3,2
    80006578:	9e32                	add	t3,t3,a2
    8000657a:	34302873          	csrr	a6,mtval
    8000657e:	679d                	lui	a5,0x7
    80006580:	6589                	lui	a1,0x2
    80006582:	07f78793          	add	a5,a5,127 # 707f <_ftext-0x7fff8f81>
    80006586:	8ff9                	and	a5,a5,a4
    80006588:	00358893          	add	a7,a1,3 # 2003 <_ftext-0x7fffdffd>
    8000658c:	0d178e63          	beq	a5,a7,80006668 <misaligned_load_trap+0x13c>
    80006590:	688d                	lui	a7,0x3
    80006592:	00388f13          	add	t5,a7,3 # 3003 <_ftext-0x7fffcffd>
    80006596:	07e78263          	beq	a5,t5,800065fa <misaligned_load_trap+0xce>
    8000659a:	6f19                	lui	t5,0x6
    8000659c:	003f0f93          	add	t6,t5,3 # 6003 <_ftext-0x7fff9ffd>
    800065a0:	0ff78c63          	beq	a5,t6,80006698 <misaligned_load_trap+0x16c>
    800065a4:	089d                	add	a7,a7,7
    800065a6:	0d178a63          	beq	a5,a7,8000667a <misaligned_load_trap+0x14e>
    800065aa:	059d                	add	a1,a1,7
    800065ac:	0eb78b63          	beq	a5,a1,800066a2 <misaligned_load_trap+0x176>
    800065b0:	6585                	lui	a1,0x1
    800065b2:	058d                	add	a1,a1,3 # 1003 <_ftext-0x7fffeffd>
    800065b4:	10b78763          	beq	a5,a1,800066c2 <misaligned_load_trap+0x196>
    800065b8:	6595                	lui	a1,0x5
    800065ba:	058d                	add	a1,a1,3 # 5003 <_ftext-0x7fffaffd>
    800065bc:	10b78963          	beq	a5,a1,800066ce <misaligned_load_trap+0x1a2>
    800065c0:	67b9                	lui	a5,0xe
    800065c2:	078d                	add	a5,a5,3 # e003 <_ftext-0x7fff1ffd>
    800065c4:	8ff9                	and	a5,a5,a4
    800065c6:	0fe78363          	beq	a5,t5,800066ac <misaligned_load_trap+0x180>
    800065ca:	0f09                	add	t5,t5,2
    800065cc:	03e78363          	beq	a5,t5,800065f2 <misaligned_load_trap+0xc6>
    800065d0:	6591                	lui	a1,0x4
    800065d2:	12b78163          	beq	a5,a1,800066f4 <misaligned_load_trap+0x1c8>
    800065d6:	6591                	lui	a1,0x4
    800065d8:	0589                	add	a1,a1,2 # 4002 <_ftext-0x7fffbffe>
    800065da:	0eb79f63          	bne	a5,a1,800066d8 <misaligned_load_trap+0x1ac>
    800065de:	00775793          	srl	a5,a4,0x7
    800065e2:	8bfd                	and	a5,a5,31
    800065e4:	e3d1                	bnez	a5,80006668 <misaligned_load_trap+0x13c>
    800065e6:	3422d073          	csrw	mcause,5
    800065ea:	4595                	li	a1,5
    800065ec:	86f6                	mv	a3,t4
    800065ee:	c0aff06f          	j	800059f8 <truly_illegal_insn>
    800065f2:	00775793          	srl	a5,a4,0x7
    800065f6:	8bfd                	and	a5,a5,31
    800065f8:	d7fd                	beqz	a5,800065e6 <misaligned_load_trap+0xba>
    800065fa:	48a1                	li	a7,8
    800065fc:	4fa1                	li	t6,8
    800065fe:	4f01                	li	t5,0
    80006600:	4e81                	li	t4,0
    80006602:	1141                	add	sp,sp,-16
    80006604:	e402                	sd	zero,8(sp)
    80006606:	98c2                	add	a7,a7,a6
    80006608:	87c2                	mv	a5,a6
    8000660a:	41078733          	sub	a4,a5,a6
    8000660e:	002c                	add	a1,sp,8
    80006610:	972e                	add	a4,a4,a1
    80006612:	0785                	add	a5,a5,1
    80006614:	000205b7          	lui	a1,0x20
    80006618:	3005a6f3          	csrrs	a3,mstatus,a1
    8000661c:	fff7c283          	lbu	t0,-1(a5)
    80006620:	30069073          	csrw	mstatus,a3
    80006624:	00570023          	sb	t0,0(a4)
    80006628:	fef891e3          	bne	a7,a5,8000660a <misaligned_load_trap+0xde>
    8000662c:	00435313          	srl	t1,t1,0x4
    80006630:	0f837313          	and	t1,t1,248
    80006634:	000f0f63          	beqz	t5,80006652 <misaligned_load_trap+0x126>
    80006638:	47a1                	li	a5,8
    8000663a:	04ff8563          	beq	t6,a5,80006684 <misaligned_load_trap+0x158>
    8000663e:	4522                	lw	a0,8(sp)
    80006640:	ffffe797          	auipc	a5,0xffffe
    80006644:	979a                	add	a5,a5,t1
    80006646:	a12782e7          	jalr	t0,-1518(a5) # 80004052 <put_f32_reg>
    8000664a:	341e1073          	csrw	mepc,t3
    8000664e:	0141                	add	sp,sp,16
    80006650:	8082                	ret
    80006652:	67a2                	ld	a5,8(sp)
    80006654:	951a                	add	a0,a0,t1
    80006656:	01d797b3          	sll	a5,a5,t4
    8000665a:	41d7d7b3          	sra	a5,a5,t4
    8000665e:	e11c                	sd	a5,0(a0)
    80006660:	341e1073          	csrw	mepc,t3
    80006664:	0141                	add	sp,sp,16
    80006666:	8082                	ret
    80006668:	4891                	li	a7,4
    8000666a:	4f91                	li	t6,4
    8000666c:	4f01                	li	t5,0
    8000666e:	02000e93          	li	t4,32
    80006672:	bf41                	j	80006602 <misaligned_load_trap+0xd6>
    80006674:	0589                	add	a1,a1,2 # 20002 <_ftext-0x7ffdfffe>
    80006676:	f6b798e3          	bne	a5,a1,800065e6 <misaligned_load_trap+0xba>
    8000667a:	48a1                	li	a7,8
    8000667c:	4fa1                	li	t6,8
    8000667e:	4f05                	li	t5,1
    80006680:	4e81                	li	t4,0
    80006682:	b741                	j	80006602 <misaligned_load_trap+0xd6>
    80006684:	6522                	ld	a0,8(sp)
    80006686:	ffffe797          	auipc	a5,0xffffe
    8000668a:	979a                	add	a5,a5,t1
    8000668c:	bcc782e7          	jalr	t0,-1076(a5) # 80004252 <put_f64_reg>
    80006690:	341e1073          	csrw	mepc,t3
    80006694:	0141                	add	sp,sp,16
    80006696:	8082                	ret
    80006698:	4891                	li	a7,4
    8000669a:	4f91                	li	t6,4
    8000669c:	4f01                	li	t5,0
    8000669e:	4e81                	li	t4,0
    800066a0:	b78d                	j	80006602 <misaligned_load_trap+0xd6>
    800066a2:	4891                	li	a7,4
    800066a4:	4f91                	li	t6,4
    800066a6:	4f05                	li	t5,1
    800066a8:	4e81                	li	t4,0
    800066aa:	bfa1                	j	80006602 <misaligned_load_trap+0xd6>
    800066ac:	00275793          	srl	a5,a4,0x2
    800066b0:	8b9d                	and	a5,a5,7
    800066b2:	07a1                	add	a5,a5,8
    800066b4:	00779313          	sll	t1,a5,0x7
    800066b8:	48a1                	li	a7,8
    800066ba:	4fa1                	li	t6,8
    800066bc:	4f01                	li	t5,0
    800066be:	4e81                	li	t4,0
    800066c0:	b789                	j	80006602 <misaligned_load_trap+0xd6>
    800066c2:	4889                	li	a7,2
    800066c4:	4f89                	li	t6,2
    800066c6:	4f01                	li	t5,0
    800066c8:	03000e93          	li	t4,48
    800066cc:	bf1d                	j	80006602 <misaligned_load_trap+0xd6>
    800066ce:	4889                	li	a7,2
    800066d0:	4f89                	li	t6,2
    800066d2:	4f01                	li	t5,0
    800066d4:	4e81                	li	t4,0
    800066d6:	b735                	j	80006602 <misaligned_load_trap+0xd6>
    800066d8:	6589                	lui	a1,0x2
    800066da:	f8b79de3          	bne	a5,a1,80006674 <misaligned_load_trap+0x148>
    800066de:	00275793          	srl	a5,a4,0x2
    800066e2:	8b9d                	and	a5,a5,7
    800066e4:	07a1                	add	a5,a5,8
    800066e6:	00779313          	sll	t1,a5,0x7
    800066ea:	48a1                	li	a7,8
    800066ec:	4fa1                	li	t6,8
    800066ee:	4f05                	li	t5,1
    800066f0:	4e81                	li	t4,0
    800066f2:	bf01                	j	80006602 <misaligned_load_trap+0xd6>
    800066f4:	00275793          	srl	a5,a4,0x2
    800066f8:	8b9d                	and	a5,a5,7
    800066fa:	07a1                	add	a5,a5,8
    800066fc:	00779313          	sll	t1,a5,0x7
    80006700:	4891                	li	a7,4
    80006702:	4f91                	li	t6,4
    80006704:	4f01                	li	t5,0
    80006706:	02000e93          	li	t4,32
    8000670a:	bde5                	j	80006602 <misaligned_load_trap+0xd6>

000000008000670c <misaligned_store_trap>:
    8000670c:	000a05b7          	lui	a1,0xa0
    80006710:	478d                	li	a5,3
    80006712:	3005a6f3          	csrrs	a3,mstatus,a1
    80006716:	00267813          	and	a6,a2,2
    8000671a:	00081b63          	bnez	a6,80006730 <misaligned_store_trap+0x24>
    8000671e:	00066703          	lwu	a4,0(a2)
    80006722:	00f77833          	and	a6,a4,a5
    80006726:	00f80f63          	beq	a6,a5,80006744 <misaligned_store_trap+0x38>
    8000672a:	1742                	sll	a4,a4,0x30
    8000672c:	9341                	srl	a4,a4,0x30
    8000672e:	a819                	j	80006744 <misaligned_store_trap+0x38>
    80006730:	00065703          	lhu	a4,0(a2)
    80006734:	00f77833          	and	a6,a4,a5
    80006738:	00f81663          	bne	a6,a5,80006744 <misaligned_store_trap+0x38>
    8000673c:	00265803          	lhu	a6,2(a2)
    80006740:	0842                	sll	a6,a6,0x10
    80006742:	9742                	add	a4,a4,a6
    80006744:	30069073          	csrw	mstatus,a3
    80006748:	00377593          	and	a1,a4,3
    8000674c:	1141                	add	sp,sp,-16
    8000674e:	88aa                	mv	a7,a0
    80006750:	8eb6                	mv	t4,a3
    80006752:	4811                	li	a6,4
    80006754:	00f58363          	beq	a1,a5,8000675a <misaligned_store_trap+0x4e>
    80006758:	4809                	li	a6,2
    8000675a:	01175793          	srl	a5,a4,0x11
    8000675e:	0f87f513          	and	a0,a5,248
    80006762:	00a887b3          	add	a5,a7,a0
    80006766:	639c                	ld	a5,0(a5)
    80006768:	6589                	lui	a1,0x2
    8000676a:	02358e13          	add	t3,a1,35 # 2023 <_ftext-0x7fffdfdd>
    8000676e:	e43e                	sd	a5,8(sp)
    80006770:	679d                	lui	a5,0x7
    80006772:	07f78793          	add	a5,a5,127 # 707f <_ftext-0x7fff8f81>
    80006776:	8ff9                	and	a5,a5,a4
    80006778:	01060333          	add	t1,a2,a6
    8000677c:	05c78e63          	beq	a5,t3,800067d8 <misaligned_store_trap+0xcc>
    80006780:	680d                	lui	a6,0x3
    80006782:	02380e13          	add	t3,a6,35 # 3023 <_ftext-0x7fffcfdd>
    80006786:	07c78a63          	beq	a5,t3,800067fa <misaligned_store_trap+0xee>
    8000678a:	02780813          	add	a6,a6,39
    8000678e:	07078063          	beq	a5,a6,800067ee <misaligned_store_trap+0xe2>
    80006792:	02758593          	add	a1,a1,39
    80006796:	08b78c63          	beq	a5,a1,8000682e <misaligned_store_trap+0x122>
    8000679a:	6585                	lui	a1,0x1
    8000679c:	02358593          	add	a1,a1,35 # 1023 <_ftext-0x7fffefdd>
    800067a0:	0ab78263          	beq	a5,a1,80006844 <misaligned_store_trap+0x138>
    800067a4:	65b9                	lui	a1,0xe
    800067a6:	00358793          	add	a5,a1,3 # e003 <_ftext-0x7fff1ffd>
    800067aa:	8ff9                	and	a5,a5,a4
    800067ac:	0ab78663          	beq	a5,a1,80006858 <misaligned_store_trap+0x14c>
    800067b0:	0589                	add	a1,a1,2
    800067b2:	0ab78c63          	beq	a5,a1,8000686a <misaligned_store_trap+0x15e>
    800067b6:	65b1                	lui	a1,0xc
    800067b8:	08b78a63          	beq	a5,a1,8000684c <misaligned_store_trap+0x140>
    800067bc:	0589                	add	a1,a1,2 # c002 <_ftext-0x7fff3ffe>
    800067be:	0cb79263          	bne	a5,a1,80006882 <misaligned_store_trap+0x176>
    800067c2:	00775793          	srl	a5,a4,0x7
    800067c6:	8bfd                	and	a5,a5,31
    800067c8:	c7cd                	beqz	a5,80006872 <misaligned_store_trap+0x166>
    800067ca:	00171793          	sll	a5,a4,0x1
    800067ce:	0f87f793          	and	a5,a5,248
    800067d2:	97c6                	add	a5,a5,a7
    800067d4:	639c                	ld	a5,0(a5)
    800067d6:	e43e                	sd	a5,8(sp)
    800067d8:	34302873          	csrr	a6,mtval
    800067dc:	4891                	li	a7,4
    800067de:	a00d                	j	80006800 <misaligned_store_trap+0xf4>
    800067e0:	65a9                	lui	a1,0xa
    800067e2:	0589                	add	a1,a1,2 # a002 <_ftext-0x7fff5ffe>
    800067e4:	08b79763          	bne	a5,a1,80006872 <misaligned_store_trap+0x166>
    800067e8:	0706                	sll	a4,a4,0x1
    800067ea:	0f877513          	and	a0,a4,248
    800067ee:	ffffe797          	auipc	a5,0xffffe
    800067f2:	97aa                	add	a5,a5,a0
    800067f4:	964782e7          	jalr	t0,-1692(a5) # 80004152 <get_f64_reg>
    800067f8:	e42a                	sd	a0,8(sp)
    800067fa:	34302873          	csrr	a6,mtval
    800067fe:	48a1                	li	a7,8
    80006800:	003c                	add	a5,sp,8
    80006802:	98be                	add	a7,a7,a5
    80006804:	40f80833          	sub	a6,a6,a5
    80006808:	0007c703          	lbu	a4,0(a5)
    8000680c:	00f80533          	add	a0,a6,a5
    80006810:	000205b7          	lui	a1,0x20
    80006814:	3005a6f3          	csrrs	a3,mstatus,a1
    80006818:	00e50023          	sb	a4,0(a0)
    8000681c:	30069073          	csrw	mstatus,a3
    80006820:	0785                	add	a5,a5,1
    80006822:	ff1793e3          	bne	a5,a7,80006808 <misaligned_store_trap+0xfc>
    80006826:	34131073          	csrw	mepc,t1
    8000682a:	0141                	add	sp,sp,16
    8000682c:	8082                	ret
    8000682e:	ffffd797          	auipc	a5,0xffffd
    80006832:	97aa                	add	a5,a5,a0
    80006834:	724782e7          	jalr	t0,1828(a5) # 80003f52 <get_f32_reg>
    80006838:	2501                	sext.w	a0,a0
    8000683a:	e42a                	sd	a0,8(sp)
    8000683c:	34302873          	csrr	a6,mtval
    80006840:	4891                	li	a7,4
    80006842:	bf7d                	j	80006800 <misaligned_store_trap+0xf4>
    80006844:	34302873          	csrr	a6,mtval
    80006848:	4889                	li	a7,2
    8000684a:	bf5d                	j	80006800 <misaligned_store_trap+0xf4>
    8000684c:	00275793          	srl	a5,a4,0x2
    80006850:	8b9d                	and	a5,a5,7
    80006852:	07a1                	add	a5,a5,8
    80006854:	078e                	sll	a5,a5,0x3
    80006856:	bfb5                	j	800067d2 <misaligned_store_trap+0xc6>
    80006858:	00275793          	srl	a5,a4,0x2
    8000685c:	8b9d                	and	a5,a5,7
    8000685e:	07a1                	add	a5,a5,8
    80006860:	078e                	sll	a5,a5,0x3
    80006862:	97c6                	add	a5,a5,a7
    80006864:	639c                	ld	a5,0(a5)
    80006866:	e43e                	sd	a5,8(sp)
    80006868:	bf49                	j	800067fa <misaligned_store_trap+0xee>
    8000686a:	00775793          	srl	a5,a4,0x7
    8000686e:	8bfd                	and	a5,a5,31
    80006870:	eb9d                	bnez	a5,800068a6 <misaligned_store_trap+0x19a>
    80006872:	3423d073          	csrw	mcause,7
    80006876:	459d                	li	a1,7
    80006878:	86f6                	mv	a3,t4
    8000687a:	8546                	mv	a0,a7
    8000687c:	0141                	add	sp,sp,16
    8000687e:	97aff06f          	j	800059f8 <truly_illegal_insn>
    80006882:	65a9                	lui	a1,0xa
    80006884:	f4b79ee3          	bne	a5,a1,800067e0 <misaligned_store_trap+0xd4>
    80006888:	00275513          	srl	a0,a4,0x2
    8000688c:	891d                	and	a0,a0,7
    8000688e:	0521                	add	a0,a0,8
    80006890:	050e                	sll	a0,a0,0x3
    80006892:	ffffe797          	auipc	a5,0xffffe
    80006896:	97aa                	add	a5,a5,a0
    80006898:	8c0782e7          	jalr	t0,-1856(a5) # 80004152 <get_f64_reg>
    8000689c:	e42a                	sd	a0,8(sp)
    8000689e:	34302873          	csrr	a6,mtval
    800068a2:	48a1                	li	a7,8
    800068a4:	bfb1                	j	80006800 <misaligned_store_trap+0xf4>
    800068a6:	00171793          	sll	a5,a4,0x1
    800068aa:	0f87f793          	and	a5,a5,248
    800068ae:	bf55                	j	80006862 <misaligned_store_trap+0x156>

00000000800068b0 <f32_add>:
    800068b0:	00a5c7b3          	xor	a5,a1,a0
    800068b4:	2781                	sext.w	a5,a5
    800068b6:	2501                	sext.w	a0,a0
    800068b8:	2581                	sext.w	a1,a1
    800068ba:	0007c763          	bltz	a5,800068c8 <f32_add+0x18>
    800068be:	00001797          	auipc	a5,0x1
    800068c2:	ddc78793          	add	a5,a5,-548 # 8000769a <softfloat_addMagsF32>
    800068c6:	8782                	jr	a5
    800068c8:	00002797          	auipc	a5,0x2
    800068cc:	dbc78793          	add	a5,a5,-580 # 80008684 <softfloat_subMagsF32>
    800068d0:	8782                	jr	a5

00000000800068d2 <f32_div>:
    800068d2:	7139                	add	sp,sp,-64
    800068d4:	008007b7          	lui	a5,0x800
    800068d8:	17fd                	add	a5,a5,-1 # 7fffff <_ftext-0x7f800001>
    800068da:	ec4e                	sd	s3,24(sp)
    800068dc:	0175599b          	srlw	s3,a0,0x17
    800068e0:	00a7f733          	and	a4,a5,a0
    800068e4:	0175d69b          	srlw	a3,a1,0x17
    800068e8:	8fed                	and	a5,a5,a1
    800068ea:	f822                	sd	s0,48(sp)
    800068ec:	f426                	sd	s1,40(sp)
    800068ee:	f04a                	sd	s2,32(sp)
    800068f0:	fc06                	sd	ra,56(sp)
    800068f2:	00a5c933          	xor	s2,a1,a0
    800068f6:	e852                	sd	s4,16(sp)
    800068f8:	0ff9f993          	zext.b	s3,s3
    800068fc:	0ff00613          	li	a2,255
    80006900:	0007049b          	sext.w	s1,a4
    80006904:	2501                	sext.w	a0,a0
    80006906:	2581                	sext.w	a1,a1
    80006908:	0ff6f713          	zext.b	a4,a3
    8000690c:	0007841b          	sext.w	s0,a5
    80006910:	2901                	sext.w	s2,s2
    80006912:	04c98863          	beq	s3,a2,80006962 <f32_div+0x90>
    80006916:	02c70a63          	beq	a4,a2,8000694a <f32_div+0x78>
    8000691a:	00070a1b          	sext.w	s4,a4
    8000691e:	eb2d                	bnez	a4,80006990 <f32_div+0xbe>
    80006920:	e02d                	bnez	s0,80006982 <f32_div+0xb0>
    80006922:	0134e733          	or	a4,s1,s3
    80006926:	c331                	beqz	a4,8000696a <f32_div+0x98>
    80006928:	001467f3          	csrrs	a5,fflags,8
    8000692c:	70e2                	ld	ra,56(sp)
    8000692e:	7442                	ld	s0,48(sp)
    80006930:	800007b7          	lui	a5,0x80000
    80006934:	00f977b3          	and	a5,s2,a5
    80006938:	7f800537          	lui	a0,0x7f800
    8000693c:	74a2                	ld	s1,40(sp)
    8000693e:	7902                	ld	s2,32(sp)
    80006940:	69e2                	ld	s3,24(sp)
    80006942:	6a42                	ld	s4,16(sp)
    80006944:	9d3d                	addw	a0,a0,a5
    80006946:	6121                	add	sp,sp,64
    80006948:	8082                	ret
    8000694a:	c075                	beqz	s0,80006a2e <f32_div+0x15c>
    8000694c:	052020ef          	jal	8000899e <softfloat_propagateNaNF32UI>
    80006950:	70e2                	ld	ra,56(sp)
    80006952:	7442                	ld	s0,48(sp)
    80006954:	74a2                	ld	s1,40(sp)
    80006956:	7902                	ld	s2,32(sp)
    80006958:	69e2                	ld	s3,24(sp)
    8000695a:	6a42                	ld	s4,16(sp)
    8000695c:	2501                	sext.w	a0,a0
    8000695e:	6121                	add	sp,sp,64
    80006960:	8082                	ret
    80006962:	f4ed                	bnez	s1,8000694c <f32_div+0x7a>
    80006964:	fd3714e3          	bne	a4,s3,8000692c <f32_div+0x5a>
    80006968:	f075                	bnez	s0,8000694c <f32_div+0x7a>
    8000696a:	001867f3          	csrrs	a5,fflags,16
    8000696e:	70e2                	ld	ra,56(sp)
    80006970:	7442                	ld	s0,48(sp)
    80006972:	74a2                	ld	s1,40(sp)
    80006974:	7902                	ld	s2,32(sp)
    80006976:	69e2                	ld	s3,24(sp)
    80006978:	6a42                	ld	s4,16(sp)
    8000697a:	7fc00537          	lui	a0,0x7fc00
    8000697e:	6121                	add	sp,sp,64
    80006980:	8082                	ret
    80006982:	8522                	mv	a0,s0
    80006984:	6fe010ef          	jal	80008082 <softfloat_normSubnormalF32Sig>
    80006988:	00050a1b          	sext.w	s4,a0
    8000698c:	42055413          	sra	s0,a0,0x20
    80006990:	08098663          	beqz	s3,80006a1c <f32_div+0x14a>
    80006994:	2981                	sext.w	s3,s3
    80006996:	008007b7          	lui	a5,0x800
    8000699a:	00f4e733          	or	a4,s1,a5
    8000699e:	8fc1                	or	a5,a5,s0
    800069a0:	2701                	sext.w	a4,a4
    800069a2:	2781                	sext.w	a5,a5
    800069a4:	414989bb          	subw	s3,s3,s4
    800069a8:	08f77f63          	bgeu	a4,a5,80006a46 <f32_div+0x174>
    800069ac:	0087149b          	sllw	s1,a4,0x8
    800069b0:	07d9899b          	addw	s3,s3,125
    800069b4:	0087941b          	sllw	s0,a5,0x8
    800069b8:	0004051b          	sext.w	a0,s0
    800069bc:	737000ef          	jal	800078f2 <softfloat_approxRecip32_1>
    800069c0:	1482                	sll	s1,s1,0x20
    800069c2:	02051793          	sll	a5,a0,0x20
    800069c6:	9081                	srl	s1,s1,0x20
    800069c8:	9381                	srl	a5,a5,0x20
    800069ca:	029787b3          	mul	a5,a5,s1
    800069ce:	9781                	sra	a5,a5,0x20
    800069d0:	2789                	addw	a5,a5,2 # 800002 <_ftext-0x7f7ffffe>
    800069d2:	03e7f713          	and	a4,a5,62
    800069d6:	0007861b          	sext.w	a2,a5
    800069da:	e70d                	bnez	a4,80006a04 <f32_div+0x132>
    800069dc:	ffc7f613          	and	a2,a5,-4
    800069e0:	0016179b          	sllw	a5,a2,0x1
    800069e4:	02079713          	sll	a4,a5,0x20
    800069e8:	02041793          	sll	a5,s0,0x20
    800069ec:	9301                	srl	a4,a4,0x20
    800069ee:	9381                	srl	a5,a5,0x20
    800069f0:	02f707b3          	mul	a5,a4,a5
    800069f4:	1482                	sll	s1,s1,0x20
    800069f6:	2601                	sext.w	a2,a2
    800069f8:	8c9d                	sub	s1,s1,a5
    800069fa:	0404cb63          	bltz	s1,80006a50 <f32_div+0x17e>
    800069fe:	c099                	beqz	s1,80006a04 <f32_div+0x132>
    80006a00:	00166613          	or	a2,a2,1
    80006a04:	7442                	ld	s0,48(sp)
    80006a06:	70e2                	ld	ra,56(sp)
    80006a08:	74a2                	ld	s1,40(sp)
    80006a0a:	6a42                	ld	s4,16(sp)
    80006a0c:	85ce                	mv	a1,s3
    80006a0e:	01f9551b          	srlw	a0,s2,0x1f
    80006a12:	69e2                	ld	s3,24(sp)
    80006a14:	7902                	ld	s2,32(sp)
    80006a16:	6121                	add	sp,sp,64
    80006a18:	7400106f          	j	80008158 <softfloat_roundPackToF32>
    80006a1c:	c889                	beqz	s1,80006a2e <f32_div+0x15c>
    80006a1e:	8526                	mv	a0,s1
    80006a20:	662010ef          	jal	80008082 <softfloat_normSubnormalF32Sig>
    80006a24:	0005099b          	sext.w	s3,a0
    80006a28:	42055493          	sra	s1,a0,0x20
    80006a2c:	b7ad                	j	80006996 <f32_div+0xc4>
    80006a2e:	70e2                	ld	ra,56(sp)
    80006a30:	7442                	ld	s0,48(sp)
    80006a32:	800007b7          	lui	a5,0x80000
    80006a36:	74a2                	ld	s1,40(sp)
    80006a38:	69e2                	ld	s3,24(sp)
    80006a3a:	6a42                	ld	s4,16(sp)
    80006a3c:	00f97533          	and	a0,s2,a5
    80006a40:	7902                	ld	s2,32(sp)
    80006a42:	6121                	add	sp,sp,64
    80006a44:	8082                	ret
    80006a46:	0077149b          	sllw	s1,a4,0x7
    80006a4a:	07e9899b          	addw	s3,s3,126
    80006a4e:	b79d                	j	800069b4 <f32_div+0xe2>
    80006a50:	3671                	addw	a2,a2,-4
    80006a52:	bf4d                	j	80006a04 <f32_div+0x132>

0000000080006a54 <f32_eq>:
    80006a54:	87aa                	mv	a5,a0
    80006a56:	7f8006b7          	lui	a3,0x7f800
    80006a5a:	fff7c713          	not	a4,a5
    80006a5e:	8f75                	and	a4,a4,a3
    80006a60:	0005061b          	sext.w	a2,a0
    80006a64:	0005869b          	sext.w	a3,a1
    80006a68:	e701                	bnez	a4,80006a70 <f32_eq+0x1c>
    80006a6a:	02979713          	sll	a4,a5,0x29
    80006a6e:	e705                	bnez	a4,80006a96 <f32_eq+0x42>
    80006a70:	fff5c713          	not	a4,a1
    80006a74:	7f800537          	lui	a0,0x7f800
    80006a78:	8f69                	and	a4,a4,a0
    80006a7a:	e701                	bnez	a4,80006a82 <f32_eq+0x2e>
    80006a7c:	02959713          	sll	a4,a1,0x29
    80006a80:	eb19                	bnez	a4,80006a96 <f32_eq+0x42>
    80006a82:	4505                	li	a0,1
    80006a84:	00d60863          	beq	a2,a3,80006a94 <f32_eq+0x40>
    80006a88:	00b7e533          	or	a0,a5,a1
    80006a8c:	0015151b          	sllw	a0,a0,0x1
    80006a90:	00153513          	seqz	a0,a0
    80006a94:	8082                	ret
    80006a96:	7fc00737          	lui	a4,0x7fc00
    80006a9a:	8f7d                	and	a4,a4,a5
    80006a9c:	7f8006b7          	lui	a3,0x7f800
    80006aa0:	02d70063          	beq	a4,a3,80006ac0 <f32_eq+0x6c>
    80006aa4:	7fc007b7          	lui	a5,0x7fc00
    80006aa8:	8fed                	and	a5,a5,a1
    80006aaa:	7f800737          	lui	a4,0x7f800
    80006aae:	4501                	li	a0,0
    80006ab0:	fee792e3          	bne	a5,a4,80006a94 <f32_eq+0x40>
    80006ab4:	15aa                	sll	a1,a1,0x2a
    80006ab6:	ddf9                	beqz	a1,80006a94 <f32_eq+0x40>
    80006ab8:	001867f3          	csrrs	a5,fflags,16
    80006abc:	4501                	li	a0,0
    80006abe:	8082                	ret
    80006ac0:	17aa                	sll	a5,a5,0x2a
    80006ac2:	fbfd                	bnez	a5,80006ab8 <f32_eq+0x64>
    80006ac4:	b7c5                	j	80006aa4 <f32_eq+0x50>

0000000080006ac6 <f32_lt>:
    80006ac6:	87aa                	mv	a5,a0
    80006ac8:	7f8006b7          	lui	a3,0x7f800
    80006acc:	fff7c713          	not	a4,a5
    80006ad0:	8f75                	and	a4,a4,a3
    80006ad2:	0005861b          	sext.w	a2,a1
    80006ad6:	0005069b          	sext.w	a3,a0
    80006ada:	e701                	bnez	a4,80006ae2 <f32_lt+0x1c>
    80006adc:	02979713          	sll	a4,a5,0x29
    80006ae0:	e339                	bnez	a4,80006b26 <f32_lt+0x60>
    80006ae2:	fff5c713          	not	a4,a1
    80006ae6:	7f800537          	lui	a0,0x7f800
    80006aea:	8f69                	and	a4,a4,a0
    80006aec:	e701                	bnez	a4,80006af4 <f32_lt+0x2e>
    80006aee:	02959713          	sll	a4,a1,0x29
    80006af2:	eb15                	bnez	a4,80006b26 <f32_lt+0x60>
    80006af4:	00b7c733          	xor	a4,a5,a1
    80006af8:	2701                	sext.w	a4,a4
    80006afa:	4501                	li	a0,0
    80006afc:	00074c63          	bltz	a4,80006b14 <f32_lt+0x4e>
    80006b00:	00c68963          	beq	a3,a2,80006b12 <f32_lt+0x4c>
    80006b04:	00c6b6b3          	sltu	a3,a3,a2
    80006b08:	01f7d79b          	srlw	a5,a5,0x1f
    80006b0c:	8ebd                	xor	a3,a3,a5
    80006b0e:	0ff6f513          	zext.b	a0,a3
    80006b12:	8082                	ret
    80006b14:	fe06dfe3          	bgez	a3,80006b12 <f32_lt+0x4c>
    80006b18:	00b7e533          	or	a0,a5,a1
    80006b1c:	0015151b          	sllw	a0,a0,0x1
    80006b20:	00a03533          	snez	a0,a0
    80006b24:	8082                	ret
    80006b26:	001867f3          	csrrs	a5,fflags,16
    80006b2a:	4501                	li	a0,0
    80006b2c:	8082                	ret

0000000080006b2e <f32_lt_quiet>:
    80006b2e:	87aa                	mv	a5,a0
    80006b30:	7f8006b7          	lui	a3,0x7f800
    80006b34:	fff7c713          	not	a4,a5
    80006b38:	8f75                	and	a4,a4,a3
    80006b3a:	0005861b          	sext.w	a2,a1
    80006b3e:	0005069b          	sext.w	a3,a0
    80006b42:	e701                	bnez	a4,80006b4a <f32_lt_quiet+0x1c>
    80006b44:	02979713          	sll	a4,a5,0x29
    80006b48:	e339                	bnez	a4,80006b8e <f32_lt_quiet+0x60>
    80006b4a:	fff5c713          	not	a4,a1
    80006b4e:	7f800537          	lui	a0,0x7f800
    80006b52:	8f69                	and	a4,a4,a0
    80006b54:	e701                	bnez	a4,80006b5c <f32_lt_quiet+0x2e>
    80006b56:	02959713          	sll	a4,a1,0x29
    80006b5a:	eb15                	bnez	a4,80006b8e <f32_lt_quiet+0x60>
    80006b5c:	00b7c733          	xor	a4,a5,a1
    80006b60:	2701                	sext.w	a4,a4
    80006b62:	4501                	li	a0,0
    80006b64:	00074c63          	bltz	a4,80006b7c <f32_lt_quiet+0x4e>
    80006b68:	00c68963          	beq	a3,a2,80006b7a <f32_lt_quiet+0x4c>
    80006b6c:	00c6b6b3          	sltu	a3,a3,a2
    80006b70:	01f7d79b          	srlw	a5,a5,0x1f
    80006b74:	8ebd                	xor	a3,a3,a5
    80006b76:	0ff6f513          	zext.b	a0,a3
    80006b7a:	8082                	ret
    80006b7c:	fe06dfe3          	bgez	a3,80006b7a <f32_lt_quiet+0x4c>
    80006b80:	00b7e533          	or	a0,a5,a1
    80006b84:	0015151b          	sllw	a0,a0,0x1
    80006b88:	00a03533          	snez	a0,a0
    80006b8c:	8082                	ret
    80006b8e:	7fc00737          	lui	a4,0x7fc00
    80006b92:	8f7d                	and	a4,a4,a5
    80006b94:	7f8006b7          	lui	a3,0x7f800
    80006b98:	02d70063          	beq	a4,a3,80006bb8 <f32_lt_quiet+0x8a>
    80006b9c:	7fc007b7          	lui	a5,0x7fc00
    80006ba0:	8fed                	and	a5,a5,a1
    80006ba2:	7f800737          	lui	a4,0x7f800
    80006ba6:	4501                	li	a0,0
    80006ba8:	fce799e3          	bne	a5,a4,80006b7a <f32_lt_quiet+0x4c>
    80006bac:	15aa                	sll	a1,a1,0x2a
    80006bae:	d5f1                	beqz	a1,80006b7a <f32_lt_quiet+0x4c>
    80006bb0:	001867f3          	csrrs	a5,fflags,16
    80006bb4:	4501                	li	a0,0
    80006bb6:	8082                	ret
    80006bb8:	17aa                	sll	a5,a5,0x2a
    80006bba:	fbfd                	bnez	a5,80006bb0 <f32_lt_quiet+0x82>
    80006bbc:	b7c5                	j	80006b9c <f32_lt_quiet+0x6e>

0000000080006bbe <f32_mul>:
    80006bbe:	008007b7          	lui	a5,0x800
    80006bc2:	7139                	add	sp,sp,-64
    80006bc4:	17fd                	add	a5,a5,-1 # 7fffff <_ftext-0x7f800001>
    80006bc6:	0175571b          	srlw	a4,a0,0x17
    80006bca:	00a5c633          	xor	a2,a1,a0
    80006bce:	f822                	sd	s0,48(sp)
    80006bd0:	f04a                	sd	s2,32(sp)
    80006bd2:	ec4e                	sd	s3,24(sp)
    80006bd4:	00a7f933          	and	s2,a5,a0
    80006bd8:	0175d99b          	srlw	s3,a1,0x17
    80006bdc:	8fed                	and	a5,a5,a1
    80006bde:	e852                	sd	s4,16(sp)
    80006be0:	fc06                	sd	ra,56(sp)
    80006be2:	f426                	sd	s1,40(sp)
    80006be4:	0ff77713          	zext.b	a4,a4
    80006be8:	0ff00693          	li	a3,255
    80006bec:	2501                	sext.w	a0,a0
    80006bee:	2901                	sext.w	s2,s2
    80006bf0:	2581                	sext.w	a1,a1
    80006bf2:	0ff9f993          	zext.b	s3,s3
    80006bf6:	0007841b          	sext.w	s0,a5
    80006bfa:	00060a1b          	sext.w	s4,a2
    80006bfe:	04d70363          	beq	a4,a3,80006c44 <f32_mul+0x86>
    80006c02:	02d98363          	beq	s3,a3,80006c28 <f32_mul+0x6a>
    80006c06:	0007049b          	sext.w	s1,a4
    80006c0a:	eb25                	bnez	a4,80006c7a <f32_mul+0xbc>
    80006c0c:	06091063          	bnez	s2,80006c6c <f32_mul+0xae>
    80006c10:	70e2                	ld	ra,56(sp)
    80006c12:	7442                	ld	s0,48(sp)
    80006c14:	800007b7          	lui	a5,0x80000
    80006c18:	74a2                	ld	s1,40(sp)
    80006c1a:	7902                	ld	s2,32(sp)
    80006c1c:	69e2                	ld	s3,24(sp)
    80006c1e:	00fa7533          	and	a0,s4,a5
    80006c22:	6a42                	ld	s4,16(sp)
    80006c24:	6121                	add	sp,sp,64
    80006c26:	8082                	ret
    80006c28:	00e96933          	or	s2,s2,a4
    80006c2c:	c015                	beqz	s0,80006c50 <f32_mul+0x92>
    80006c2e:	571010ef          	jal	8000899e <softfloat_propagateNaNF32UI>
    80006c32:	70e2                	ld	ra,56(sp)
    80006c34:	7442                	ld	s0,48(sp)
    80006c36:	74a2                	ld	s1,40(sp)
    80006c38:	7902                	ld	s2,32(sp)
    80006c3a:	69e2                	ld	s3,24(sp)
    80006c3c:	6a42                	ld	s4,16(sp)
    80006c3e:	2501                	sext.w	a0,a0
    80006c40:	6121                	add	sp,sp,64
    80006c42:	8082                	ret
    80006c44:	fe0915e3          	bnez	s2,80006c2e <f32_mul+0x70>
    80006c48:	08e98c63          	beq	s3,a4,80006ce0 <f32_mul+0x122>
    80006c4c:	01346933          	or	s2,s0,s3
    80006c50:	08091963          	bnez	s2,80006ce2 <f32_mul+0x124>
    80006c54:	001867f3          	csrrs	a5,fflags,16
    80006c58:	70e2                	ld	ra,56(sp)
    80006c5a:	7442                	ld	s0,48(sp)
    80006c5c:	74a2                	ld	s1,40(sp)
    80006c5e:	7902                	ld	s2,32(sp)
    80006c60:	69e2                	ld	s3,24(sp)
    80006c62:	6a42                	ld	s4,16(sp)
    80006c64:	7fc00537          	lui	a0,0x7fc00
    80006c68:	6121                	add	sp,sp,64
    80006c6a:	8082                	ret
    80006c6c:	854a                	mv	a0,s2
    80006c6e:	414010ef          	jal	80008082 <softfloat_normSubnormalF32Sig>
    80006c72:	0005049b          	sext.w	s1,a0
    80006c76:	42055913          	sra	s2,a0,0x20
    80006c7a:	08099363          	bnez	s3,80006d00 <f32_mul+0x142>
    80006c7e:	d849                	beqz	s0,80006c10 <f32_mul+0x52>
    80006c80:	8522                	mv	a0,s0
    80006c82:	400010ef          	jal	80008082 <softfloat_normSubnormalF32Sig>
    80006c86:	0005099b          	sext.w	s3,a0
    80006c8a:	42055413          	sra	s0,a0,0x20
    80006c8e:	400007b7          	lui	a5,0x40000
    80006c92:	0079151b          	sllw	a0,s2,0x7
    80006c96:	8d5d                	or	a0,a0,a5
    80006c98:	0084141b          	sllw	s0,s0,0x8
    80006c9c:	800007b7          	lui	a5,0x80000
    80006ca0:	8c5d                	or	s0,s0,a5
    80006ca2:	1502                	sll	a0,a0,0x20
    80006ca4:	1402                	sll	s0,s0,0x20
    80006ca6:	9101                	srl	a0,a0,0x20
    80006ca8:	9001                	srl	s0,s0,0x20
    80006caa:	02850533          	mul	a0,a0,s0
    80006cae:	02000593          	li	a1,32
    80006cb2:	013484bb          	addw	s1,s1,s3
    80006cb6:	0ed010ef          	jal	800085a2 <softfloat_shortShiftRightJam64>
    80006cba:	0005061b          	sext.w	a2,a0
    80006cbe:	400007b7          	lui	a5,0x40000
    80006cc2:	04f66163          	bltu	a2,a5,80006d04 <f32_mul+0x146>
    80006cc6:	f814859b          	addw	a1,s1,-127
    80006cca:	7442                	ld	s0,48(sp)
    80006ccc:	70e2                	ld	ra,56(sp)
    80006cce:	74a2                	ld	s1,40(sp)
    80006cd0:	7902                	ld	s2,32(sp)
    80006cd2:	69e2                	ld	s3,24(sp)
    80006cd4:	01fa551b          	srlw	a0,s4,0x1f
    80006cd8:	6a42                	ld	s4,16(sp)
    80006cda:	6121                	add	sp,sp,64
    80006cdc:	47c0106f          	j	80008158 <softfloat_roundPackToF32>
    80006ce0:	f439                	bnez	s0,80006c2e <f32_mul+0x70>
    80006ce2:	70e2                	ld	ra,56(sp)
    80006ce4:	7442                	ld	s0,48(sp)
    80006ce6:	800007b7          	lui	a5,0x80000
    80006cea:	00fa77b3          	and	a5,s4,a5
    80006cee:	7f800537          	lui	a0,0x7f800
    80006cf2:	74a2                	ld	s1,40(sp)
    80006cf4:	7902                	ld	s2,32(sp)
    80006cf6:	69e2                	ld	s3,24(sp)
    80006cf8:	6a42                	ld	s4,16(sp)
    80006cfa:	9d3d                	addw	a0,a0,a5
    80006cfc:	6121                	add	sp,sp,64
    80006cfe:	8082                	ret
    80006d00:	2981                	sext.w	s3,s3
    80006d02:	b771                	j	80006c8e <f32_mul+0xd0>
    80006d04:	0016161b          	sllw	a2,a2,0x1
    80006d08:	f804859b          	addw	a1,s1,-128
    80006d0c:	bf7d                	j	80006cca <f32_mul+0x10c>

0000000080006d0e <f32_sqrt>:
    80006d0e:	7179                	add	sp,sp,-48
    80006d10:	0175579b          	srlw	a5,a0,0x17
    80006d14:	02951593          	sll	a1,a0,0x29
    80006d18:	f406                	sd	ra,40(sp)
    80006d1a:	f022                	sd	s0,32(sp)
    80006d1c:	ec26                	sd	s1,24(sp)
    80006d1e:	e84a                	sd	s2,16(sp)
    80006d20:	0ff7f793          	zext.b	a5,a5
    80006d24:	0ff00713          	li	a4,255
    80006d28:	0005069b          	sext.w	a3,a0
    80006d2c:	91a5                	srl	a1,a1,0x29
    80006d2e:	02e78863          	beq	a5,a4,80006d5e <f32_sqrt+0x50>
    80006d32:	0006ca63          	bltz	a3,80006d46 <f32_sqrt+0x38>
    80006d36:	ebd5                	bnez	a5,80006dea <f32_sqrt+0xdc>
    80006d38:	ed85                	bnez	a1,80006d70 <f32_sqrt+0x62>
    80006d3a:	70a2                	ld	ra,40(sp)
    80006d3c:	7402                	ld	s0,32(sp)
    80006d3e:	64e2                	ld	s1,24(sp)
    80006d40:	6942                	ld	s2,16(sp)
    80006d42:	6145                	add	sp,sp,48
    80006d44:	8082                	ret
    80006d46:	8ddd                	or	a1,a1,a5
    80006d48:	d9ed                	beqz	a1,80006d3a <f32_sqrt+0x2c>
    80006d4a:	001867f3          	csrrs	a5,fflags,16
    80006d4e:	70a2                	ld	ra,40(sp)
    80006d50:	7402                	ld	s0,32(sp)
    80006d52:	64e2                	ld	s1,24(sp)
    80006d54:	6942                	ld	s2,16(sp)
    80006d56:	7fc00537          	lui	a0,0x7fc00
    80006d5a:	6145                	add	sp,sp,48
    80006d5c:	8082                	ret
    80006d5e:	e9c1                	bnez	a1,80006dee <f32_sqrt+0xe0>
    80006d60:	fe06c5e3          	bltz	a3,80006d4a <f32_sqrt+0x3c>
    80006d64:	70a2                	ld	ra,40(sp)
    80006d66:	7402                	ld	s0,32(sp)
    80006d68:	64e2                	ld	s1,24(sp)
    80006d6a:	6942                	ld	s2,16(sp)
    80006d6c:	6145                	add	sp,sp,48
    80006d6e:	8082                	ret
    80006d70:	852e                	mv	a0,a1
    80006d72:	310010ef          	jal	80008082 <softfloat_normSubnormalF32Sig>
    80006d76:	0005079b          	sext.w	a5,a0
    80006d7a:	42055593          	sra	a1,a0,0x20
    80006d7e:	0085941b          	sllw	s0,a1,0x8
    80006d82:	80000737          	lui	a4,0x80000
    80006d86:	8c59                	or	s0,s0,a4
    80006d88:	2401                	sext.w	s0,s0
    80006d8a:	0017f513          	and	a0,a5,1
    80006d8e:	85a2                	mv	a1,s0
    80006d90:	f817891b          	addw	s2,a5,-127 # 7fffff81 <_ftext-0x7f>
    80006d94:	84aa                	mv	s1,a0
    80006d96:	3cd000ef          	jal	80007962 <softfloat_approxRecipSqrt32_1>
    80006d9a:	1402                	sll	s0,s0,0x20
    80006d9c:	1502                	sll	a0,a0,0x20
    80006d9e:	9001                	srl	s0,s0,0x20
    80006da0:	9101                	srl	a0,a0,0x20
    80006da2:	02a407b3          	mul	a5,s0,a0
    80006da6:	4019591b          	sraw	s2,s2,0x1
    80006daa:	07e9091b          	addw	s2,s2,126
    80006dae:	9781                	sra	a5,a5,0x20
    80006db0:	c099                	beqz	s1,80006db6 <f32_sqrt+0xa8>
    80006db2:	0017d79b          	srlw	a5,a5,0x1
    80006db6:	2789                	addw	a5,a5,2
    80006db8:	03e7f713          	and	a4,a5,62
    80006dbc:	0007861b          	sext.w	a2,a5
    80006dc0:	ef01                	bnez	a4,80006dd8 <f32_sqrt+0xca>
    80006dc2:	0027d71b          	srlw	a4,a5,0x2
    80006dc6:	02e7073b          	mulw	a4,a4,a4
    80006dca:	9bf1                	and	a5,a5,-4
    80006dcc:	0007861b          	sext.w	a2,a5
    80006dd0:	02074563          	bltz	a4,80006dfa <f32_sqrt+0xec>
    80006dd4:	c311                	beqz	a4,80006dd8 <f32_sqrt+0xca>
    80006dd6:	367d                	addw	a2,a2,-1
    80006dd8:	7402                	ld	s0,32(sp)
    80006dda:	70a2                	ld	ra,40(sp)
    80006ddc:	64e2                	ld	s1,24(sp)
    80006dde:	85ca                	mv	a1,s2
    80006de0:	6942                	ld	s2,16(sp)
    80006de2:	4501                	li	a0,0
    80006de4:	6145                	add	sp,sp,48
    80006de6:	3720106f          	j	80008158 <softfloat_roundPackToF32>
    80006dea:	2781                	sext.w	a5,a5
    80006dec:	bf49                	j	80006d7e <f32_sqrt+0x70>
    80006dee:	4581                	li	a1,0
    80006df0:	8536                	mv	a0,a3
    80006df2:	3ad010ef          	jal	8000899e <softfloat_propagateNaNF32UI>
    80006df6:	2501                	sext.w	a0,a0
    80006df8:	b789                	j	80006d3a <f32_sqrt+0x2c>
    80006dfa:	00166613          	or	a2,a2,1
    80006dfe:	bfe9                	j	80006dd8 <f32_sqrt+0xca>

0000000080006e00 <f32_to_f64>:
    80006e00:	1101                	add	sp,sp,-32
    80006e02:	0175579b          	srlw	a5,a0,0x17
    80006e06:	e822                	sd	s0,16(sp)
    80006e08:	02951713          	sll	a4,a0,0x29
    80006e0c:	ec06                	sd	ra,24(sp)
    80006e0e:	0ff7f793          	zext.b	a5,a5
    80006e12:	0ff00693          	li	a3,255
    80006e16:	01f5541b          	srlw	s0,a0,0x1f
    80006e1a:	9325                	srl	a4,a4,0x29
    80006e1c:	02d78c63          	beq	a5,a3,80006e54 <f32_to_f64+0x54>
    80006e20:	147e                	sll	s0,s0,0x3f
    80006e22:	c385                	beqz	a5,80006e42 <f32_to_f64+0x42>
    80006e24:	2781                	sext.w	a5,a5
    80006e26:	02071693          	sll	a3,a4,0x20
    80006e2a:	3807879b          	addw	a5,a5,896
    80006e2e:	0036d713          	srl	a4,a3,0x3
    80006e32:	17d2                	sll	a5,a5,0x34
    80006e34:	943a                	add	s0,s0,a4
    80006e36:	943e                	add	s0,s0,a5
    80006e38:	60e2                	ld	ra,24(sp)
    80006e3a:	8522                	mv	a0,s0
    80006e3c:	6442                	ld	s0,16(sp)
    80006e3e:	6105                	add	sp,sp,32
    80006e40:	8082                	ret
    80006e42:	db7d                	beqz	a4,80006e38 <f32_to_f64+0x38>
    80006e44:	853a                	mv	a0,a4
    80006e46:	23c010ef          	jal	80008082 <softfloat_normSubnormalF32Sig>
    80006e4a:	fff5079b          	addw	a5,a0,-1 # 7fbfffff <_ftext-0x400001>
    80006e4e:	42055713          	sra	a4,a0,0x20
    80006e52:	bfd1                	j	80006e26 <f32_to_f64+0x26>
    80006e54:	cb19                	beqz	a4,80006e6a <f32_to_f64+0x6a>
    80006e56:	004007b7          	lui	a5,0x400
    80006e5a:	8d7d                	and	a0,a0,a5
    80006e5c:	e10d                	bnez	a0,80006e7e <f32_to_f64+0x7e>
    80006e5e:	001867f3          	csrrs	a5,fflags,16
    80006e62:	00fff437          	lui	s0,0xfff
    80006e66:	141e                	sll	s0,s0,0x27
    80006e68:	bfc1                	j	80006e38 <f32_to_f64+0x38>
    80006e6a:	7ff00793          	li	a5,2047
    80006e6e:	147e                	sll	s0,s0,0x3f
    80006e70:	17d2                	sll	a5,a5,0x34
    80006e72:	943e                	add	s0,s0,a5
    80006e74:	60e2                	ld	ra,24(sp)
    80006e76:	8522                	mv	a0,s0
    80006e78:	6442                	ld	s0,16(sp)
    80006e7a:	6105                	add	sp,sp,32
    80006e7c:	8082                	ret
    80006e7e:	00fff437          	lui	s0,0xfff
    80006e82:	141e                	sll	s0,s0,0x27
    80006e84:	bf55                	j	80006e38 <f32_to_f64+0x38>

0000000080006e86 <f32_classify>:
    80006e86:	fff54793          	not	a5,a0
    80006e8a:	0175571b          	srlw	a4,a0,0x17
    80006e8e:	7f8006b7          	lui	a3,0x7f800
    80006e92:	0005061b          	sext.w	a2,a0
    80006e96:	8efd                	and	a3,a3,a5
    80006e98:	0ff77713          	zext.b	a4,a4
    80006e9c:	0ff00793          	li	a5,255
    80006ea0:	04064d63          	bltz	a2,80006efa <f32_classify+0x74>
    80006ea4:	04f70463          	beq	a4,a5,80006eec <f32_classify+0x66>
    80006ea8:	00e037b3          	snez	a5,a4
    80006eac:	0067979b          	sllw	a5,a5,0x6
    80006eb0:	ef11                	bnez	a4,80006ecc <f32_classify+0x46>
    80006eb2:	02951613          	sll	a2,a0,0x29
    80006eb6:	02965713          	srl	a4,a2,0x29
    80006eba:	c219                	beqz	a2,80006ec0 <f32_classify+0x3a>
    80006ebc:	0207e793          	or	a5,a5,32
    80006ec0:	00173713          	seqz	a4,a4
    80006ec4:	0047171b          	sllw	a4,a4,0x4
    80006ec8:	8fd9                	or	a5,a5,a4
    80006eca:	2781                	sext.w	a5,a5
    80006ecc:	ee89                	bnez	a3,80006ee6 <f32_classify+0x60>
    80006ece:	02951713          	sll	a4,a0,0x29
    80006ed2:	cb11                	beqz	a4,80006ee6 <f32_classify+0x60>
    80006ed4:	7fc00737          	lui	a4,0x7fc00
    80006ed8:	8f69                	and	a4,a4,a0
    80006eda:	7f8006b7          	lui	a3,0x7f800
    80006ede:	04d70163          	beq	a4,a3,80006f20 <f32_classify+0x9a>
    80006ee2:	2007e793          	or	a5,a5,512
    80006ee6:	0007851b          	sext.w	a0,a5
    80006eea:	8082                	ret
    80006eec:	02951793          	sll	a5,a0,0x29
    80006ef0:	0017b793          	seqz	a5,a5
    80006ef4:	0077979b          	sllw	a5,a5,0x7
    80006ef8:	bfd1                	j	80006ecc <f32_classify+0x46>
    80006efa:	04f70063          	beq	a4,a5,80006f3a <f32_classify+0xb4>
    80006efe:	00e037b3          	snez	a5,a4
    80006f02:	0017979b          	sllw	a5,a5,0x1
    80006f06:	f379                	bnez	a4,80006ecc <f32_classify+0x46>
    80006f08:	02951713          	sll	a4,a0,0x29
    80006f0c:	c709                	beqz	a4,80006f16 <f32_classify+0x90>
    80006f0e:	0047e793          	or	a5,a5,4
    80006f12:	d2e9                	beqz	a3,80006ed4 <f32_classify+0x4e>
    80006f14:	bfc9                	j	80006ee6 <f32_classify+0x60>
    80006f16:	0087e793          	or	a5,a5,8
    80006f1a:	0007851b          	sext.w	a0,a5
    80006f1e:	8082                	ret
    80006f20:	152a                	sll	a0,a0,0x2a
    80006f22:	02a55713          	srl	a4,a0,0x2a
    80006f26:	c119                	beqz	a0,80006f2c <f32_classify+0xa6>
    80006f28:	1007e793          	or	a5,a5,256
    80006f2c:	00173713          	seqz	a4,a4
    80006f30:	0097171b          	sllw	a4,a4,0x9
    80006f34:	8fd9                	or	a5,a5,a4
    80006f36:	2781                	sext.w	a5,a5
    80006f38:	b77d                	j	80006ee6 <f32_classify+0x60>
    80006f3a:	02951793          	sll	a5,a0,0x29
    80006f3e:	0017b793          	seqz	a5,a5
    80006f42:	b769                	j	80006ecc <f32_classify+0x46>

0000000080006f44 <f64_add>:
    80006f44:	00b547b3          	xor	a5,a0,a1
    80006f48:	03f55613          	srl	a2,a0,0x3f
    80006f4c:	0007c763          	bltz	a5,80006f5a <f64_add+0x16>
    80006f50:	00001797          	auipc	a5,0x1
    80006f54:	89c78793          	add	a5,a5,-1892 # 800077ec <softfloat_addMagsF64>
    80006f58:	8782                	jr	a5
    80006f5a:	00002797          	auipc	a5,0x2
    80006f5e:	8ba78793          	add	a5,a5,-1862 # 80008814 <softfloat_subMagsF64>
    80006f62:	8782                	jr	a5

0000000080006f64 <f64_div>:
    80006f64:	7139                	add	sp,sp,-64
    80006f66:	f426                	sd	s1,40(sp)
    80006f68:	57fd                	li	a5,-1
    80006f6a:	03455493          	srl	s1,a0,0x34
    80006f6e:	83b1                	srl	a5,a5,0xc
    80006f70:	f822                	sd	s0,48(sp)
    80006f72:	f04a                	sd	s2,32(sp)
    80006f74:	ec4e                	sd	s3,24(sp)
    80006f76:	e852                	sd	s4,16(sp)
    80006f78:	fc06                	sd	ra,56(sp)
    80006f7a:	0345da13          	srl	s4,a1,0x34
    80006f7e:	7ff4f493          	and	s1,s1,2047
    80006f82:	7ff00713          	li	a4,2047
    80006f86:	00f57933          	and	s2,a0,a5
    80006f8a:	7ffa7a13          	and	s4,s4,2047
    80006f8e:	00f5f433          	and	s0,a1,a5
    80006f92:	00a5c9b3          	xor	s3,a1,a0
    80006f96:	04e48763          	beq	s1,a4,80006fe4 <f64_div+0x80>
    80006f9a:	02ea0963          	beq	s4,a4,80006fcc <f64_div+0x68>
    80006f9e:	060a1b63          	bnez	s4,80007014 <f64_div+0xb0>
    80006fa2:	e03d                	bnez	s0,80007008 <f64_div+0xa4>
    80006fa4:	0124e4b3          	or	s1,s1,s2
    80006fa8:	c0b9                	beqz	s1,80006fee <f64_div+0x8a>
    80006faa:	001467f3          	csrrs	a5,fflags,8
    80006fae:	70e2                	ld	ra,56(sp)
    80006fb0:	7442                	ld	s0,48(sp)
    80006fb2:	03f9d513          	srl	a0,s3,0x3f
    80006fb6:	7ff00793          	li	a5,2047
    80006fba:	157e                	sll	a0,a0,0x3f
    80006fbc:	17d2                	sll	a5,a5,0x34
    80006fbe:	74a2                	ld	s1,40(sp)
    80006fc0:	7902                	ld	s2,32(sp)
    80006fc2:	69e2                	ld	s3,24(sp)
    80006fc4:	6a42                	ld	s4,16(sp)
    80006fc6:	953e                	add	a0,a0,a5
    80006fc8:	6121                	add	sp,sp,64
    80006fca:	8082                	ret
    80006fcc:	10040c63          	beqz	s0,800070e4 <f64_div+0x180>
    80006fd0:	209010ef          	jal	800089d8 <softfloat_propagateNaNF64UI>
    80006fd4:	70e2                	ld	ra,56(sp)
    80006fd6:	7442                	ld	s0,48(sp)
    80006fd8:	74a2                	ld	s1,40(sp)
    80006fda:	7902                	ld	s2,32(sp)
    80006fdc:	69e2                	ld	s3,24(sp)
    80006fde:	6a42                	ld	s4,16(sp)
    80006fe0:	6121                	add	sp,sp,64
    80006fe2:	8082                	ret
    80006fe4:	fe0916e3          	bnez	s2,80006fd0 <f64_div+0x6c>
    80006fe8:	fc9a13e3          	bne	s4,s1,80006fae <f64_div+0x4a>
    80006fec:	f075                	bnez	s0,80006fd0 <f64_div+0x6c>
    80006fee:	001867f3          	csrrs	a5,fflags,16
    80006ff2:	70e2                	ld	ra,56(sp)
    80006ff4:	7442                	ld	s0,48(sp)
    80006ff6:	00fff537          	lui	a0,0xfff
    80006ffa:	74a2                	ld	s1,40(sp)
    80006ffc:	7902                	ld	s2,32(sp)
    80006ffe:	69e2                	ld	s3,24(sp)
    80007000:	6a42                	ld	s4,16(sp)
    80007002:	151e                	sll	a0,a0,0x27
    80007004:	6121                	add	sp,sp,64
    80007006:	8082                	ret
    80007008:	8522                	mv	a0,s0
    8000700a:	0a0010ef          	jal	800080aa <softfloat_normSubnormalF64Sig>
    8000700e:	00050a1b          	sext.w	s4,a0
    80007012:	842e                	mv	s0,a1
    80007014:	e889                	bnez	s1,80007026 <f64_div+0xc2>
    80007016:	0c090763          	beqz	s2,800070e4 <f64_div+0x180>
    8000701a:	854a                	mv	a0,s2
    8000701c:	08e010ef          	jal	800080aa <softfloat_normSubnormalF64Sig>
    80007020:	0005049b          	sext.w	s1,a0
    80007024:	892e                	mv	s2,a1
    80007026:	4785                	li	a5,1
    80007028:	17d2                	sll	a5,a5,0x34
    8000702a:	00f96933          	or	s2,s2,a5
    8000702e:	8c5d                	or	s0,s0,a5
    80007030:	414484bb          	subw	s1,s1,s4
    80007034:	0c896363          	bltu	s2,s0,800070fa <f64_div+0x196>
    80007038:	3fe4849b          	addw	s1,s1,1022
    8000703c:	092a                	sll	s2,s2,0xa
    8000703e:	042e                	sll	s0,s0,0xb
    80007040:	42045513          	sra	a0,s0,0x20
    80007044:	0af000ef          	jal	800078f2 <softfloat_approxRecip32_1>
    80007048:	3579                	addw	a0,a0,-2 # ffeffe <_ftext-0x7f001002>
    8000704a:	1502                	sll	a0,a0,0x20
    8000704c:	9101                	srl	a0,a0,0x20
    8000704e:	02095613          	srl	a2,s2,0x20
    80007052:	02a60633          	mul	a2,a2,a0
    80007056:	02045713          	srl	a4,s0,0x20
    8000705a:	0044541b          	srlw	s0,s0,0x4
    8000705e:	1402                	sll	s0,s0,0x20
    80007060:	9001                	srl	s0,s0,0x20
    80007062:	02065793          	srl	a5,a2,0x20
    80007066:	0017979b          	sllw	a5,a5,0x1
    8000706a:	1782                	sll	a5,a5,0x20
    8000706c:	9381                	srl	a5,a5,0x20
    8000706e:	02f706b3          	mul	a3,a4,a5
    80007072:	9201                	srl	a2,a2,0x20
    80007074:	1602                	sll	a2,a2,0x20
    80007076:	028787b3          	mul	a5,a5,s0
    8000707a:	40d90933          	sub	s2,s2,a3
    8000707e:	0972                	sll	s2,s2,0x1c
    80007080:	40f90933          	sub	s2,s2,a5
    80007084:	02095793          	srl	a5,s2,0x20
    80007088:	02a787b3          	mul	a5,a5,a0
    8000708c:	9381                	srl	a5,a5,0x20
    8000708e:	2791                	addw	a5,a5,4
    80007090:	02079593          	sll	a1,a5,0x20
    80007094:	01c5d693          	srl	a3,a1,0x1c
    80007098:	1c06f593          	and	a1,a3,448
    8000709c:	9636                	add	a2,a2,a3
    8000709e:	e59d                	bnez	a1,800070cc <f64_div+0x168>
    800070a0:	0017979b          	sllw	a5,a5,0x1
    800070a4:	9bc1                	and	a5,a5,-16
    800070a6:	1782                	sll	a5,a5,0x20
    800070a8:	9381                	srl	a5,a5,0x20
    800070aa:	02f70733          	mul	a4,a4,a5
    800070ae:	f8067613          	and	a2,a2,-128
    800070b2:	02f40433          	mul	s0,s0,a5
    800070b6:	40e90933          	sub	s2,s2,a4
    800070ba:	0972                	sll	s2,s2,0x1c
    800070bc:	40890933          	sub	s2,s2,s0
    800070c0:	04094163          	bltz	s2,80007102 <f64_div+0x19e>
    800070c4:	00090463          	beqz	s2,800070cc <f64_div+0x168>
    800070c8:	00166613          	or	a2,a2,1
    800070cc:	7442                	ld	s0,48(sp)
    800070ce:	70e2                	ld	ra,56(sp)
    800070d0:	7902                	ld	s2,32(sp)
    800070d2:	6a42                	ld	s4,16(sp)
    800070d4:	85a6                	mv	a1,s1
    800070d6:	03f9d513          	srl	a0,s3,0x3f
    800070da:	74a2                	ld	s1,40(sp)
    800070dc:	69e2                	ld	s3,24(sp)
    800070de:	6121                	add	sp,sp,64
    800070e0:	17c0106f          	j	8000825c <softfloat_roundPackToF64>
    800070e4:	70e2                	ld	ra,56(sp)
    800070e6:	7442                	ld	s0,48(sp)
    800070e8:	03f9d513          	srl	a0,s3,0x3f
    800070ec:	74a2                	ld	s1,40(sp)
    800070ee:	7902                	ld	s2,32(sp)
    800070f0:	69e2                	ld	s3,24(sp)
    800070f2:	6a42                	ld	s4,16(sp)
    800070f4:	157e                	sll	a0,a0,0x3f
    800070f6:	6121                	add	sp,sp,64
    800070f8:	8082                	ret
    800070fa:	3fd4849b          	addw	s1,s1,1021
    800070fe:	092e                	sll	s2,s2,0xb
    80007100:	bf3d                	j	8000703e <f64_div+0xda>
    80007102:	f8060613          	add	a2,a2,-128
    80007106:	b7d9                	j	800070cc <f64_div+0x168>

0000000080007108 <f64_eq>:
    80007108:	7ff00693          	li	a3,2047
    8000710c:	fff54713          	not	a4,a0
    80007110:	16d2                	sll	a3,a3,0x34
    80007112:	8f75                	and	a4,a4,a3
    80007114:	87aa                	mv	a5,a0
    80007116:	e701                	bnez	a4,8000711e <f64_eq+0x16>
    80007118:	00c51713          	sll	a4,a0,0xc
    8000711c:	e705                	bnez	a4,80007144 <f64_eq+0x3c>
    8000711e:	7ff00693          	li	a3,2047
    80007122:	fff5c713          	not	a4,a1
    80007126:	16d2                	sll	a3,a3,0x34
    80007128:	8f75                	and	a4,a4,a3
    8000712a:	e701                	bnez	a4,80007132 <f64_eq+0x2a>
    8000712c:	00c59713          	sll	a4,a1,0xc
    80007130:	eb11                	bnez	a4,80007144 <f64_eq+0x3c>
    80007132:	4505                	li	a0,1
    80007134:	00b78763          	beq	a5,a1,80007142 <f64_eq+0x3a>
    80007138:	00b7e533          	or	a0,a5,a1
    8000713c:	0506                	sll	a0,a0,0x1
    8000713e:	00153513          	seqz	a0,a0
    80007142:	8082                	ret
    80007144:	00fff737          	lui	a4,0xfff
    80007148:	171e                	sll	a4,a4,0x27
    8000714a:	7ff00693          	li	a3,2047
    8000714e:	8f7d                	and	a4,a4,a5
    80007150:	16d2                	sll	a3,a3,0x34
    80007152:	02d70263          	beq	a4,a3,80007176 <f64_eq+0x6e>
    80007156:	00fff7b7          	lui	a5,0xfff
    8000715a:	179e                	sll	a5,a5,0x27
    8000715c:	7ff00713          	li	a4,2047
    80007160:	8fed                	and	a5,a5,a1
    80007162:	1752                	sll	a4,a4,0x34
    80007164:	4501                	li	a0,0
    80007166:	fce79ee3          	bne	a5,a4,80007142 <f64_eq+0x3a>
    8000716a:	05b6                	sll	a1,a1,0xd
    8000716c:	d9f9                	beqz	a1,80007142 <f64_eq+0x3a>
    8000716e:	001867f3          	csrrs	a5,fflags,16
    80007172:	4501                	li	a0,0
    80007174:	8082                	ret
    80007176:	07b6                	sll	a5,a5,0xd
    80007178:	fbfd                	bnez	a5,8000716e <f64_eq+0x66>
    8000717a:	bff1                	j	80007156 <f64_eq+0x4e>

000000008000717c <f64_lt>:
    8000717c:	7ff00693          	li	a3,2047
    80007180:	fff54713          	not	a4,a0
    80007184:	16d2                	sll	a3,a3,0x34
    80007186:	8f75                	and	a4,a4,a3
    80007188:	87aa                	mv	a5,a0
    8000718a:	e701                	bnez	a4,80007192 <f64_lt+0x16>
    8000718c:	00c51713          	sll	a4,a0,0xc
    80007190:	ef1d                	bnez	a4,800071ce <f64_lt+0x52>
    80007192:	7ff00693          	li	a3,2047
    80007196:	fff5c713          	not	a4,a1
    8000719a:	16d2                	sll	a3,a3,0x34
    8000719c:	8f75                	and	a4,a4,a3
    8000719e:	e701                	bnez	a4,800071a6 <f64_lt+0x2a>
    800071a0:	00c59713          	sll	a4,a1,0xc
    800071a4:	e70d                	bnez	a4,800071ce <f64_lt+0x52>
    800071a6:	00b7c733          	xor	a4,a5,a1
    800071aa:	4501                	li	a0,0
    800071ac:	00074a63          	bltz	a4,800071c0 <f64_lt+0x44>
    800071b0:	00b78763          	beq	a5,a1,800071be <f64_lt+0x42>
    800071b4:	03f7d513          	srl	a0,a5,0x3f
    800071b8:	00b7b5b3          	sltu	a1,a5,a1
    800071bc:	8d2d                	xor	a0,a0,a1
    800071be:	8082                	ret
    800071c0:	fe07dfe3          	bgez	a5,800071be <f64_lt+0x42>
    800071c4:	8fcd                	or	a5,a5,a1
    800071c6:	0786                	sll	a5,a5,0x1
    800071c8:	00f03533          	snez	a0,a5
    800071cc:	8082                	ret
    800071ce:	001867f3          	csrrs	a5,fflags,16
    800071d2:	4501                	li	a0,0
    800071d4:	8082                	ret

00000000800071d6 <f64_lt_quiet>:
    800071d6:	7ff00693          	li	a3,2047
    800071da:	fff54713          	not	a4,a0
    800071de:	16d2                	sll	a3,a3,0x34
    800071e0:	8f75                	and	a4,a4,a3
    800071e2:	87aa                	mv	a5,a0
    800071e4:	e701                	bnez	a4,800071ec <f64_lt_quiet+0x16>
    800071e6:	00c51713          	sll	a4,a0,0xc
    800071ea:	ef1d                	bnez	a4,80007228 <f64_lt_quiet+0x52>
    800071ec:	7ff00693          	li	a3,2047
    800071f0:	fff5c713          	not	a4,a1
    800071f4:	16d2                	sll	a3,a3,0x34
    800071f6:	8f75                	and	a4,a4,a3
    800071f8:	e701                	bnez	a4,80007200 <f64_lt_quiet+0x2a>
    800071fa:	00c59713          	sll	a4,a1,0xc
    800071fe:	e70d                	bnez	a4,80007228 <f64_lt_quiet+0x52>
    80007200:	00b7c733          	xor	a4,a5,a1
    80007204:	4501                	li	a0,0
    80007206:	00074a63          	bltz	a4,8000721a <f64_lt_quiet+0x44>
    8000720a:	00b78763          	beq	a5,a1,80007218 <f64_lt_quiet+0x42>
    8000720e:	03f7d513          	srl	a0,a5,0x3f
    80007212:	00b7b5b3          	sltu	a1,a5,a1
    80007216:	8d2d                	xor	a0,a0,a1
    80007218:	8082                	ret
    8000721a:	fe07dfe3          	bgez	a5,80007218 <f64_lt_quiet+0x42>
    8000721e:	8fcd                	or	a5,a5,a1
    80007220:	0786                	sll	a5,a5,0x1
    80007222:	00f03533          	snez	a0,a5
    80007226:	8082                	ret
    80007228:	00fff737          	lui	a4,0xfff
    8000722c:	171e                	sll	a4,a4,0x27
    8000722e:	7ff00693          	li	a3,2047
    80007232:	8f7d                	and	a4,a4,a5
    80007234:	16d2                	sll	a3,a3,0x34
    80007236:	02d70263          	beq	a4,a3,8000725a <f64_lt_quiet+0x84>
    8000723a:	00fff7b7          	lui	a5,0xfff
    8000723e:	179e                	sll	a5,a5,0x27
    80007240:	7ff00713          	li	a4,2047
    80007244:	8fed                	and	a5,a5,a1
    80007246:	1752                	sll	a4,a4,0x34
    80007248:	4501                	li	a0,0
    8000724a:	fce797e3          	bne	a5,a4,80007218 <f64_lt_quiet+0x42>
    8000724e:	05b6                	sll	a1,a1,0xd
    80007250:	d5e1                	beqz	a1,80007218 <f64_lt_quiet+0x42>
    80007252:	001867f3          	csrrs	a5,fflags,16
    80007256:	4501                	li	a0,0
    80007258:	8082                	ret
    8000725a:	07b6                	sll	a5,a5,0xd
    8000725c:	fbfd                	bnez	a5,80007252 <f64_lt_quiet+0x7c>
    8000725e:	bff1                	j	8000723a <f64_lt_quiet+0x64>

0000000080007260 <f64_mul>:
    80007260:	715d                	add	sp,sp,-80
    80007262:	f84a                	sd	s2,48(sp)
    80007264:	57fd                	li	a5,-1
    80007266:	03455913          	srl	s2,a0,0x34
    8000726a:	83b1                	srl	a5,a5,0xc
    8000726c:	e0a2                	sd	s0,64(sp)
    8000726e:	fc26                	sd	s1,56(sp)
    80007270:	f44e                	sd	s3,40(sp)
    80007272:	f052                	sd	s4,32(sp)
    80007274:	0345d993          	srl	s3,a1,0x34
    80007278:	e486                	sd	ra,72(sp)
    8000727a:	7ff97913          	and	s2,s2,2047
    8000727e:	7ff00713          	li	a4,2047
    80007282:	00f57a33          	and	s4,a0,a5
    80007286:	7ff9f993          	and	s3,s3,2047
    8000728a:	00f5f433          	and	s0,a1,a5
    8000728e:	00b544b3          	xor	s1,a0,a1
    80007292:	04e90063          	beq	s2,a4,800072d2 <f64_mul+0x72>
    80007296:	02e98163          	beq	s3,a4,800072b8 <f64_mul+0x58>
    8000729a:	06091763          	bnez	s2,80007308 <f64_mul+0xa8>
    8000729e:	040a1f63          	bnez	s4,800072fc <f64_mul+0x9c>
    800072a2:	60a6                	ld	ra,72(sp)
    800072a4:	6406                	ld	s0,64(sp)
    800072a6:	03f4d513          	srl	a0,s1,0x3f
    800072aa:	7942                	ld	s2,48(sp)
    800072ac:	74e2                	ld	s1,56(sp)
    800072ae:	79a2                	ld	s3,40(sp)
    800072b0:	7a02                	ld	s4,32(sp)
    800072b2:	157e                	sll	a0,a0,0x3f
    800072b4:	6161                	add	sp,sp,80
    800072b6:	8082                	ret
    800072b8:	01496933          	or	s2,s2,s4
    800072bc:	c00d                	beqz	s0,800072de <f64_mul+0x7e>
    800072be:	71a010ef          	jal	800089d8 <softfloat_propagateNaNF64UI>
    800072c2:	60a6                	ld	ra,72(sp)
    800072c4:	6406                	ld	s0,64(sp)
    800072c6:	74e2                	ld	s1,56(sp)
    800072c8:	7942                	ld	s2,48(sp)
    800072ca:	79a2                	ld	s3,40(sp)
    800072cc:	7a02                	ld	s4,32(sp)
    800072ce:	6161                	add	sp,sp,80
    800072d0:	8082                	ret
    800072d2:	fe0a16e3          	bnez	s4,800072be <f64_mul+0x5e>
    800072d6:	09298a63          	beq	s3,s2,8000736a <f64_mul+0x10a>
    800072da:	0089e933          	or	s2,s3,s0
    800072de:	08091763          	bnez	s2,8000736c <f64_mul+0x10c>
    800072e2:	001867f3          	csrrs	a5,fflags,16
    800072e6:	60a6                	ld	ra,72(sp)
    800072e8:	6406                	ld	s0,64(sp)
    800072ea:	00fff537          	lui	a0,0xfff
    800072ee:	74e2                	ld	s1,56(sp)
    800072f0:	7942                	ld	s2,48(sp)
    800072f2:	79a2                	ld	s3,40(sp)
    800072f4:	7a02                	ld	s4,32(sp)
    800072f6:	151e                	sll	a0,a0,0x27
    800072f8:	6161                	add	sp,sp,80
    800072fa:	8082                	ret
    800072fc:	8552                	mv	a0,s4
    800072fe:	5ad000ef          	jal	800080aa <softfloat_normSubnormalF64Sig>
    80007302:	0005091b          	sext.w	s2,a0
    80007306:	8a2e                	mv	s4,a1
    80007308:	00099963          	bnez	s3,8000731a <f64_mul+0xba>
    8000730c:	d859                	beqz	s0,800072a2 <f64_mul+0x42>
    8000730e:	8522                	mv	a0,s0
    80007310:	59b000ef          	jal	800080aa <softfloat_normSubnormalF64Sig>
    80007314:	0005099b          	sext.w	s3,a0
    80007318:	842e                	mv	s0,a1
    8000731a:	55fd                	li	a1,-1
    8000731c:	4505                	li	a0,1
    8000731e:	0a2a                	sll	s4,s4,0xa
    80007320:	042e                	sll	s0,s0,0xb
    80007322:	15fe                	sll	a1,a1,0x3f
    80007324:	157a                	sll	a0,a0,0x3e
    80007326:	0810                	add	a2,sp,16
    80007328:	8dc1                	or	a1,a1,s0
    8000732a:	00aa6533          	or	a0,s4,a0
    8000732e:	6d0000ef          	jal	800079fe <softfloat_mul64To128M>
    80007332:	47d2                	lw	a5,20(sp)
    80007334:	4742                	lw	a4,16(sp)
    80007336:	6662                	ld	a2,24(sp)
    80007338:	013905bb          	addw	a1,s2,s3
    8000733c:	8fd9                	or	a5,a5,a4
    8000733e:	c399                	beqz	a5,80007344 <f64_mul+0xe4>
    80007340:	00166613          	or	a2,a2,1
    80007344:	57fd                	li	a5,-1
    80007346:	8389                	srl	a5,a5,0x2
    80007348:	04c7e163          	bltu	a5,a2,8000738a <f64_mul+0x12a>
    8000734c:	c005859b          	addw	a1,a1,-1024 # 9c00 <_ftext-0x7fff6400>
    80007350:	0606                	sll	a2,a2,0x1
    80007352:	03f4d513          	srl	a0,s1,0x3f
    80007356:	707000ef          	jal	8000825c <softfloat_roundPackToF64>
    8000735a:	60a6                	ld	ra,72(sp)
    8000735c:	6406                	ld	s0,64(sp)
    8000735e:	74e2                	ld	s1,56(sp)
    80007360:	7942                	ld	s2,48(sp)
    80007362:	79a2                	ld	s3,40(sp)
    80007364:	7a02                	ld	s4,32(sp)
    80007366:	6161                	add	sp,sp,80
    80007368:	8082                	ret
    8000736a:	f831                	bnez	s0,800072be <f64_mul+0x5e>
    8000736c:	60a6                	ld	ra,72(sp)
    8000736e:	6406                	ld	s0,64(sp)
    80007370:	03f4d513          	srl	a0,s1,0x3f
    80007374:	7ff00793          	li	a5,2047
    80007378:	157e                	sll	a0,a0,0x3f
    8000737a:	17d2                	sll	a5,a5,0x34
    8000737c:	74e2                	ld	s1,56(sp)
    8000737e:	7942                	ld	s2,48(sp)
    80007380:	79a2                	ld	s3,40(sp)
    80007382:	7a02                	ld	s4,32(sp)
    80007384:	953e                	add	a0,a0,a5
    80007386:	6161                	add	sp,sp,80
    80007388:	8082                	ret
    8000738a:	c015859b          	addw	a1,a1,-1023
    8000738e:	b7d1                	j	80007352 <f64_mul+0xf2>

0000000080007390 <f64_sqrt>:
    80007390:	7139                	add	sp,sp,-64
    80007392:	03455713          	srl	a4,a0,0x34
    80007396:	00c51593          	sll	a1,a0,0xc
    8000739a:	fc06                	sd	ra,56(sp)
    8000739c:	f822                	sd	s0,48(sp)
    8000739e:	f426                	sd	s1,40(sp)
    800073a0:	f04a                	sd	s2,32(sp)
    800073a2:	ec4e                	sd	s3,24(sp)
    800073a4:	7ff77713          	and	a4,a4,2047
    800073a8:	7ff00693          	li	a3,2047
    800073ac:	87aa                	mv	a5,a0
    800073ae:	81b1                	srl	a1,a1,0xc
    800073b0:	02d70c63          	beq	a4,a3,800073e8 <f64_sqrt+0x58>
    800073b4:	00054c63          	bltz	a0,800073cc <f64_sqrt+0x3c>
    800073b8:	e731                	bnez	a4,80007404 <f64_sqrt+0x74>
    800073ba:	e1a1                	bnez	a1,800073fa <f64_sqrt+0x6a>
    800073bc:	853e                	mv	a0,a5
    800073be:	70e2                	ld	ra,56(sp)
    800073c0:	7442                	ld	s0,48(sp)
    800073c2:	74a2                	ld	s1,40(sp)
    800073c4:	7902                	ld	s2,32(sp)
    800073c6:	69e2                	ld	s3,24(sp)
    800073c8:	6121                	add	sp,sp,64
    800073ca:	8082                	ret
    800073cc:	8f4d                	or	a4,a4,a1
    800073ce:	d77d                	beqz	a4,800073bc <f64_sqrt+0x2c>
    800073d0:	001867f3          	csrrs	a5,fflags,16
    800073d4:	00fff537          	lui	a0,0xfff
    800073d8:	151e                	sll	a0,a0,0x27
    800073da:	70e2                	ld	ra,56(sp)
    800073dc:	7442                	ld	s0,48(sp)
    800073de:	74a2                	ld	s1,40(sp)
    800073e0:	7902                	ld	s2,32(sp)
    800073e2:	69e2                	ld	s3,24(sp)
    800073e4:	6121                	add	sp,sp,64
    800073e6:	8082                	ret
    800073e8:	e9dd                	bnez	a1,8000749e <f64_sqrt+0x10e>
    800073ea:	fc0559e3          	bgez	a0,800073bc <f64_sqrt+0x2c>
    800073ee:	001867f3          	csrrs	a5,fflags,16
    800073f2:	00fff537          	lui	a0,0xfff
    800073f6:	151e                	sll	a0,a0,0x27
    800073f8:	b7cd                	j	800073da <f64_sqrt+0x4a>
    800073fa:	852e                	mv	a0,a1
    800073fc:	4af000ef          	jal	800080aa <softfloat_normSubnormalF64Sig>
    80007400:	0005071b          	sext.w	a4,a0
    80007404:	4785                	li	a5,1
    80007406:	17d2                	sll	a5,a5,0x34
    80007408:	00f5e4b3          	or	s1,a1,a5
    8000740c:	0154d993          	srl	s3,s1,0x15
    80007410:	00177513          	and	a0,a4,1
    80007414:	0009859b          	sext.w	a1,s3
    80007418:	c017091b          	addw	s2,a4,-1023 # ffec01 <_ftext-0x7f0013ff>
    8000741c:	842a                	mv	s0,a0
    8000741e:	544000ef          	jal	80007962 <softfloat_approxRecipSqrt32_1>
    80007422:	1502                	sll	a0,a0,0x20
    80007424:	02099793          	sll	a5,s3,0x20
    80007428:	9101                	srl	a0,a0,0x20
    8000742a:	9381                	srl	a5,a5,0x20
    8000742c:	02a787b3          	mul	a5,a5,a0
    80007430:	4019591b          	sraw	s2,s2,0x1
    80007434:	3fe9091b          	addw	s2,s2,1022
    80007438:	00949713          	sll	a4,s1,0x9
    8000743c:	9381                	srl	a5,a5,0x20
    8000743e:	c401                	beqz	s0,80007446 <f64_sqrt+0xb6>
    80007440:	00849713          	sll	a4,s1,0x8
    80007444:	8385                	srl	a5,a5,0x1
    80007446:	02f78633          	mul	a2,a5,a5
    8000744a:	1782                	sll	a5,a5,0x20
    8000744c:	0207e793          	or	a5,a5,32
    80007450:	02100693          	li	a3,33
    80007454:	40c70633          	sub	a2,a4,a2
    80007458:	8209                	srl	a2,a2,0x2
    8000745a:	1602                	sll	a2,a2,0x20
    8000745c:	9201                	srl	a2,a2,0x20
    8000745e:	02a60633          	mul	a2,a2,a0
    80007462:	9201                	srl	a2,a2,0x20
    80007464:	060e                	sll	a2,a2,0x3
    80007466:	963e                	add	a2,a2,a5
    80007468:	1ff67793          	and	a5,a2,511
    8000746c:	00f6ef63          	bltu	a3,a5,8000748a <f64_sqrt+0xfa>
    80007470:	fc067613          	and	a2,a2,-64
    80007474:	00665793          	srl	a5,a2,0x6
    80007478:	02f787b3          	mul	a5,a5,a5
    8000747c:	1752                	sll	a4,a4,0x34
    8000747e:	8f1d                	sub	a4,a4,a5
    80007480:	02074363          	bltz	a4,800074a6 <f64_sqrt+0x116>
    80007484:	c319                	beqz	a4,8000748a <f64_sqrt+0xfa>
    80007486:	00166613          	or	a2,a2,1
    8000748a:	7442                	ld	s0,48(sp)
    8000748c:	70e2                	ld	ra,56(sp)
    8000748e:	74a2                	ld	s1,40(sp)
    80007490:	69e2                	ld	s3,24(sp)
    80007492:	85ca                	mv	a1,s2
    80007494:	7902                	ld	s2,32(sp)
    80007496:	4501                	li	a0,0
    80007498:	6121                	add	sp,sp,64
    8000749a:	5c30006f          	j	8000825c <softfloat_roundPackToF64>
    8000749e:	4581                	li	a1,0
    800074a0:	538010ef          	jal	800089d8 <softfloat_propagateNaNF64UI>
    800074a4:	bf29                	j	800073be <f64_sqrt+0x2e>
    800074a6:	167d                	add	a2,a2,-1
    800074a8:	b7cd                	j	8000748a <f64_sqrt+0xfa>

00000000800074aa <f64_to_f32>:
    800074aa:	1101                	add	sp,sp,-32
    800074ac:	e822                	sd	s0,16(sp)
    800074ae:	03455413          	srl	s0,a0,0x34
    800074b2:	87aa                	mv	a5,a0
    800074b4:	e426                	sd	s1,8(sp)
    800074b6:	0532                	sll	a0,a0,0xc
    800074b8:	ec06                	sd	ra,24(sp)
    800074ba:	7ff47413          	and	s0,s0,2047
    800074be:	7ff00713          	li	a4,2047
    800074c2:	03f7d493          	srl	s1,a5,0x3f
    800074c6:	8131                	srl	a0,a0,0xc
    800074c8:	02e40c63          	beq	s0,a4,80007500 <f64_to_f32+0x56>
    800074cc:	45d9                	li	a1,22
    800074ce:	0d4010ef          	jal	800085a2 <softfloat_shortShiftRightJam64>
    800074d2:	2501                	sext.w	a0,a0
    800074d4:	00a467b3          	or	a5,s0,a0
    800074d8:	eb81                	bnez	a5,800074e8 <f64_to_f32+0x3e>
    800074da:	01f4951b          	sllw	a0,s1,0x1f
    800074de:	60e2                	ld	ra,24(sp)
    800074e0:	6442                	ld	s0,16(sp)
    800074e2:	64a2                	ld	s1,8(sp)
    800074e4:	6105                	add	sp,sp,32
    800074e6:	8082                	ret
    800074e8:	40000637          	lui	a2,0x40000
    800074ec:	c7f4059b          	addw	a1,s0,-897 # ffec7f <_ftext-0x7f001381>
    800074f0:	6442                	ld	s0,16(sp)
    800074f2:	60e2                	ld	ra,24(sp)
    800074f4:	8e49                	or	a2,a2,a0
    800074f6:	8526                	mv	a0,s1
    800074f8:	64a2                	ld	s1,8(sp)
    800074fa:	6105                	add	sp,sp,32
    800074fc:	45d0006f          	j	80008158 <softfloat_roundPackToF32>
    80007500:	c909                	beqz	a0,80007512 <f64_to_f32+0x68>
    80007502:	93cd                	srl	a5,a5,0x33
    80007504:	8b85                	and	a5,a5,1
    80007506:	7fc00537          	lui	a0,0x7fc00
    8000750a:	fbf1                	bnez	a5,800074de <f64_to_f32+0x34>
    8000750c:	001867f3          	csrrs	a5,fflags,16
    80007510:	b7f9                	j	800074de <f64_to_f32+0x34>
    80007512:	60e2                	ld	ra,24(sp)
    80007514:	6442                	ld	s0,16(sp)
    80007516:	01f4949b          	sllw	s1,s1,0x1f
    8000751a:	7f8007b7          	lui	a5,0x7f800
    8000751e:	00f4853b          	addw	a0,s1,a5
    80007522:	64a2                	ld	s1,8(sp)
    80007524:	6105                	add	sp,sp,32
    80007526:	8082                	ret

0000000080007528 <f64_to_ui64>:
    80007528:	7139                	add	sp,sp,-64
    8000752a:	03455713          	srl	a4,a0,0x34
    8000752e:	f822                	sd	s0,48(sp)
    80007530:	f426                	sd	s1,40(sp)
    80007532:	ec4e                	sd	s3,24(sp)
    80007534:	00c51813          	sll	a6,a0,0xc
    80007538:	fc06                	sd	ra,56(sp)
    8000753a:	f04a                	sd	s2,32(sp)
    8000753c:	7ff77713          	and	a4,a4,2047
    80007540:	842e                	mv	s0,a1
    80007542:	84b2                	mv	s1,a2
    80007544:	03f55993          	srl	s3,a0,0x3f
    80007548:	00c85813          	srl	a6,a6,0xc
    8000754c:	eb1d                	bnez	a4,80007582 <f64_to_ui64+0x5a>
    8000754e:	c002                	sw	zero,0(sp)
    80007550:	43300613          	li	a2,1075
    80007554:	890a                	mv	s2,sp
    80007556:	02085793          	srl	a5,a6,0x20
    8000755a:	86ca                	mv	a3,s2
    8000755c:	85ca                	mv	a1,s2
    8000755e:	450d                	li	a0,3
    80007560:	c43e                	sw	a5,8(sp)
    80007562:	c242                	sw	a6,4(sp)
    80007564:	6cf000ef          	jal	80008432 <softfloat_shiftRightJamM>
    80007568:	86a6                	mv	a3,s1
    8000756a:	8622                	mv	a2,s0
    8000756c:	85ca                	mv	a1,s2
    8000756e:	854e                	mv	a0,s3
    80007570:	35f000ef          	jal	800080ce <softfloat_roundMToUI64>
    80007574:	70e2                	ld	ra,56(sp)
    80007576:	7442                	ld	s0,48(sp)
    80007578:	74a2                	ld	s1,40(sp)
    8000757a:	7902                	ld	s2,32(sp)
    8000757c:	69e2                	ld	s3,24(sp)
    8000757e:	6121                	add	sp,sp,64
    80007580:	8082                	ret
    80007582:	87aa                	mv	a5,a0
    80007584:	43300613          	li	a2,1075
    80007588:	4505                	li	a0,1
    8000758a:	1552                	sll	a0,a0,0x34
    8000758c:	9e19                	subw	a2,a2,a4
    8000758e:	c002                	sw	zero,0(sp)
    80007590:	00a86533          	or	a0,a6,a0
    80007594:	02c04f63          	bgtz	a2,800075d2 <f64_to_ui64+0xaa>
    80007598:	56d5                	li	a3,-11
    8000759a:	00d64c63          	blt	a2,a3,800075b2 <f64_to_ui64+0x8a>
    8000759e:	bcd7071b          	addw	a4,a4,-1075
    800075a2:	00e517b3          	sll	a5,a0,a4
    800075a6:	0207d713          	srl	a4,a5,0x20
    800075aa:	c43a                	sw	a4,8(sp)
    800075ac:	c23e                	sw	a5,4(sp)
    800075ae:	890a                	mv	s2,sp
    800075b0:	bf65                	j	80007568 <f64_to_ui64+0x40>
    800075b2:	001866f3          	csrrs	a3,fflags,16
    800075b6:	7ff00693          	li	a3,2047
    800075ba:	00d70e63          	beq	a4,a3,800075d6 <f64_to_ui64+0xae>
    800075be:	70e2                	ld	ra,56(sp)
    800075c0:	7442                	ld	s0,48(sp)
    800075c2:	fff7c513          	not	a0,a5
    800075c6:	74a2                	ld	s1,40(sp)
    800075c8:	7902                	ld	s2,32(sp)
    800075ca:	69e2                	ld	s3,24(sp)
    800075cc:	957d                	sra	a0,a0,0x3f
    800075ce:	6121                	add	sp,sp,64
    800075d0:	8082                	ret
    800075d2:	882a                	mv	a6,a0
    800075d4:	b741                	j	80007554 <f64_to_ui64+0x2c>
    800075d6:	557d                	li	a0,-1
    800075d8:	fe0803e3          	beqz	a6,800075be <f64_to_ui64+0x96>
    800075dc:	bf61                	j	80007574 <f64_to_ui64+0x4c>

00000000800075de <f64_classify>:
    800075de:	7ff00613          	li	a2,2047
    800075e2:	03455713          	srl	a4,a0,0x34
    800075e6:	fff54793          	not	a5,a0
    800075ea:	03461693          	sll	a3,a2,0x34
    800075ee:	7ff77713          	and	a4,a4,2047
    800075f2:	8efd                	and	a3,a3,a5
    800075f4:	04054f63          	bltz	a0,80007652 <f64_classify+0x74>
    800075f8:	04c70663          	beq	a4,a2,80007644 <f64_classify+0x66>
    800075fc:	00e037b3          	snez	a5,a4
    80007600:	0067979b          	sllw	a5,a5,0x6
    80007604:	ef11                	bnez	a4,80007620 <f64_classify+0x42>
    80007606:	00c51613          	sll	a2,a0,0xc
    8000760a:	00c65713          	srl	a4,a2,0xc
    8000760e:	c219                	beqz	a2,80007614 <f64_classify+0x36>
    80007610:	0207e793          	or	a5,a5,32
    80007614:	00173713          	seqz	a4,a4
    80007618:	0047171b          	sllw	a4,a4,0x4
    8000761c:	8fd9                	or	a5,a5,a4
    8000761e:	2781                	sext.w	a5,a5
    80007620:	ee99                	bnez	a3,8000763e <f64_classify+0x60>
    80007622:	00c51713          	sll	a4,a0,0xc
    80007626:	cf01                	beqz	a4,8000763e <f64_classify+0x60>
    80007628:	00fff737          	lui	a4,0xfff
    8000762c:	171e                	sll	a4,a4,0x27
    8000762e:	7ff00693          	li	a3,2047
    80007632:	8f69                	and	a4,a4,a0
    80007634:	16d2                	sll	a3,a3,0x34
    80007636:	04d70563          	beq	a4,a3,80007680 <f64_classify+0xa2>
    8000763a:	2007e793          	or	a5,a5,512
    8000763e:	0007851b          	sext.w	a0,a5
    80007642:	8082                	ret
    80007644:	00c51793          	sll	a5,a0,0xc
    80007648:	0017b793          	seqz	a5,a5
    8000764c:	0077979b          	sllw	a5,a5,0x7
    80007650:	bfc1                	j	80007620 <f64_classify+0x42>
    80007652:	00c51793          	sll	a5,a0,0xc
    80007656:	0017b793          	seqz	a5,a5
    8000765a:	fcc703e3          	beq	a4,a2,80007620 <f64_classify+0x42>
    8000765e:	00e037b3          	snez	a5,a4
    80007662:	0017979b          	sllw	a5,a5,0x1
    80007666:	ff4d                	bnez	a4,80007620 <f64_classify+0x42>
    80007668:	00c51713          	sll	a4,a0,0xc
    8000766c:	c709                	beqz	a4,80007676 <f64_classify+0x98>
    8000766e:	0047e793          	or	a5,a5,4
    80007672:	dadd                	beqz	a3,80007628 <f64_classify+0x4a>
    80007674:	b7e9                	j	8000763e <f64_classify+0x60>
    80007676:	0087e793          	or	a5,a5,8
    8000767a:	0007851b          	sext.w	a0,a5
    8000767e:	8082                	ret
    80007680:	0536                	sll	a0,a0,0xd
    80007682:	00d55713          	srl	a4,a0,0xd
    80007686:	c119                	beqz	a0,8000768c <f64_classify+0xae>
    80007688:	1007e793          	or	a5,a5,256
    8000768c:	00173713          	seqz	a4,a4
    80007690:	0097171b          	sllw	a4,a4,0x9
    80007694:	8fd9                	or	a5,a5,a4
    80007696:	2781                	sext.w	a5,a5
    80007698:	b75d                	j	8000763e <f64_classify+0x60>

000000008000769a <softfloat_addMagsF32>:
    8000769a:	7179                	add	sp,sp,-48
    8000769c:	0175579b          	srlw	a5,a0,0x17
    800076a0:	0175d69b          	srlw	a3,a1,0x17
    800076a4:	00800737          	lui	a4,0x800
    800076a8:	177d                	add	a4,a4,-1 # 7fffff <_ftext-0x7f800001>
    800076aa:	f022                	sd	s0,32(sp)
    800076ac:	e84a                	sd	s2,16(sp)
    800076ae:	0ff6f413          	zext.b	s0,a3
    800076b2:	0ff7f913          	zext.b	s2,a5
    800076b6:	f406                	sd	ra,40(sp)
    800076b8:	ec26                	sd	s1,24(sp)
    800076ba:	e44e                	sd	s3,8(sp)
    800076bc:	e052                	sd	s4,0(sp)
    800076be:	832a                	mv	t1,a0
    800076c0:	00e578b3          	and	a7,a0,a4
    800076c4:	00e5f833          	and	a6,a1,a4
    800076c8:	4089063b          	subw	a2,s2,s0
    800076cc:	02891a63          	bne	s2,s0,80007700 <softfloat_addMagsF32+0x66>
    800076d0:	0a090a63          	beqz	s2,80007784 <softfloat_addMagsF32+0xea>
    800076d4:	0ff00693          	li	a3,255
    800076d8:	0ed90763          	beq	s2,a3,800077c6 <softfloat_addMagsF32+0x12c>
    800076dc:	01000637          	lui	a2,0x1000
    800076e0:	0106063b          	addw	a2,a2,a6
    800076e4:	0116063b          	addw	a2,a2,a7
    800076e8:	00167713          	and	a4,a2,1
    800076ec:	01f55a1b          	srlw	s4,a0,0x1f
    800076f0:	e709                	bnez	a4,800076fa <softfloat_addMagsF32+0x60>
    800076f2:	0fe00713          	li	a4,254
    800076f6:	0ee91063          	bne	s2,a4,800077d6 <softfloat_addMagsF32+0x13c>
    800076fa:	0066161b          	sllw	a2,a2,0x6
    800076fe:	a0b9                	j	8000774c <softfloat_addMagsF32+0xb2>
    80007700:	0068949b          	sllw	s1,a7,0x6
    80007704:	0068199b          	sllw	s3,a6,0x6
    80007708:	88a6                	mv	a7,s1
    8000770a:	884e                	mv	a6,s3
    8000770c:	01f55a1b          	srlw	s4,a0,0x1f
    80007710:	0ff00713          	li	a4,255
    80007714:	04064763          	bltz	a2,80007762 <softfloat_addMagsF32+0xc8>
    80007718:	08e90063          	beq	s2,a4,80007798 <softfloat_addMagsF32+0xfe>
    8000771c:	20000537          	lui	a0,0x20000
    80007720:	e011                	bnez	s0,80007724 <softfloat_addMagsF32+0x8a>
    80007722:	854e                	mv	a0,s3
    80007724:	85b2                	mv	a1,a2
    80007726:	00a8053b          	addw	a0,a6,a0
    8000772a:	4c3000ef          	jal	800083ec <softfloat_shiftRightJam32>
    8000772e:	0005099b          	sext.w	s3,a0
    80007732:	200007b7          	lui	a5,0x20000
    80007736:	013484bb          	addw	s1,s1,s3
    8000773a:	00f4863b          	addw	a2,s1,a5
    8000773e:	400007b7          	lui	a5,0x40000
    80007742:	00f67563          	bgeu	a2,a5,8000774c <softfloat_addMagsF32+0xb2>
    80007746:	397d                	addw	s2,s2,-1
    80007748:	0016161b          	sllw	a2,a2,0x1
    8000774c:	7402                	ld	s0,32(sp)
    8000774e:	70a2                	ld	ra,40(sp)
    80007750:	64e2                	ld	s1,24(sp)
    80007752:	69a2                	ld	s3,8(sp)
    80007754:	85ca                	mv	a1,s2
    80007756:	8552                	mv	a0,s4
    80007758:	6942                	ld	s2,16(sp)
    8000775a:	6a02                	ld	s4,0(sp)
    8000775c:	6145                	add	sp,sp,48
    8000775e:	1fb0006f          	j	80008158 <softfloat_roundPackToF32>
    80007762:	04e40763          	beq	s0,a4,800077b0 <softfloat_addMagsF32+0x116>
    80007766:	20000537          	lui	a0,0x20000
    8000776a:	00091363          	bnez	s2,80007770 <softfloat_addMagsF32+0xd6>
    8000776e:	8526                	mv	a0,s1
    80007770:	412405bb          	subw	a1,s0,s2
    80007774:	00a8853b          	addw	a0,a7,a0
    80007778:	475000ef          	jal	800083ec <softfloat_shiftRightJam32>
    8000777c:	0005049b          	sext.w	s1,a0
    80007780:	8922                	mv	s2,s0
    80007782:	bf45                	j	80007732 <softfloat_addMagsF32+0x98>
    80007784:	0105053b          	addw	a0,a0,a6
    80007788:	70a2                	ld	ra,40(sp)
    8000778a:	7402                	ld	s0,32(sp)
    8000778c:	64e2                	ld	s1,24(sp)
    8000778e:	6942                	ld	s2,16(sp)
    80007790:	69a2                	ld	s3,8(sp)
    80007792:	6a02                	ld	s4,0(sp)
    80007794:	6145                	add	sp,sp,48
    80007796:	8082                	ret
    80007798:	d8e5                	beqz	s1,80007788 <softfloat_addMagsF32+0xee>
    8000779a:	204010ef          	jal	8000899e <softfloat_propagateNaNF32UI>
    8000779e:	70a2                	ld	ra,40(sp)
    800077a0:	7402                	ld	s0,32(sp)
    800077a2:	64e2                	ld	s1,24(sp)
    800077a4:	6942                	ld	s2,16(sp)
    800077a6:	69a2                	ld	s3,8(sp)
    800077a8:	6a02                	ld	s4,0(sp)
    800077aa:	2501                	sext.w	a0,a0
    800077ac:	6145                	add	sp,sp,48
    800077ae:	8082                	ret
    800077b0:	fe0995e3          	bnez	s3,8000779a <softfloat_addMagsF32+0x100>
    800077b4:	800007b7          	lui	a5,0x80000
    800077b8:	00f37333          	and	t1,t1,a5
    800077bc:	7f800537          	lui	a0,0x7f800
    800077c0:	0065053b          	addw	a0,a0,t1
    800077c4:	b7d1                	j	80007788 <softfloat_addMagsF32+0xee>
    800077c6:	0065e333          	or	t1,a1,t1
    800077ca:	00e37333          	and	t1,t1,a4
    800077ce:	2301                	sext.w	t1,t1
    800077d0:	fc0315e3          	bnez	t1,8000779a <softfloat_addMagsF32+0x100>
    800077d4:	bf55                	j	80007788 <softfloat_addMagsF32+0xee>
    800077d6:	0179179b          	sllw	a5,s2,0x17
    800077da:	0016561b          	srlw	a2,a2,0x1
    800077de:	80000537          	lui	a0,0x80000
    800077e2:	9fb1                	addw	a5,a5,a2
    800077e4:	00a37533          	and	a0,t1,a0
    800077e8:	9d3d                	addw	a0,a0,a5
    800077ea:	bf79                	j	80007788 <softfloat_addMagsF32+0xee>

00000000800077ec <softfloat_addMagsF64>:
    800077ec:	7179                	add	sp,sp,-48
    800077ee:	f022                	sd	s0,32(sp)
    800077f0:	ec26                	sd	s1,24(sp)
    800077f2:	03455413          	srl	s0,a0,0x34
    800077f6:	0345d493          	srl	s1,a1,0x34
    800077fa:	57fd                	li	a5,-1
    800077fc:	83b1                	srl	a5,a5,0xc
    800077fe:	e44e                	sd	s3,8(sp)
    80007800:	7ff47413          	and	s0,s0,2047
    80007804:	7ff4f493          	and	s1,s1,2047
    80007808:	f406                	sd	ra,40(sp)
    8000780a:	e84a                	sd	s2,16(sp)
    8000780c:	e052                	sd	s4,0(sp)
    8000780e:	89b2                	mv	s3,a2
    80007810:	00f576b3          	and	a3,a0,a5
    80007814:	00f5f733          	and	a4,a1,a5
    80007818:	4094063b          	subw	a2,s0,s1
    8000781c:	02941863          	bne	s0,s1,8000784c <softfloat_addMagsF64+0x60>
    80007820:	c459                	beqz	s0,800078ae <softfloat_addMagsF64+0xc2>
    80007822:	7ff00613          	li	a2,2047
    80007826:	0cc40163          	beq	s0,a2,800078e8 <softfloat_addMagsF64+0xfc>
    8000782a:	4785                	li	a5,1
    8000782c:	17d6                	sll	a5,a5,0x35
    8000782e:	973e                	add	a4,a4,a5
    80007830:	9736                	add	a4,a4,a3
    80007832:	00971613          	sll	a2,a4,0x9
    80007836:	85a2                	mv	a1,s0
    80007838:	7402                	ld	s0,32(sp)
    8000783a:	70a2                	ld	ra,40(sp)
    8000783c:	64e2                	ld	s1,24(sp)
    8000783e:	6942                	ld	s2,16(sp)
    80007840:	6a02                	ld	s4,0(sp)
    80007842:	854e                	mv	a0,s3
    80007844:	69a2                	ld	s3,8(sp)
    80007846:	6145                	add	sp,sp,48
    80007848:	2150006f          	j	8000825c <softfloat_roundPackToF64>
    8000784c:	00969913          	sll	s2,a3,0x9
    80007850:	00971a13          	sll	s4,a4,0x9
    80007854:	7ff00793          	li	a5,2047
    80007858:	02064b63          	bltz	a2,8000788e <softfloat_addMagsF64+0xa2>
    8000785c:	06f40263          	beq	s0,a5,800078c0 <softfloat_addMagsF64+0xd4>
    80007860:	00a71513          	sll	a0,a4,0xa
    80007864:	c489                	beqz	s1,8000786e <softfloat_addMagsF64+0x82>
    80007866:	4705                	li	a4,1
    80007868:	1776                	sll	a4,a4,0x3d
    8000786a:	00ea0533          	add	a0,s4,a4
    8000786e:	85b2                	mv	a1,a2
    80007870:	3a1000ef          	jal	80008410 <softfloat_shiftRightJam64>
    80007874:	8a2a                	mv	s4,a0
    80007876:	4785                	li	a5,1
    80007878:	17f6                	sll	a5,a5,0x3d
    8000787a:	9952                	add	s2,s2,s4
    8000787c:	00f90633          	add	a2,s2,a5
    80007880:	57fd                	li	a5,-1
    80007882:	8389                	srl	a5,a5,0x2
    80007884:	fac7e9e3          	bltu	a5,a2,80007836 <softfloat_addMagsF64+0x4a>
    80007888:	347d                	addw	s0,s0,-1
    8000788a:	0606                	sll	a2,a2,0x1
    8000788c:	b76d                	j	80007836 <softfloat_addMagsF64+0x4a>
    8000788e:	04f48563          	beq	s1,a5,800078d8 <softfloat_addMagsF64+0xec>
    80007892:	00a69513          	sll	a0,a3,0xa
    80007896:	c409                	beqz	s0,800078a0 <softfloat_addMagsF64+0xb4>
    80007898:	4685                	li	a3,1
    8000789a:	16f6                	sll	a3,a3,0x3d
    8000789c:	00d90533          	add	a0,s2,a3
    800078a0:	408485bb          	subw	a1,s1,s0
    800078a4:	36d000ef          	jal	80008410 <softfloat_shiftRightJam64>
    800078a8:	892a                	mv	s2,a0
    800078aa:	8426                	mv	s0,s1
    800078ac:	b7e9                	j	80007876 <softfloat_addMagsF64+0x8a>
    800078ae:	953a                	add	a0,a0,a4
    800078b0:	70a2                	ld	ra,40(sp)
    800078b2:	7402                	ld	s0,32(sp)
    800078b4:	64e2                	ld	s1,24(sp)
    800078b6:	6942                	ld	s2,16(sp)
    800078b8:	69a2                	ld	s3,8(sp)
    800078ba:	6a02                	ld	s4,0(sp)
    800078bc:	6145                	add	sp,sp,48
    800078be:	8082                	ret
    800078c0:	fe0908e3          	beqz	s2,800078b0 <softfloat_addMagsF64+0xc4>
    800078c4:	114010ef          	jal	800089d8 <softfloat_propagateNaNF64UI>
    800078c8:	70a2                	ld	ra,40(sp)
    800078ca:	7402                	ld	s0,32(sp)
    800078cc:	64e2                	ld	s1,24(sp)
    800078ce:	6942                	ld	s2,16(sp)
    800078d0:	69a2                	ld	s3,8(sp)
    800078d2:	6a02                	ld	s4,0(sp)
    800078d4:	6145                	add	sp,sp,48
    800078d6:	8082                	ret
    800078d8:	fe0a16e3          	bnez	s4,800078c4 <softfloat_addMagsF64+0xd8>
    800078dc:	03f99613          	sll	a2,s3,0x3f
    800078e0:	14d2                	sll	s1,s1,0x34
    800078e2:	00960533          	add	a0,a2,s1
    800078e6:	b7e9                	j	800078b0 <softfloat_addMagsF64+0xc4>
    800078e8:	00b56733          	or	a4,a0,a1
    800078ec:	8ff9                	and	a5,a5,a4
    800078ee:	fbf9                	bnez	a5,800078c4 <softfloat_addMagsF64+0xd8>
    800078f0:	b7c1                	j	800078b0 <softfloat_addMagsF64+0xc4>

00000000800078f2 <softfloat_approxRecip32_1>:
    800078f2:	01b5579b          	srlw	a5,a0,0x1b
    800078f6:	8bbd                	and	a5,a5,15
    800078f8:	0786                	sll	a5,a5,0x1
    800078fa:	00002717          	auipc	a4,0x2
    800078fe:	2be70713          	add	a4,a4,702 # 80009bb8 <softfloat_approxRecip_1k1s>
    80007902:	973e                	add	a4,a4,a5
    80007904:	00075683          	lhu	a3,0(a4)
    80007908:	00b5571b          	srlw	a4,a0,0xb
    8000790c:	1742                	sll	a4,a4,0x30
    8000790e:	9341                	srl	a4,a4,0x30
    80007910:	02e686bb          	mulw	a3,a3,a4
    80007914:	00002717          	auipc	a4,0x2
    80007918:	2c470713          	add	a4,a4,708 # 80009bd8 <softfloat_approxRecip_1k0s>
    8000791c:	97ba                	add	a5,a5,a4
    8000791e:	0007d703          	lhu	a4,0(a5) # ffffffff80000000 <_end+0xfffffffefffe8000>
    80007922:	02051793          	sll	a5,a0,0x20
    80007926:	9381                	srl	a5,a5,0x20
    80007928:	0146d69b          	srlw	a3,a3,0x14
    8000792c:	9f15                	subw	a4,a4,a3
    8000792e:	1742                	sll	a4,a4,0x30
    80007930:	9341                	srl	a4,a4,0x30
    80007932:	02e787b3          	mul	a5,a5,a4
    80007936:	0107151b          	sllw	a0,a4,0x10
    8000793a:	839d                	srl	a5,a5,0x7
    8000793c:	fff7c793          	not	a5,a5
    80007940:	1782                	sll	a5,a5,0x20
    80007942:	9381                	srl	a5,a5,0x20
    80007944:	02f70733          	mul	a4,a4,a5
    80007948:	02f787b3          	mul	a5,a5,a5
    8000794c:	8361                	srl	a4,a4,0x18
    8000794e:	9d39                	addw	a0,a0,a4
    80007950:	02051713          	sll	a4,a0,0x20
    80007954:	9301                	srl	a4,a4,0x20
    80007956:	9381                	srl	a5,a5,0x20
    80007958:	02e787b3          	mul	a5,a5,a4
    8000795c:	93c1                	srl	a5,a5,0x30
    8000795e:	9d3d                	addw	a0,a0,a5
    80007960:	8082                	ret

0000000080007962 <softfloat_approxRecipSqrt32_1>:
    80007962:	01b5d79b          	srlw	a5,a1,0x1b
    80007966:	8bb9                	and	a5,a5,14
    80007968:	9fa9                	addw	a5,a5,a0
    8000796a:	0786                	sll	a5,a5,0x1
    8000796c:	00002717          	auipc	a4,0x2
    80007970:	28c70713          	add	a4,a4,652 # 80009bf8 <softfloat_approxRecipSqrt_1k1s>
    80007974:	973e                	add	a4,a4,a5
    80007976:	00075683          	lhu	a3,0(a4)
    8000797a:	00c5d71b          	srlw	a4,a1,0xc
    8000797e:	1742                	sll	a4,a4,0x30
    80007980:	9341                	srl	a4,a4,0x30
    80007982:	02e686bb          	mulw	a3,a3,a4
    80007986:	00002717          	auipc	a4,0x2
    8000798a:	29270713          	add	a4,a4,658 # 80009c18 <softfloat_approxRecipSqrt_1k0s>
    8000798e:	97ba                	add	a5,a5,a4
    80007990:	0007d703          	lhu	a4,0(a5)
    80007994:	0146d79b          	srlw	a5,a3,0x14
    80007998:	9f1d                	subw	a4,a4,a5
    8000799a:	1742                	sll	a4,a4,0x30
    8000799c:	9341                	srl	a4,a4,0x30
    8000799e:	02e707bb          	mulw	a5,a4,a4
    800079a2:	0007069b          	sext.w	a3,a4
    800079a6:	e119                	bnez	a0,800079ac <softfloat_approxRecipSqrt32_1+0x4a>
    800079a8:	0017979b          	sllw	a5,a5,0x1
    800079ac:	1782                	sll	a5,a5,0x20
    800079ae:	1582                	sll	a1,a1,0x20
    800079b0:	9181                	srl	a1,a1,0x20
    800079b2:	9381                	srl	a5,a5,0x20
    800079b4:	0106951b          	sllw	a0,a3,0x10
    800079b8:	00e6969b          	sllw	a3,a3,0xe
    800079bc:	02b787b3          	mul	a5,a5,a1
    800079c0:	80000637          	lui	a2,0x80000
    800079c4:	83dd                	srl	a5,a5,0x17
    800079c6:	fff7c793          	not	a5,a5
    800079ca:	1782                	sll	a5,a5,0x20
    800079cc:	9381                	srl	a5,a5,0x20
    800079ce:	02f70733          	mul	a4,a4,a5
    800079d2:	02f787b3          	mul	a5,a5,a5
    800079d6:	8365                	srl	a4,a4,0x19
    800079d8:	9d39                	addw	a0,a0,a4
    800079da:	0015571b          	srlw	a4,a0,0x1
    800079de:	0035559b          	srlw	a1,a0,0x3
    800079e2:	9f2d                	addw	a4,a4,a1
    800079e4:	9f15                	subw	a4,a4,a3
    800079e6:	1702                	sll	a4,a4,0x20
    800079e8:	9301                	srl	a4,a4,0x20
    800079ea:	9381                	srl	a5,a5,0x20
    800079ec:	02f707b3          	mul	a5,a4,a5
    800079f0:	93c1                	srl	a5,a5,0x30
    800079f2:	9d3d                	addw	a0,a0,a5
    800079f4:	00c57463          	bgeu	a0,a2,800079fc <softfloat_approxRecipSqrt32_1+0x9a>
    800079f8:	80000537          	lui	a0,0x80000
    800079fc:	8082                	ret

00000000800079fe <softfloat_mul64To128M>:
    800079fe:	57fd                	li	a5,-1
    80007a00:	9381                	srl	a5,a5,0x20
    80007a02:	02055813          	srl	a6,a0,0x20
    80007a06:	0205d893          	srl	a7,a1,0x20
    80007a0a:	8d7d                	and	a0,a0,a5
    80007a0c:	8dfd                	and	a1,a1,a5
    80007a0e:	02b80733          	mul	a4,a6,a1
    80007a12:	02a887b3          	mul	a5,a7,a0
    80007a16:	02b50533          	mul	a0,a0,a1
    80007a1a:	973e                	add	a4,a4,a5
    80007a1c:	00f737b3          	sltu	a5,a4,a5
    80007a20:	02071693          	sll	a3,a4,0x20
    80007a24:	1782                	sll	a5,a5,0x20
    80007a26:	9301                	srl	a4,a4,0x20
    80007a28:	8fd9                	or	a5,a5,a4
    80007a2a:	03180833          	mul	a6,a6,a7
    80007a2e:	00d50733          	add	a4,a0,a3
    80007a32:	00a73533          	sltu	a0,a4,a0
    80007a36:	953e                	add	a0,a0,a5
    80007a38:	02075793          	srl	a5,a4,0x20
    80007a3c:	c25c                	sw	a5,4(a2)
    80007a3e:	c218                	sw	a4,0(a2)
    80007a40:	9542                	add	a0,a0,a6
    80007a42:	02055793          	srl	a5,a0,0x20
    80007a46:	c65c                	sw	a5,12(a2)
    80007a48:	c608                	sw	a0,8(a2)
    80007a4a:	8082                	ret

0000000080007a4c <softfloat_mulAddF32>:
    80007a4c:	7159                	add	sp,sp,-112
    80007a4e:	fff68813          	add	a6,a3,-1 # 7f7fffff <_ftext-0x800001>
    80007a52:	e8ca                	sd	s2,80(sp)
    80007a54:	16f9                	add	a3,a3,-2
    80007a56:	8932                	mv	s2,a2
    80007a58:	ec66                	sd	s9,24(sp)
    80007a5a:	0175571b          	srlw	a4,a0,0x17
    80007a5e:	01f6561b          	srlw	a2,a2,0x1f
    80007a62:	00183813          	seqz	a6,a6
    80007a66:	00b54cb3          	xor	s9,a0,a1
    80007a6a:	008007b7          	lui	a5,0x800
    80007a6e:	17fd                	add	a5,a5,-1 # 7fffff <_ftext-0x7f800001>
    80007a70:	f0a2                	sd	s0,96(sp)
    80007a72:	eca6                	sd	s1,88(sp)
    80007a74:	0016b413          	seqz	s0,a3
    80007a78:	e0d2                	sd	s4,64(sp)
    80007a7a:	fc56                	sd	s5,56(sp)
    80007a7c:	f85a                	sd	s6,48(sp)
    80007a7e:	f45e                	sd	s7,40(sp)
    80007a80:	f062                	sd	s8,32(sp)
    80007a82:	e86a                	sd	s10,16(sp)
    80007a84:	0175da1b          	srlw	s4,a1,0x17
    80007a88:	01064633          	xor	a2,a2,a6
    80007a8c:	01795a9b          	srlw	s5,s2,0x17
    80007a90:	01fcdc9b          	srlw	s9,s9,0x1f
    80007a94:	f486                	sd	ra,104(sp)
    80007a96:	e4ce                	sd	s3,72(sp)
    80007a98:	0ff77713          	zext.b	a4,a4
    80007a9c:	0ff00693          	li	a3,255
    80007aa0:	00f57bb3          	and	s7,a0,a5
    80007aa4:	0ffa7a13          	zext.b	s4,s4
    80007aa8:	00f5fd33          	and	s10,a1,a5
    80007aac:	0ff67b13          	zext.b	s6,a2
    80007ab0:	0ffafa93          	zext.b	s5,s5
    80007ab4:	00f974b3          	and	s1,s2,a5
    80007ab8:	008ccc33          	xor	s8,s9,s0
    80007abc:	10d70463          	beq	a4,a3,80007bc4 <softfloat_mulAddF32+0x178>
    80007ac0:	0cda0963          	beq	s4,a3,80007b92 <softfloat_mulAddF32+0x146>
    80007ac4:	14da8663          	beq	s5,a3,80007c10 <softfloat_mulAddF32+0x1c4>
    80007ac8:	0007099b          	sext.w	s3,a4
    80007acc:	eb11                	bnez	a4,80007ae0 <softfloat_mulAddF32+0x94>
    80007ace:	140b8463          	beqz	s7,80007c16 <softfloat_mulAddF32+0x1ca>
    80007ad2:	855e                	mv	a0,s7
    80007ad4:	5ae000ef          	jal	80008082 <softfloat_normSubnormalF32Sig>
    80007ad8:	0005099b          	sext.w	s3,a0
    80007adc:	42055b93          	sra	s7,a0,0x20
    80007ae0:	100a0e63          	beqz	s4,80007bfc <softfloat_mulAddF32+0x1b0>
    80007ae4:	2a01                	sext.w	s4,s4
    80007ae6:	400007b7          	lui	a5,0x40000
    80007aea:	007b9b9b          	sllw	s7,s7,0x7
    80007aee:	007d1d1b          	sllw	s10,s10,0x7
    80007af2:	00fbebb3          	or	s7,s7,a5
    80007af6:	00fd6d33          	or	s10,s10,a5
    80007afa:	1b82                	sll	s7,s7,0x20
    80007afc:	1d02                	sll	s10,s10,0x20
    80007afe:	020bdb93          	srl	s7,s7,0x20
    80007b02:	020d5d13          	srl	s10,s10,0x20
    80007b06:	03ab8bb3          	mul	s7,s7,s10
    80007b0a:	57fd                	li	a5,-1
    80007b0c:	838d                	srl	a5,a5,0x3
    80007b0e:	0149873b          	addw	a4,s3,s4
    80007b12:	1377f263          	bgeu	a5,s7,80007c36 <softfloat_mulAddF32+0x1ea>
    80007b16:	f827091b          	addw	s2,a4,-126
    80007b1a:	120a8263          	beqz	s5,80007c3e <softfloat_mulAddF32+0x1f2>
    80007b1e:	2a81                	sext.w	s5,s5
    80007b20:	0064979b          	sllw	a5,s1,0x6
    80007b24:	20000737          	lui	a4,0x20000
    80007b28:	8fd9                	or	a5,a5,a4
    80007b2a:	415905bb          	subw	a1,s2,s5
    80007b2e:	872e                	mv	a4,a1
    80007b30:	0007849b          	sext.w	s1,a5
    80007b34:	138b0463          	beq	s6,s8,80007c5c <softfloat_mulAddF32+0x210>
    80007b38:	1482                	sll	s1,s1,0x20
    80007b3a:	1405ce63          	bltz	a1,80007c96 <softfloat_mulAddF32+0x24a>
    80007b3e:	10059963          	bnez	a1,80007c50 <softfloat_mulAddF32+0x204>
    80007b42:	409b89b3          	sub	s3,s7,s1
    80007b46:	0e9b8063          	beq	s7,s1,80007c26 <softfloat_mulAddF32+0x1da>
    80007b4a:	0009d863          	bgez	s3,80007b5a <softfloat_mulAddF32+0x10e>
    80007b4e:	408c8cb3          	sub	s9,s9,s0
    80007b52:	001cbc13          	seqz	s8,s9
    80007b56:	417489b3          	sub	s3,s1,s7
    80007b5a:	854e                	mv	a0,s3
    80007b5c:	73b000ef          	jal	80008a96 <softfloat_countLeadingZeros64>
    80007b60:	fdf5079b          	addw	a5,a0,-33 # 7fffffdf <_ftext-0x21>
    80007b64:	357d                	addw	a0,a0,-1
    80007b66:	40a9093b          	subw	s2,s2,a0
    80007b6a:	00f9963b          	sllw	a2,s3,a5
    80007b6e:	1207ce63          	bltz	a5,80007caa <softfloat_mulAddF32+0x25e>
    80007b72:	7406                	ld	s0,96(sp)
    80007b74:	70a6                	ld	ra,104(sp)
    80007b76:	64e6                	ld	s1,88(sp)
    80007b78:	69a6                	ld	s3,72(sp)
    80007b7a:	6a06                	ld	s4,64(sp)
    80007b7c:	7ae2                	ld	s5,56(sp)
    80007b7e:	7b42                	ld	s6,48(sp)
    80007b80:	7ba2                	ld	s7,40(sp)
    80007b82:	6ce2                	ld	s9,24(sp)
    80007b84:	6d42                	ld	s10,16(sp)
    80007b86:	85ca                	mv	a1,s2
    80007b88:	8562                	mv	a0,s8
    80007b8a:	6946                	ld	s2,80(sp)
    80007b8c:	7c02                	ld	s8,32(sp)
    80007b8e:	6165                	add	sp,sp,112
    80007b90:	a3e1                	j	80008158 <softfloat_roundPackToF32>
    80007b92:	00ebebb3          	or	s7,s7,a4
    80007b96:	020d0d63          	beqz	s10,80007bd0 <softfloat_mulAddF32+0x184>
    80007b9a:	605000ef          	jal	8000899e <softfloat_propagateNaNF32UI>
    80007b9e:	2501                	sext.w	a0,a0
    80007ba0:	85ca                	mv	a1,s2
    80007ba2:	5fd000ef          	jal	8000899e <softfloat_propagateNaNF32UI>
    80007ba6:	2501                	sext.w	a0,a0
    80007ba8:	70a6                	ld	ra,104(sp)
    80007baa:	7406                	ld	s0,96(sp)
    80007bac:	64e6                	ld	s1,88(sp)
    80007bae:	6946                	ld	s2,80(sp)
    80007bb0:	69a6                	ld	s3,72(sp)
    80007bb2:	6a06                	ld	s4,64(sp)
    80007bb4:	7ae2                	ld	s5,56(sp)
    80007bb6:	7b42                	ld	s6,48(sp)
    80007bb8:	7ba2                	ld	s7,40(sp)
    80007bba:	7c02                	ld	s8,32(sp)
    80007bbc:	6ce2                	ld	s9,24(sp)
    80007bbe:	6d42                	ld	s10,16(sp)
    80007bc0:	6165                	add	sp,sp,112
    80007bc2:	8082                	ret
    80007bc4:	fc0b9be3          	bnez	s7,80007b9a <softfloat_mulAddF32+0x14e>
    80007bc8:	02ea0763          	beq	s4,a4,80007bf6 <softfloat_mulAddF32+0x1aa>
    80007bcc:	014d6bb3          	or	s7,s10,s4
    80007bd0:	000b8e63          	beqz	s7,80007bec <softfloat_mulAddF32+0x1a0>
    80007bd4:	01fc151b          	sllw	a0,s8,0x1f
    80007bd8:	7f800737          	lui	a4,0x7f800
    80007bdc:	0ff00793          	li	a5,255
    80007be0:	9d39                	addw	a0,a0,a4
    80007be2:	fcfa93e3          	bne	s5,a5,80007ba8 <softfloat_mulAddF32+0x15c>
    80007be6:	fccd                	bnez	s1,80007ba0 <softfloat_mulAddF32+0x154>
    80007be8:	fd8b00e3          	beq	s6,s8,80007ba8 <softfloat_mulAddF32+0x15c>
    80007bec:	001867f3          	csrrs	a5,fflags,16
    80007bf0:	7fc00537          	lui	a0,0x7fc00
    80007bf4:	b775                	j	80007ba0 <softfloat_mulAddF32+0x154>
    80007bf6:	fa0d12e3          	bnez	s10,80007b9a <softfloat_mulAddF32+0x14e>
    80007bfa:	bfe9                	j	80007bd4 <softfloat_mulAddF32+0x188>
    80007bfc:	000d0d63          	beqz	s10,80007c16 <softfloat_mulAddF32+0x1ca>
    80007c00:	856a                	mv	a0,s10
    80007c02:	480000ef          	jal	80008082 <softfloat_normSubnormalF32Sig>
    80007c06:	00050a1b          	sext.w	s4,a0
    80007c0a:	42055d13          	sra	s10,a0,0x20
    80007c0e:	bde1                	j	80007ae6 <softfloat_mulAddF32+0x9a>
    80007c10:	c889                	beqz	s1,80007c22 <softfloat_mulAddF32+0x1d6>
    80007c12:	4501                	li	a0,0
    80007c14:	b771                	j	80007ba0 <softfloat_mulAddF32+0x154>
    80007c16:	009aeab3          	or	s5,s5,s1
    80007c1a:	000a9463          	bnez	s5,80007c22 <softfloat_mulAddF32+0x1d6>
    80007c1e:	018b1463          	bne	s6,s8,80007c26 <softfloat_mulAddF32+0x1da>
    80007c22:	854a                	mv	a0,s2
    80007c24:	b751                	j	80007ba8 <softfloat_mulAddF32+0x15c>
    80007c26:	0002051b          	sext.w	a0,tp
    80007c2a:	1579                	add	a0,a0,-2 # 7fbffffe <_ftext-0x400002>
    80007c2c:	00153513          	seqz	a0,a0
    80007c30:	01f5151b          	sllw	a0,a0,0x1f
    80007c34:	bf95                	j	80007ba8 <softfloat_mulAddF32+0x15c>
    80007c36:	f817091b          	addw	s2,a4,-127 # 7f7fff81 <_ftext-0x80007f>
    80007c3a:	0b86                	sll	s7,s7,0x1
    80007c3c:	bdf9                	j	80007b1a <softfloat_mulAddF32+0xce>
    80007c3e:	c4a1                	beqz	s1,80007c86 <softfloat_mulAddF32+0x23a>
    80007c40:	8526                	mv	a0,s1
    80007c42:	440000ef          	jal	80008082 <softfloat_normSubnormalF32Sig>
    80007c46:	00050a9b          	sext.w	s5,a0
    80007c4a:	42055493          	sra	s1,a0,0x20
    80007c4e:	bdc9                	j	80007b20 <softfloat_mulAddF32+0xd4>
    80007c50:	8526                	mv	a0,s1
    80007c52:	7be000ef          	jal	80008410 <softfloat_shiftRightJam64>
    80007c56:	40ab89b3          	sub	s3,s7,a0
    80007c5a:	b701                	j	80007b5a <softfloat_mulAddF32+0x10e>
    80007c5c:	04b05f63          	blez	a1,80007cba <softfloat_mulAddF32+0x26e>
    80007c60:	02049513          	sll	a0,s1,0x20
    80007c64:	7ac000ef          	jal	80008410 <softfloat_shiftRightJam64>
    80007c68:	02000593          	li	a1,32
    80007c6c:	955e                	add	a0,a0,s7
    80007c6e:	135000ef          	jal	800085a2 <softfloat_shortShiftRightJam64>
    80007c72:	0005061b          	sext.w	a2,a0
    80007c76:	400007b7          	lui	a5,0x40000
    80007c7a:	eef67ce3          	bgeu	a2,a5,80007b72 <softfloat_mulAddF32+0x126>
    80007c7e:	0016161b          	sllw	a2,a2,0x1
    80007c82:	397d                	addw	s2,s2,-1
    80007c84:	b5fd                	j	80007b72 <softfloat_mulAddF32+0x126>
    80007c86:	45fd                	li	a1,31
    80007c88:	855e                	mv	a0,s7
    80007c8a:	119000ef          	jal	800085a2 <softfloat_shortShiftRightJam64>
    80007c8e:	397d                	addw	s2,s2,-1
    80007c90:	0005061b          	sext.w	a2,a0
    80007c94:	bdf9                	j	80007b72 <softfloat_mulAddF32+0x126>
    80007c96:	412a85bb          	subw	a1,s5,s2
    80007c9a:	855e                	mv	a0,s7
    80007c9c:	774000ef          	jal	80008410 <softfloat_shiftRightJam64>
    80007ca0:	40a489b3          	sub	s3,s1,a0
    80007ca4:	8956                	mv	s2,s5
    80007ca6:	8c5a                	mv	s8,s6
    80007ca8:	bd4d                	j	80007b5a <softfloat_mulAddF32+0x10e>
    80007caa:	40f005bb          	negw	a1,a5
    80007cae:	854e                	mv	a0,s3
    80007cb0:	0f3000ef          	jal	800085a2 <softfloat_shortShiftRightJam64>
    80007cb4:	0005061b          	sext.w	a2,a0
    80007cb8:	bd6d                	j	80007b72 <softfloat_mulAddF32+0x126>
    80007cba:	02000593          	li	a1,32
    80007cbe:	9d99                	subw	a1,a1,a4
    80007cc0:	855e                	mv	a0,s7
    80007cc2:	74e000ef          	jal	80008410 <softfloat_shiftRightJam64>
    80007cc6:	0095063b          	addw	a2,a0,s1
    80007cca:	8956                	mv	s2,s5
    80007ccc:	b76d                	j	80007c76 <softfloat_mulAddF32+0x22a>

0000000080007cce <softfloat_mulAddF64>:
    80007cce:	7135                	add	sp,sp,-160
    80007cd0:	fff68713          	add	a4,a3,-1
    80007cd4:	fcce                	sd	s3,120(sp)
    80007cd6:	16f9                	add	a3,a3,-2
    80007cd8:	ecde                	sd	s7,88(sp)
    80007cda:	03455993          	srl	s3,a0,0x34
    80007cde:	00b54bb3          	xor	s7,a0,a1
    80007ce2:	57fd                	li	a5,-1
    80007ce4:	83b1                	srl	a5,a5,0xc
    80007ce6:	03f65813          	srl	a6,a2,0x3f
    80007cea:	e922                	sd	s0,144(sp)
    80007cec:	e526                	sd	s1,136(sp)
    80007cee:	0016b413          	seqz	s0,a3
    80007cf2:	e14a                	sd	s2,128(sp)
    80007cf4:	f8d2                	sd	s4,112(sp)
    80007cf6:	8932                	mv	s2,a2
    80007cf8:	f4d6                	sd	s5,104(sp)
    80007cfa:	f0da                	sd	s6,96(sp)
    80007cfc:	e8e2                	sd	s8,80(sp)
    80007cfe:	e4e6                	sd	s9,72(sp)
    80007d00:	e0ea                	sd	s10,64(sp)
    80007d02:	0345da13          	srl	s4,a1,0x34
    80007d06:	00173713          	seqz	a4,a4
    80007d0a:	9251                	srl	a2,a2,0x34
    80007d0c:	03fbdb93          	srl	s7,s7,0x3f
    80007d10:	ed06                	sd	ra,152(sp)
    80007d12:	fc6e                	sd	s11,56(sp)
    80007d14:	7ff9f993          	and	s3,s3,2047
    80007d18:	7ff00693          	li	a3,2047
    80007d1c:	00f57ab3          	and	s5,a0,a5
    80007d20:	7ffa7a13          	and	s4,s4,2047
    80007d24:	00f5fb33          	and	s6,a1,a5
    80007d28:	01074c33          	xor	s8,a4,a6
    80007d2c:	7ff67c93          	and	s9,a2,2047
    80007d30:	00f974b3          	and	s1,s2,a5
    80007d34:	008bcd33          	xor	s10,s7,s0
    80007d38:	0ad98163          	beq	s3,a3,80007dda <softfloat_mulAddF64+0x10c>
    80007d3c:	06da0763          	beq	s4,a3,80007daa <softfloat_mulAddF64+0xdc>
    80007d40:	0cdc8a63          	beq	s9,a3,80007e14 <softfloat_mulAddF64+0x146>
    80007d44:	00099a63          	bnez	s3,80007d58 <softfloat_mulAddF64+0x8a>
    80007d48:	0c0a8963          	beqz	s5,80007e1a <softfloat_mulAddF64+0x14c>
    80007d4c:	8556                	mv	a0,s5
    80007d4e:	35c000ef          	jal	800080aa <softfloat_normSubnormalF64Sig>
    80007d52:	0005099b          	sext.w	s3,a0
    80007d56:	8aae                	mv	s5,a1
    80007d58:	000a1a63          	bnez	s4,80007d6c <softfloat_mulAddF64+0x9e>
    80007d5c:	0a0b0f63          	beqz	s6,80007e1a <softfloat_mulAddF64+0x14c>
    80007d60:	855a                	mv	a0,s6
    80007d62:	348000ef          	jal	800080aa <softfloat_normSubnormalF64Sig>
    80007d66:	00050a1b          	sext.w	s4,a0
    80007d6a:	8b2e                	mv	s6,a1
    80007d6c:	577d                	li	a4,-1
    80007d6e:	4d85                	li	s11,1
    80007d70:	03f71593          	sll	a1,a4,0x3f
    80007d74:	1dfa                	sll	s11,s11,0x3e
    80007d76:	00aa9513          	sll	a0,s5,0xa
    80007d7a:	0b2e                	sll	s6,s6,0xb
    80007d7c:	0810                	add	a2,sp,16
    80007d7e:	00bb65b3          	or	a1,s6,a1
    80007d82:	01b56533          	or	a0,a0,s11
    80007d86:	c79ff0ef          	jal	800079fe <softfloat_mul64To128M>
    80007d8a:	6962                	ld	s2,24(sp)
    80007d8c:	014989bb          	addw	s3,s3,s4
    80007d90:	577d                	li	a4,-1
    80007d92:	01b977b3          	and	a5,s2,s11
    80007d96:	c3c5                	beqz	a5,80007e36 <softfloat_mulAddF64+0x168>
    80007d98:	c0298a9b          	addw	s5,s3,-1022
    80007d9c:	100c9a63          	bnez	s9,80007eb0 <softfloat_mulAddF64+0x1e2>
    80007da0:	22049463          	bnez	s1,80007fc8 <softfloat_mulAddF64+0x2fa>
    80007da4:	c0198a9b          	addw	s5,s3,-1023
    80007da8:	a045                	j	80007e48 <softfloat_mulAddF64+0x17a>
    80007daa:	0159e9b3          	or	s3,s3,s5
    80007dae:	020b0c63          	beqz	s6,80007de6 <softfloat_mulAddF64+0x118>
    80007db2:	427000ef          	jal	800089d8 <softfloat_propagateNaNF64UI>
    80007db6:	85ca                	mv	a1,s2
    80007db8:	421000ef          	jal	800089d8 <softfloat_propagateNaNF64UI>
    80007dbc:	60ea                	ld	ra,152(sp)
    80007dbe:	644a                	ld	s0,144(sp)
    80007dc0:	64aa                	ld	s1,136(sp)
    80007dc2:	690a                	ld	s2,128(sp)
    80007dc4:	79e6                	ld	s3,120(sp)
    80007dc6:	7a46                	ld	s4,112(sp)
    80007dc8:	7aa6                	ld	s5,104(sp)
    80007dca:	7b06                	ld	s6,96(sp)
    80007dcc:	6be6                	ld	s7,88(sp)
    80007dce:	6c46                	ld	s8,80(sp)
    80007dd0:	6ca6                	ld	s9,72(sp)
    80007dd2:	6d06                	ld	s10,64(sp)
    80007dd4:	7de2                	ld	s11,56(sp)
    80007dd6:	610d                	add	sp,sp,160
    80007dd8:	8082                	ret
    80007dda:	fc0a9ce3          	bnez	s5,80007db2 <softfloat_mulAddF64+0xe4>
    80007dde:	033a0863          	beq	s4,s3,80007e0e <softfloat_mulAddF64+0x140>
    80007de2:	016a69b3          	or	s3,s4,s6
    80007de6:	00098e63          	beqz	s3,80007e02 <softfloat_mulAddF64+0x134>
    80007dea:	7ff00793          	li	a5,2047
    80007dee:	03fd1513          	sll	a0,s10,0x3f
    80007df2:	03479713          	sll	a4,a5,0x34
    80007df6:	953a                	add	a0,a0,a4
    80007df8:	fcfc92e3          	bne	s9,a5,80007dbc <softfloat_mulAddF64+0xee>
    80007dfc:	fccd                	bnez	s1,80007db6 <softfloat_mulAddF64+0xe8>
    80007dfe:	fbac0fe3          	beq	s8,s10,80007dbc <softfloat_mulAddF64+0xee>
    80007e02:	001867f3          	csrrs	a5,fflags,16
    80007e06:	00fff537          	lui	a0,0xfff
    80007e0a:	151e                	sll	a0,a0,0x27
    80007e0c:	b76d                	j	80007db6 <softfloat_mulAddF64+0xe8>
    80007e0e:	fa0b12e3          	bnez	s6,80007db2 <softfloat_mulAddF64+0xe4>
    80007e12:	bfe1                	j	80007dea <softfloat_mulAddF64+0x11c>
    80007e14:	c881                	beqz	s1,80007e24 <softfloat_mulAddF64+0x156>
    80007e16:	4501                	li	a0,0
    80007e18:	bf79                	j	80007db6 <softfloat_mulAddF64+0xe8>
    80007e1a:	009ce7b3          	or	a5,s9,s1
    80007e1e:	e399                	bnez	a5,80007e24 <softfloat_mulAddF64+0x156>
    80007e20:	01ac1463          	bne	s8,s10,80007e28 <softfloat_mulAddF64+0x15a>
    80007e24:	854a                	mv	a0,s2
    80007e26:	bf59                	j	80007dbc <softfloat_mulAddF64+0xee>
    80007e28:	0002051b          	sext.w	a0,tp
    80007e2c:	1579                	add	a0,a0,-2 # ffeffe <_ftext-0x7f001002>
    80007e2e:	00153513          	seqz	a0,a0
    80007e32:	157e                	sll	a0,a0,0x3f
    80007e34:	b761                	j	80007dbc <softfloat_mulAddF64+0xee>
    80007e36:	c0198a9b          	addw	s5,s3,-1023
    80007e3a:	020c9363          	bnez	s9,80007e60 <softfloat_mulAddF64+0x192>
    80007e3e:	12049b63          	bnez	s1,80007f74 <softfloat_mulAddF64+0x2a6>
    80007e42:	0906                	sll	s2,s2,0x1
    80007e44:	c0098a9b          	addw	s5,s3,-1024
    80007e48:	47d2                	lw	a5,20(sp)
    80007e4a:	4742                	lw	a4,16(sp)
    80007e4c:	8fd9                	or	a5,a5,a4
    80007e4e:	c399                	beqz	a5,80007e54 <softfloat_mulAddF64+0x186>
    80007e50:	00196913          	or	s2,s2,1
    80007e54:	864a                	mv	a2,s2
    80007e56:	85d6                	mv	a1,s5
    80007e58:	856a                	mv	a0,s10
    80007e5a:	402000ef          	jal	8000825c <softfloat_roundPackToF64>
    80007e5e:	bfb9                	j	80007dbc <softfloat_mulAddF64+0xee>
    80007e60:	04aa                	sll	s1,s1,0xa
    80007e62:	419a89bb          	subw	s3,s5,s9
    80007e66:	01b4e4b3          	or	s1,s1,s11
    80007e6a:	1609ce63          	bltz	s3,80007fe6 <softfloat_mulAddF64+0x318>
    80007e6e:	0814                	add	a3,sp,16
    80007e70:	8636                	mv	a2,a3
    80007e72:	85b6                	mv	a1,a3
    80007e74:	4511                	li	a0,4
    80007e76:	3a9000ef          	jal	80008a1e <softfloat_addM>
    80007e7a:	0a099b63          	bnez	s3,80007f30 <softfloat_mulAddF64+0x262>
    80007e7e:	6962                	ld	s2,24(sp)
    80007e80:	09ac0f63          	beq	s8,s10,80007f1e <softfloat_mulAddF64+0x250>
    80007e84:	409907b3          	sub	a5,s2,s1
    80007e88:	16991e63          	bne	s2,s1,80008004 <softfloat_mulAddF64+0x336>
    80007e8c:	47d2                	lw	a5,20(sp)
    80007e8e:	4742                	lw	a4,16(sp)
    80007e90:	8fd9                	or	a5,a5,a4
    80007e92:	dbd9                	beqz	a5,80007e28 <softfloat_mulAddF64+0x15a>
    80007e94:	ec02                	sd	zero,24(sp)
    80007e96:	6942                	ld	s2,16(sp)
    80007e98:	04000413          	li	s0,64
    80007e9c:	854a                	mv	a0,s2
    80007e9e:	3f9000ef          	jal	80008a96 <softfloat_countLeadingZeros64>
    80007ea2:	008507bb          	addw	a5,a0,s0
    80007ea6:	fff7861b          	addw	a2,a5,-1 # 3fffffff <_ftext-0x40000001>
    80007eaa:	e631                	bnez	a2,80007ef6 <softfloat_mulAddF64+0x228>
    80007eac:	3afd                	addw	s5,s5,-1
    80007eae:	bf69                	j	80007e48 <softfloat_mulAddF64+0x17a>
    80007eb0:	04aa                	sll	s1,s1,0xa
    80007eb2:	419a89bb          	subw	s3,s5,s9
    80007eb6:	01b4e4b3          	or	s1,s1,s11
    80007eba:	fc09d0e3          	bgez	s3,80007e7a <softfloat_mulAddF64+0x1ac>
    80007ebe:	17ac0463          	beq	s8,s10,80008026 <softfloat_mulAddF64+0x358>
    80007ec2:	4581                	li	a1,0
    80007ec4:	16e98663          	beq	s3,a4,80008030 <softfloat_mulAddF64+0x362>
    80007ec8:	854a                	mv	a0,s2
    80007eca:	413585bb          	subw	a1,a1,s3
    80007ece:	542000ef          	jal	80008410 <softfloat_shiftRightJam64>
    80007ed2:	47d2                	lw	a5,20(sp)
    80007ed4:	4742                	lw	a4,16(sp)
    80007ed6:	40a48933          	sub	s2,s1,a0
    80007eda:	8fd9                	or	a5,a5,a4
    80007edc:	c781                	beqz	a5,80007ee4 <softfloat_mulAddF64+0x216>
    80007ede:	197d                	add	s2,s2,-1
    80007ee0:	00196913          	or	s2,s2,1
    80007ee4:	03e95793          	srl	a5,s2,0x3e
    80007ee8:	8b85                	and	a5,a5,1
    80007eea:	12078963          	beqz	a5,8000801c <softfloat_mulAddF64+0x34e>
    80007eee:	fffc8a9b          	addw	s5,s9,-1
    80007ef2:	8d62                	mv	s10,s8
    80007ef4:	b785                	j	80007e54 <softfloat_mulAddF64+0x186>
    80007ef6:	0814                	add	a3,sp,16
    80007ef8:	40ca8abb          	subw	s5,s5,a2
    80007efc:	85b6                	mv	a1,a3
    80007efe:	4511                	li	a0,4
    80007f00:	45e000ef          	jal	8000835e <softfloat_shiftLeftM>
    80007f04:	3afd                	addw	s5,s5,-1
    80007f06:	6962                	ld	s2,24(sp)
    80007f08:	b781                	j	80007e48 <softfloat_mulAddF64+0x17a>
    80007f0a:	8ae6                	mv	s5,s9
    80007f0c:	55fd                	li	a1,-1
    80007f0e:	413585bb          	subw	a1,a1,s3
    80007f12:	c591                	beqz	a1,80007f1e <softfloat_mulAddF64+0x250>
    80007f14:	854a                	mv	a0,s2
    80007f16:	4fa000ef          	jal	80008410 <softfloat_shiftRightJam64>
    80007f1a:	892a                	mv	s2,a0
    80007f1c:	8ae6                	mv	s5,s9
    80007f1e:	9926                	add	s2,s2,s1
    80007f20:	f80956e3          	bgez	s2,80007eac <softfloat_mulAddF64+0x1de>
    80007f24:	854a                	mv	a0,s2
    80007f26:	4585                	li	a1,1
    80007f28:	67a000ef          	jal	800085a2 <softfloat_shortShiftRightJam64>
    80007f2c:	892a                	mv	s2,a0
    80007f2e:	bf29                	j	80007e48 <softfloat_mulAddF64+0x17a>
    80007f30:	57fd                	li	a5,-1
    80007f32:	0204d713          	srl	a4,s1,0x20
    80007f36:	9381                	srl	a5,a5,0x20
    80007f38:	1702                	sll	a4,a4,0x20
    80007f3a:	8fe5                	and	a5,a5,s1
    80007f3c:	1014                	add	a3,sp,32
    80007f3e:	8fd9                	or	a5,a5,a4
    80007f40:	864e                	mv	a2,s3
    80007f42:	85b6                	mv	a1,a3
    80007f44:	4511                	li	a0,4
    80007f46:	f43e                	sd	a5,40(sp)
    80007f48:	f002                	sd	zero,32(sp)
    80007f4a:	4e8000ef          	jal	80008432 <softfloat_shiftRightJamM>
    80007f4e:	0bac0363          	beq	s8,s10,80007ff4 <softfloat_mulAddF64+0x326>
    80007f52:	0814                	add	a3,sp,16
    80007f54:	1010                	add	a2,sp,32
    80007f56:	85b6                	mv	a1,a3
    80007f58:	4511                	li	a0,4
    80007f5a:	6ce000ef          	jal	80008628 <softfloat_subM>
    80007f5e:	4785                	li	a5,1
    80007f60:	04f98f63          	beq	s3,a5,80007fbe <softfloat_mulAddF64+0x2f0>
    80007f64:	6962                	ld	s2,24(sp)
    80007f66:	17fa                	sll	a5,a5,0x3e
    80007f68:	00f977b3          	and	a5,s2,a5
    80007f6c:	f3a1                	bnez	a5,80007eac <softfloat_mulAddF64+0x1de>
    80007f6e:	0906                	sll	s2,s2,0x1
    80007f70:	3af9                	addw	s5,s5,-2
    80007f72:	bdd9                	j	80007e48 <softfloat_mulAddF64+0x17a>
    80007f74:	8526                	mv	a0,s1
    80007f76:	134000ef          	jal	800080aa <softfloat_normSubnormalF64Sig>
    80007f7a:	00a59493          	sll	s1,a1,0xa
    80007f7e:	40aa89bb          	subw	s3,s5,a0
    80007f82:	00050c9b          	sext.w	s9,a0
    80007f86:	01b4e4b3          	or	s1,s1,s11
    80007f8a:	55fd                	li	a1,-1
    80007f8c:	ee09d1e3          	bgez	s3,80007e6e <softfloat_mulAddF64+0x1a0>
    80007f90:	09ac0e63          	beq	s8,s10,8000802c <softfloat_mulAddF64+0x35e>
    80007f94:	57fd                	li	a5,-1
    80007f96:	f2f999e3          	bne	s3,a5,80007ec8 <softfloat_mulAddF64+0x1fa>
    80007f9a:	8ae6                	mv	s5,s9
    80007f9c:	c9d1                	beqz	a1,80008030 <softfloat_mulAddF64+0x362>
    80007f9e:	57fd                	li	a5,-1
    80007fa0:	0204d713          	srl	a4,s1,0x20
    80007fa4:	9381                	srl	a5,a5,0x20
    80007fa6:	1702                	sll	a4,a4,0x20
    80007fa8:	8fe5                	and	a5,a5,s1
    80007faa:	0814                	add	a3,sp,16
    80007fac:	8fd9                	or	a5,a5,a4
    80007fae:	8636                	mv	a2,a3
    80007fb0:	100c                	add	a1,sp,32
    80007fb2:	4511                	li	a0,4
    80007fb4:	f43e                	sd	a5,40(sp)
    80007fb6:	f002                	sd	zero,32(sp)
    80007fb8:	8d62                	mv	s10,s8
    80007fba:	66e000ef          	jal	80008628 <softfloat_subM>
    80007fbe:	6962                	ld	s2,24(sp)
    80007fc0:	4401                	li	s0,0
    80007fc2:	ec091de3          	bnez	s2,80007e9c <softfloat_mulAddF64+0x1ce>
    80007fc6:	bdc1                	j	80007e96 <softfloat_mulAddF64+0x1c8>
    80007fc8:	8526                	mv	a0,s1
    80007fca:	0e0000ef          	jal	800080aa <softfloat_normSubnormalF64Sig>
    80007fce:	00a59493          	sll	s1,a1,0xa
    80007fd2:	40aa89bb          	subw	s3,s5,a0
    80007fd6:	01b4e4b3          	or	s1,s1,s11
    80007fda:	2501                	sext.w	a0,a0
    80007fdc:	e809dfe3          	bgez	s3,80007e7a <softfloat_mulAddF64+0x1ac>
    80007fe0:	4581                	li	a1,0
    80007fe2:	8caa                	mv	s9,a0
    80007fe4:	b775                	j	80007f90 <softfloat_mulAddF64+0x2c2>
    80007fe6:	f3ac02e3          	beq	s8,s10,80007f0a <softfloat_mulAddF64+0x23c>
    80007fea:	55fd                	li	a1,-1
    80007fec:	8ae6                	mv	s5,s9
    80007fee:	ece99de3          	bne	s3,a4,80007ec8 <softfloat_mulAddF64+0x1fa>
    80007ff2:	b775                	j	80007f9e <softfloat_mulAddF64+0x2d0>
    80007ff4:	0814                	add	a3,sp,16
    80007ff6:	1010                	add	a2,sp,32
    80007ff8:	85b6                	mv	a1,a3
    80007ffa:	4511                	li	a0,4
    80007ffc:	223000ef          	jal	80008a1e <softfloat_addM>
    80008000:	6962                	ld	s2,24(sp)
    80008002:	bf39                	j	80007f20 <softfloat_mulAddF64+0x252>
    80008004:	ec3e                	sd	a5,24(sp)
    80008006:	fa07dce3          	bgez	a5,80007fbe <softfloat_mulAddF64+0x2f0>
    8000800a:	408b8d33          	sub	s10,s7,s0
    8000800e:	080c                	add	a1,sp,16
    80008010:	4511                	li	a0,4
    80008012:	001d3d13          	seqz	s10,s10
    80008016:	02a000ef          	jal	80008040 <softfloat_negXM>
    8000801a:	b755                	j	80007fbe <softfloat_mulAddF64+0x2f0>
    8000801c:	0906                	sll	s2,s2,0x1
    8000801e:	ffec8a9b          	addw	s5,s9,-2
    80008022:	8d62                	mv	s10,s8
    80008024:	bd05                	j	80007e54 <softfloat_mulAddF64+0x186>
    80008026:	415c85bb          	subw	a1,s9,s5
    8000802a:	b5ed                	j	80007f14 <softfloat_mulAddF64+0x246>
    8000802c:	8ae6                	mv	s5,s9
    8000802e:	b5c5                	j	80007f0e <softfloat_mulAddF64+0x240>
    80008030:	0814                	add	a3,sp,16
    80008032:	4605                	li	a2,1
    80008034:	85b6                	mv	a1,a3
    80008036:	4511                	li	a0,4
    80008038:	514000ef          	jal	8000854c <softfloat_shortShiftRightM>
    8000803c:	8ae6                	mv	s5,s9
    8000803e:	b785                	j	80007f9e <softfloat_mulAddF64+0x2d0>

0000000080008040 <softfloat_negXM>:
    80008040:	4198                	lw	a4,0(a1)
    80008042:	4785                	li	a5,1
    80008044:	40e0073b          	negw	a4,a4
    80008048:	c198                	sw	a4,0(a1)
    8000804a:	02f50b63          	beq	a0,a5,80008080 <softfloat_negXM+0x40>
    8000804e:	ffe5061b          	addw	a2,a0,-2
    80008052:	02061793          	sll	a5,a2,0x20
    80008056:	01e7d613          	srl	a2,a5,0x1e
    8000805a:	00858793          	add	a5,a1,8
    8000805e:	963e                	add	a2,a2,a5
    80008060:	0591                	add	a1,a1,4
    80008062:	4685                	li	a3,1
    80008064:	419c                	lw	a5,0(a1)
    80008066:	00173713          	seqz	a4,a4
    8000806a:	40e00733          	neg	a4,a4
    8000806e:	8ef9                	and	a3,a3,a4
    80008070:	40f687bb          	subw	a5,a3,a5
    80008074:	fff7871b          	addw	a4,a5,-1
    80008078:	c198                	sw	a4,0(a1)
    8000807a:	0591                	add	a1,a1,4
    8000807c:	feb614e3          	bne	a2,a1,80008064 <softfloat_negXM+0x24>
    80008080:	8082                	ret

0000000080008082 <softfloat_normSubnormalF32Sig>:
    80008082:	1101                	add	sp,sp,-32
    80008084:	e822                	sd	s0,16(sp)
    80008086:	ec06                	sd	ra,24(sp)
    80008088:	842a                	mv	s0,a0
    8000808a:	1db000ef          	jal	80008a64 <softfloat_countLeadingZeros32>
    8000808e:	ff85079b          	addw	a5,a0,-8
    80008092:	4505                	li	a0,1
    80008094:	9d1d                	subw	a0,a0,a5
    80008096:	00f4143b          	sllw	s0,s0,a5
    8000809a:	1502                	sll	a0,a0,0x20
    8000809c:	1402                	sll	s0,s0,0x20
    8000809e:	9101                	srl	a0,a0,0x20
    800080a0:	60e2                	ld	ra,24(sp)
    800080a2:	8d41                	or	a0,a0,s0
    800080a4:	6442                	ld	s0,16(sp)
    800080a6:	6105                	add	sp,sp,32
    800080a8:	8082                	ret

00000000800080aa <softfloat_normSubnormalF64Sig>:
    800080aa:	1101                	add	sp,sp,-32
    800080ac:	e822                	sd	s0,16(sp)
    800080ae:	ec06                	sd	ra,24(sp)
    800080b0:	842a                	mv	s0,a0
    800080b2:	1e5000ef          	jal	80008a96 <softfloat_countLeadingZeros64>
    800080b6:	ff55059b          	addw	a1,a0,-11
    800080ba:	4705                	li	a4,1
    800080bc:	60e2                	ld	ra,24(sp)
    800080be:	9f0d                	subw	a4,a4,a1
    800080c0:	00b415b3          	sll	a1,s0,a1
    800080c4:	6442                	ld	s0,16(sp)
    800080c6:	c03a                	sw	a4,0(sp)
    800080c8:	6502                	ld	a0,0(sp)
    800080ca:	6105                	add	sp,sp,32
    800080cc:	8082                	ret

00000000800080ce <softfloat_roundMToUI64>:
    800080ce:	0085e783          	lwu	a5,8(a1)
    800080d2:	0045e883          	lwu	a7,4(a1)
    800080d6:	4811                	li	a6,4
    800080d8:	1782                	sll	a5,a5,0x20
    800080da:	872a                	mv	a4,a0
    800080dc:	418c                	lw	a1,0(a1)
    800080de:	0117e533          	or	a0,a5,a7
    800080e2:	03060663          	beq	a2,a6,8000810e <softfloat_roundMToUI64+0x40>
    800080e6:	e619                	bnez	a2,800080f4 <softfloat_roundMToUI64+0x26>
    800080e8:	0405c663          	bltz	a1,80008134 <softfloat_roundMToUI64+0x66>
    800080ec:	c311                	beqz	a4,800080f0 <softfloat_roundMToUI64+0x22>
    800080ee:	ed01                	bnez	a0,80008106 <softfloat_roundMToUI64+0x38>
    800080f0:	e585                	bnez	a1,80008118 <softfloat_roundMToUI64+0x4a>
    800080f2:	8082                	ret
    800080f4:	c715                	beqz	a4,80008120 <softfloat_roundMToUI64+0x52>
    800080f6:	02059793          	sll	a5,a1,0x20
    800080fa:	9381                	srl	a5,a5,0x20
    800080fc:	8fc9                	or	a5,a5,a0
    800080fe:	cbb9                	beqz	a5,80008154 <softfloat_roundMToUI64+0x86>
    80008100:	4789                	li	a5,2
    80008102:	fef616e3          	bne	a2,a5,800080ee <softfloat_roundMToUI64+0x20>
    80008106:	001867f3          	csrrs	a5,fflags,16
    8000810a:	4501                	li	a0,0
    8000810c:	8082                	ret
    8000810e:	fc05dfe3          	bgez	a1,800080ec <softfloat_roundMToUI64+0x1e>
    80008112:	0505                	add	a0,a0,1
    80008114:	c91d                	beqz	a0,8000814a <softfloat_roundMToUI64+0x7c>
    80008116:	fb65                	bnez	a4,80008106 <softfloat_roundMToUI64+0x38>
    80008118:	dee9                	beqz	a3,800080f2 <softfloat_roundMToUI64+0x24>
    8000811a:	0010e7f3          	csrrs	a5,fflags,1
    8000811e:	8082                	ret
    80008120:	478d                	li	a5,3
    80008122:	fcf617e3          	bne	a2,a5,800080f0 <softfloat_roundMToUI64+0x22>
    80008126:	d5f1                	beqz	a1,800080f2 <softfloat_roundMToUI64+0x24>
    80008128:	0505                	add	a0,a0,1
    8000812a:	f57d                	bnez	a0,80008118 <softfloat_roundMToUI64+0x4a>
    8000812c:	001867f3          	csrrs	a5,fflags,16
    80008130:	557d                	li	a0,-1
    80008132:	8082                	ret
    80008134:	0505                	add	a0,a0,1
    80008136:	c911                	beqz	a0,8000814a <softfloat_roundMToUI64+0x7c>
    80008138:	800007b7          	lui	a5,0x80000
    8000813c:	fcf59de3          	bne	a1,a5,80008116 <softfloat_roundMToUI64+0x48>
    80008140:	9979                	and	a0,a0,-2
    80008142:	db79                	beqz	a4,80008118 <softfloat_roundMToUI64+0x4a>
    80008144:	f169                	bnez	a0,80008106 <softfloat_roundMToUI64+0x38>
    80008146:	d6d5                	beqz	a3,800080f2 <softfloat_roundMToUI64+0x24>
    80008148:	bfc9                	j	8000811a <softfloat_roundMToUI64+0x4c>
    8000814a:	001867f3          	csrrs	a5,fflags,16
    8000814e:	fff70513          	add	a0,a4,-1
    80008152:	8082                	ret
    80008154:	4501                	li	a0,0
    80008156:	8082                	ret

0000000080008158 <softfloat_roundPackToF32>:
    80008158:	1101                	add	sp,sp,-32
    8000815a:	e426                	sd	s1,8(sp)
    8000815c:	0002049b          	sext.w	s1,tp
    80008160:	e822                	sd	s0,16(sp)
    80008162:	e04a                	sd	s2,0(sp)
    80008164:	ec06                	sd	ra,24(sp)
    80008166:	ffb4f793          	and	a5,s1,-5
    8000816a:	0005041b          	sext.w	s0,a0
    8000816e:	04000913          	li	s2,64
    80008172:	c799                	beqz	a5,80008180 <softfloat_roundPackToF32+0x28>
    80008174:	00153513          	seqz	a0,a0
    80008178:	2509                	addw	a0,a0,2
    8000817a:	4901                	li	s2,0
    8000817c:	0a950963          	beq	a0,s1,8000822e <softfloat_roundPackToF32+0xd6>
    80008180:	0fc00713          	li	a4,252
    80008184:	07f67793          	and	a5,a2,127
    80008188:	02b77963          	bgeu	a4,a1,800081ba <softfloat_roundPackToF32+0x62>
    8000818c:	0605c863          	bltz	a1,800081fc <softfloat_roundPackToF32+0xa4>
    80008190:	0fd00713          	li	a4,253
    80008194:	08e58863          	beq	a1,a4,80008224 <softfloat_roundPackToF32+0xcc>
    80008198:	0012e7f3          	csrrs	a5,fflags,5
    8000819c:	60e2                	ld	ra,24(sp)
    8000819e:	01f4151b          	sllw	a0,s0,0x1f
    800081a2:	6442                	ld	s0,16(sp)
    800081a4:	7f8007b7          	lui	a5,0x7f800
    800081a8:	00193913          	seqz	s2,s2
    800081ac:	9d3d                	addw	a0,a0,a5
    800081ae:	64a2                	ld	s1,8(sp)
    800081b0:	4125053b          	subw	a0,a0,s2
    800081b4:	6902                	ld	s2,0(sp)
    800081b6:	6105                	add	sp,sp,32
    800081b8:	8082                	ret
    800081ba:	00c9063b          	addw	a2,s2,a2
    800081be:	0076561b          	srlw	a2,a2,0x7
    800081c2:	cf91                	beqz	a5,800081de <softfloat_roundPackToF32+0x86>
    800081c4:	0010e773          	csrrs	a4,fflags,1
    800081c8:	fc078793          	add	a5,a5,-64 # 7f7fffc0 <_ftext-0x800040>
    800081cc:	0014b493          	seqz	s1,s1
    800081d0:	0017b793          	seqz	a5,a5
    800081d4:	8cfd                	and	s1,s1,a5
    800081d6:	fff4c493          	not	s1,s1
    800081da:	8e65                	and	a2,a2,s1
    800081dc:	2601                	sext.w	a2,a2
    800081de:	4781                	li	a5,0
    800081e0:	ea19                	bnez	a2,800081f6 <softfloat_roundPackToF32+0x9e>
    800081e2:	60e2                	ld	ra,24(sp)
    800081e4:	01f4151b          	sllw	a0,s0,0x1f
    800081e8:	6442                	ld	s0,16(sp)
    800081ea:	9d31                	addw	a0,a0,a2
    800081ec:	64a2                	ld	s1,8(sp)
    800081ee:	6902                	ld	s2,0(sp)
    800081f0:	9d3d                	addw	a0,a0,a5
    800081f2:	6105                	add	sp,sp,32
    800081f4:	8082                	ret
    800081f6:	0175979b          	sllw	a5,a1,0x17
    800081fa:	b7e5                	j	800081e2 <softfloat_roundPackToF32+0x8a>
    800081fc:	57fd                	li	a5,-1
    800081fe:	02f58b63          	beq	a1,a5,80008234 <softfloat_roundPackToF32+0xdc>
    80008202:	40b005bb          	negw	a1,a1
    80008206:	8532                	mv	a0,a2
    80008208:	1e4000ef          	jal	800083ec <softfloat_shiftRightJam32>
    8000820c:	07f57793          	and	a5,a0,127
    80008210:	2501                	sext.w	a0,a0
    80008212:	cf9d                	beqz	a5,80008250 <softfloat_roundPackToF32+0xf8>
    80008214:	00116773          	csrrs	a4,fflags,2
    80008218:	00a9093b          	addw	s2,s2,a0
    8000821c:	0079561b          	srlw	a2,s2,0x7
    80008220:	4581                	li	a1,0
    80008222:	b74d                	j	800081c4 <softfloat_roundPackToF32+0x6c>
    80008224:	00c9063b          	addw	a2,s2,a2
    80008228:	f8065be3          	bgez	a2,800081be <softfloat_roundPackToF32+0x66>
    8000822c:	b7b5                	j	80008198 <softfloat_roundPackToF32+0x40>
    8000822e:	07f00913          	li	s2,127
    80008232:	b7b9                	j	80008180 <softfloat_roundPackToF32+0x28>
    80008234:	00c907bb          	addw	a5,s2,a2
    80008238:	fc07d5e3          	bgez	a5,80008202 <softfloat_roundPackToF32+0xaa>
    8000823c:	4585                	li	a1,1
    8000823e:	8532                	mv	a0,a2
    80008240:	1ac000ef          	jal	800083ec <softfloat_shiftRightJam32>
    80008244:	07f57793          	and	a5,a0,127
    80008248:	0125063b          	addw	a2,a0,s2
    8000824c:	4581                	li	a1,0
    8000824e:	bf85                	j	800081be <softfloat_roundPackToF32+0x66>
    80008250:	00a9093b          	addw	s2,s2,a0
    80008254:	0079561b          	srlw	a2,s2,0x7
    80008258:	4581                	li	a1,0
    8000825a:	b751                	j	800081de <softfloat_roundPackToF32+0x86>

000000008000825c <softfloat_roundPackToF64>:
    8000825c:	1101                	add	sp,sp,-32
    8000825e:	e426                	sd	s1,8(sp)
    80008260:	0002049b          	sext.w	s1,tp
    80008264:	e822                	sd	s0,16(sp)
    80008266:	ec06                	sd	ra,24(sp)
    80008268:	e04a                	sd	s2,0(sp)
    8000826a:	ffb4f793          	and	a5,s1,-5
    8000826e:	842a                	mv	s0,a0
    80008270:	20000693          	li	a3,512
    80008274:	c799                	beqz	a5,80008282 <softfloat_roundPackToF64+0x26>
    80008276:	00153793          	seqz	a5,a0
    8000827a:	2789                	addw	a5,a5,2
    8000827c:	4681                	li	a3,0
    8000827e:	0a978a63          	beq	a5,s1,80008332 <softfloat_roundPackToF64+0xd6>
    80008282:	03059713          	sll	a4,a1,0x30
    80008286:	9341                	srl	a4,a4,0x30
    80008288:	7fc00513          	li	a0,2044
    8000828c:	3ff67793          	and	a5,a2,1023
    80008290:	02e57963          	bgeu	a0,a4,800082c2 <softfloat_roundPackToF64+0x66>
    80008294:	0605c563          	bltz	a1,800082fe <softfloat_roundPackToF64+0xa2>
    80008298:	7fd00713          	li	a4,2045
    8000829c:	08e58763          	beq	a1,a4,8000832a <softfloat_roundPackToF64+0xce>
    800082a0:	0012e7f3          	csrrs	a5,fflags,5
    800082a4:	7ff00793          	li	a5,2047
    800082a8:	60e2                	ld	ra,24(sp)
    800082aa:	03f41513          	sll	a0,s0,0x3f
    800082ae:	6442                	ld	s0,16(sp)
    800082b0:	17d2                	sll	a5,a5,0x34
    800082b2:	953e                	add	a0,a0,a5
    800082b4:	0016b693          	seqz	a3,a3
    800082b8:	64a2                	ld	s1,8(sp)
    800082ba:	6902                	ld	s2,0(sp)
    800082bc:	8d15                	sub	a0,a0,a3
    800082be:	6105                	add	sp,sp,32
    800082c0:	8082                	ret
    800082c2:	9636                	add	a2,a2,a3
    800082c4:	8229                	srl	a2,a2,0xa
    800082c6:	cf89                	beqz	a5,800082e0 <softfloat_roundPackToF64+0x84>
    800082c8:	0010e773          	csrrs	a4,fflags,1
    800082cc:	e0078793          	add	a5,a5,-512
    800082d0:	0017b793          	seqz	a5,a5
    800082d4:	0014b493          	seqz	s1,s1
    800082d8:	8cfd                	and	s1,s1,a5
    800082da:	fff4c493          	not	s1,s1
    800082de:	8e65                	and	a2,a2,s1
    800082e0:	4781                	li	a5,0
    800082e2:	ea19                	bnez	a2,800082f8 <softfloat_roundPackToF64+0x9c>
    800082e4:	60e2                	ld	ra,24(sp)
    800082e6:	03f41513          	sll	a0,s0,0x3f
    800082ea:	6442                	ld	s0,16(sp)
    800082ec:	9532                	add	a0,a0,a2
    800082ee:	64a2                	ld	s1,8(sp)
    800082f0:	6902                	ld	s2,0(sp)
    800082f2:	953e                	add	a0,a0,a5
    800082f4:	6105                	add	sp,sp,32
    800082f6:	8082                	ret
    800082f8:	03459793          	sll	a5,a1,0x34
    800082fc:	b7e5                	j	800082e4 <softfloat_roundPackToF64+0x88>
    800082fe:	02069913          	sll	s2,a3,0x20
    80008302:	57fd                	li	a5,-1
    80008304:	02095913          	srl	s2,s2,0x20
    80008308:	02f58863          	beq	a1,a5,80008338 <softfloat_roundPackToF64+0xdc>
    8000830c:	40b005bb          	negw	a1,a1
    80008310:	8532                	mv	a0,a2
    80008312:	0fe000ef          	jal	80008410 <softfloat_shiftRightJam64>
    80008316:	3ff57793          	and	a5,a0,1023
    8000831a:	cf8d                	beqz	a5,80008354 <softfloat_roundPackToF64+0xf8>
    8000831c:	00116773          	csrrs	a4,fflags,2
    80008320:	01250633          	add	a2,a0,s2
    80008324:	8229                	srl	a2,a2,0xa
    80008326:	4581                	li	a1,0
    80008328:	b745                	j	800082c8 <softfloat_roundPackToF64+0x6c>
    8000832a:	9636                	add	a2,a2,a3
    8000832c:	f8065ce3          	bgez	a2,800082c4 <softfloat_roundPackToF64+0x68>
    80008330:	bf85                	j	800082a0 <softfloat_roundPackToF64+0x44>
    80008332:	3ff00693          	li	a3,1023
    80008336:	b7b1                	j	80008282 <softfloat_roundPackToF64+0x26>
    80008338:	012607b3          	add	a5,a2,s2
    8000833c:	fc07d8e3          	bgez	a5,8000830c <softfloat_roundPackToF64+0xb0>
    80008340:	4585                	li	a1,1
    80008342:	8532                	mv	a0,a2
    80008344:	0cc000ef          	jal	80008410 <softfloat_shiftRightJam64>
    80008348:	3ff57793          	and	a5,a0,1023
    8000834c:	01250633          	add	a2,a0,s2
    80008350:	4581                	li	a1,0
    80008352:	bf8d                	j	800082c4 <softfloat_roundPackToF64+0x68>
    80008354:	01250633          	add	a2,a0,s2
    80008358:	8229                	srl	a2,a2,0xa
    8000835a:	4581                	li	a1,0
    8000835c:	b751                	j	800082e0 <softfloat_roundPackToF64+0x84>

000000008000835e <softfloat_shiftLeftM>:
    8000835e:	1101                	add	sp,sp,-32
    80008360:	e822                	sd	s0,16(sp)
    80008362:	e426                	sd	s1,8(sp)
    80008364:	ec06                	sd	ra,24(sp)
    80008366:	0056549b          	srlw	s1,a2,0x5
    8000836a:	87aa                	mv	a5,a0
    8000836c:	8436                	mv	s0,a3
    8000836e:	04a4f563          	bgeu	s1,a0,800083b8 <softfloat_shiftLeftM+0x5a>
    80008372:	0056569b          	srlw	a3,a2,0x5
    80008376:	40d5083b          	subw	a6,a0,a3
    8000837a:	8a7d                	and	a2,a2,31
    8000837c:	0008051b          	sext.w	a0,a6
    80008380:	ea39                	bnez	a2,800083d6 <softfloat_shiftLeftM+0x78>
    80008382:	37fd                	addw	a5,a5,-1
    80008384:	fff8069b          	addw	a3,a6,-1
    80008388:	02079613          	sll	a2,a5,0x20
    8000838c:	01e65793          	srl	a5,a2,0x1e
    80008390:	02069613          	sll	a2,a3,0x20
    80008394:	01e65693          	srl	a3,a2,0x1e
    80008398:	02081613          	sll	a2,a6,0x20
    8000839c:	872e                	mv	a4,a1
    8000839e:	97a2                	add	a5,a5,s0
    800083a0:	01e65593          	srl	a1,a2,0x1e
    800083a4:	9736                	add	a4,a4,a3
    800083a6:	40b785b3          	sub	a1,a5,a1
    800083aa:	4310                	lw	a2,0(a4)
    800083ac:	17f1                	add	a5,a5,-4
    800083ae:	1771                	add	a4,a4,-4
    800083b0:	c3d0                	sw	a2,4(a5)
    800083b2:	feb79ce3          	bne	a5,a1,800083aa <softfloat_shiftLeftM+0x4c>
    800083b6:	87a6                	mv	a5,s1
    800083b8:	fff7861b          	addw	a2,a5,-1
    800083bc:	8522                	mv	a0,s0
    800083be:	6442                	ld	s0,16(sp)
    800083c0:	60e2                	ld	ra,24(sp)
    800083c2:	64a2                	ld	s1,8(sp)
    800083c4:	02061793          	sll	a5,a2,0x20
    800083c8:	01e7d613          	srl	a2,a5,0x1e
    800083cc:	0611                	add	a2,a2,4 # ffffffff80000004 <_end+0xfffffffefffe8004>
    800083ce:	4581                	li	a1,0
    800083d0:	6105                	add	sp,sp,32
    800083d2:	28b0006f          	j	80008e5c <memset>
    800083d6:	1682                	sll	a3,a3,0x20
    800083d8:	82f9                	srl	a3,a3,0x1e
    800083da:	96a2                	add	a3,a3,s0
    800083dc:	11e000ef          	jal	800084fa <softfloat_shortShiftLeftM>
    800083e0:	f8f9                	bnez	s1,800083b6 <softfloat_shiftLeftM+0x58>
    800083e2:	60e2                	ld	ra,24(sp)
    800083e4:	6442                	ld	s0,16(sp)
    800083e6:	64a2                	ld	s1,8(sp)
    800083e8:	6105                	add	sp,sp,32
    800083ea:	8082                	ret

00000000800083ec <softfloat_shiftRightJam32>:
    800083ec:	47f9                	li	a5,30
    800083ee:	00b7ee63          	bltu	a5,a1,8000840a <softfloat_shiftRightJam32+0x1e>
    800083f2:	40b007bb          	negw	a5,a1
    800083f6:	00f517bb          	sllw	a5,a0,a5
    800083fa:	00f037b3          	snez	a5,a5
    800083fe:	00b5553b          	srlw	a0,a0,a1
    80008402:	8fc9                	or	a5,a5,a0
    80008404:	0007851b          	sext.w	a0,a5
    80008408:	8082                	ret
    8000840a:	00a03533          	snez	a0,a0
    8000840e:	8082                	ret

0000000080008410 <softfloat_shiftRightJam64>:
    80008410:	03e00793          	li	a5,62
    80008414:	00b7ec63          	bltu	a5,a1,8000842c <softfloat_shiftRightJam64+0x1c>
    80008418:	40b007bb          	negw	a5,a1
    8000841c:	00f517b3          	sll	a5,a0,a5
    80008420:	00f037b3          	snez	a5,a5
    80008424:	00b55533          	srl	a0,a0,a1
    80008428:	8d5d                	or	a0,a0,a5
    8000842a:	8082                	ret
    8000842c:	00a03533          	snez	a0,a0
    80008430:	8082                	ret

0000000080008432 <softfloat_shiftRightJamM>:
    80008432:	7179                	add	sp,sp,-48
    80008434:	f022                	sd	s0,32(sp)
    80008436:	e44e                	sd	s3,8(sp)
    80008438:	f406                	sd	ra,40(sp)
    8000843a:	ec26                	sd	s1,24(sp)
    8000843c:	e84a                	sd	s2,16(sp)
    8000843e:	0056541b          	srlw	s0,a2,0x5
    80008442:	882a                	mv	a6,a0
    80008444:	89b6                	mv	s3,a3
    80008446:	c851                	beqz	s0,800084da <softfloat_shiftRightJamM+0xa8>
    80008448:	0056549b          	srlw	s1,a2,0x5
    8000844c:	08856a63          	bltu	a0,s0,800084e0 <softfloat_shiftRightJamM+0xae>
    80008450:	fff4871b          	addw	a4,s1,-1
    80008454:	02071793          	sll	a5,a4,0x20
    80008458:	01e7d713          	srl	a4,a5,0x1e
    8000845c:	0711                	add	a4,a4,4
    8000845e:	972e                	add	a4,a4,a1
    80008460:	87ae                	mv	a5,a1
    80008462:	a019                	j	80008468 <softfloat_shiftRightJamM+0x36>
    80008464:	00e78563          	beq	a5,a4,8000846e <softfloat_shiftRightJamM+0x3c>
    80008468:	4380                	lw	s0,0(a5)
    8000846a:	0791                	add	a5,a5,4
    8000846c:	dc65                	beqz	s0,80008464 <softfloat_shiftRightJamM+0x32>
    8000846e:	854e                	mv	a0,s3
    80008470:	0304fd63          	bgeu	s1,a6,800084aa <softfloat_shiftRightJamM+0x78>
    80008474:	02049713          	sll	a4,s1,0x20
    80008478:	01e75793          	srl	a5,a4,0x1e
    8000847c:	4098093b          	subw	s2,a6,s1
    80008480:	8a7d                	and	a2,a2,31
    80008482:	95be                	add	a1,a1,a5
    80008484:	0009051b          	sext.w	a0,s2
    80008488:	ee39                	bnez	a2,800084e6 <softfloat_shiftRightJamM+0xb4>
    8000848a:	02091513          	sll	a0,s2,0x20
    8000848e:	9101                	srl	a0,a0,0x20
    80008490:	00251693          	sll	a3,a0,0x2
    80008494:	96ce                	add	a3,a3,s3
    80008496:	87ce                	mv	a5,s3
    80008498:	4198                	lw	a4,0(a1)
    8000849a:	0791                	add	a5,a5,4
    8000849c:	0591                	add	a1,a1,4
    8000849e:	fee7ae23          	sw	a4,-4(a5)
    800084a2:	fed79be3          	bne	a5,a3,80008498 <softfloat_shiftRightJamM+0x66>
    800084a6:	050a                	sll	a0,a0,0x2
    800084a8:	954e                	add	a0,a0,s3
    800084aa:	fff4861b          	addw	a2,s1,-1
    800084ae:	02061793          	sll	a5,a2,0x20
    800084b2:	01e7d613          	srl	a2,a5,0x1e
    800084b6:	0611                	add	a2,a2,4
    800084b8:	4581                	li	a1,0
    800084ba:	1a3000ef          	jal	80008e5c <memset>
    800084be:	c419                	beqz	s0,800084cc <softfloat_shiftRightJamM+0x9a>
    800084c0:	0009a783          	lw	a5,0(s3)
    800084c4:	0017e793          	or	a5,a5,1
    800084c8:	00f9a023          	sw	a5,0(s3)
    800084cc:	70a2                	ld	ra,40(sp)
    800084ce:	7402                	ld	s0,32(sp)
    800084d0:	64e2                	ld	s1,24(sp)
    800084d2:	6942                	ld	s2,16(sp)
    800084d4:	69a2                	ld	s3,8(sp)
    800084d6:	6145                	add	sp,sp,48
    800084d8:	8082                	ret
    800084da:	4481                	li	s1,0
    800084dc:	4501                	li	a0,0
    800084de:	bf49                	j	80008470 <softfloat_shiftRightJamM+0x3e>
    800084e0:	0005049b          	sext.w	s1,a0
    800084e4:	b7b5                	j	80008450 <softfloat_shiftRightJamM+0x1e>
    800084e6:	86ce                	mv	a3,s3
    800084e8:	0d2000ef          	jal	800085ba <softfloat_shortShiftRightJamM>
    800084ec:	d8e9                	beqz	s1,800084be <softfloat_shiftRightJamM+0x8c>
    800084ee:	02091513          	sll	a0,s2,0x20
    800084f2:	9101                	srl	a0,a0,0x20
    800084f4:	050a                	sll	a0,a0,0x2
    800084f6:	954e                	add	a0,a0,s3
    800084f8:	bf4d                	j	800084aa <softfloat_shiftRightJamM+0x78>

00000000800084fa <softfloat_shortShiftLeftM>:
    800084fa:	fff5079b          	addw	a5,a0,-1
    800084fe:	02079713          	sll	a4,a5,0x20
    80008502:	01e75813          	srl	a6,a4,0x1e
    80008506:	01058733          	add	a4,a1,a6
    8000850a:	4318                	lw	a4,0(a4)
    8000850c:	40c00e3b          	negw	t3,a2
    80008510:	00c7173b          	sllw	a4,a4,a2
    80008514:	cb95                	beqz	a5,80008548 <softfloat_shortShiftLeftM+0x4e>
    80008516:	ffe5079b          	addw	a5,a0,-2
    8000851a:	02079513          	sll	a0,a5,0x20
    8000851e:	01e55793          	srl	a5,a0,0x1e
    80008522:	01fe7e13          	and	t3,t3,31
    80008526:	97ae                	add	a5,a5,a1
    80008528:	01068533          	add	a0,a3,a6
    8000852c:	0007a803          	lw	a6,0(a5)
    80008530:	1571                	add	a0,a0,-4
    80008532:	88be                	mv	a7,a5
    80008534:	01c8533b          	srlw	t1,a6,t3
    80008538:	00676733          	or	a4,a4,t1
    8000853c:	c158                	sw	a4,4(a0)
    8000853e:	17f1                	add	a5,a5,-4
    80008540:	00c8173b          	sllw	a4,a6,a2
    80008544:	ff1594e3          	bne	a1,a7,8000852c <softfloat_shortShiftLeftM+0x32>
    80008548:	c298                	sw	a4,0(a3)
    8000854a:	8082                	ret

000000008000854c <softfloat_shortShiftRightM>:
    8000854c:	419c                	lw	a5,0(a1)
    8000854e:	fff50e1b          	addw	t3,a0,-1
    80008552:	000e071b          	sext.w	a4,t3
    80008556:	40c0033b          	negw	t1,a2
    8000855a:	00c7d7bb          	srlw	a5,a5,a2
    8000855e:	c321                	beqz	a4,8000859e <softfloat_shortShiftRightM+0x52>
    80008560:	ffe5081b          	addw	a6,a0,-2
    80008564:	02081713          	sll	a4,a6,0x20
    80008568:	01e75813          	srl	a6,a4,0x1e
    8000856c:	00858513          	add	a0,a1,8
    80008570:	01f37313          	and	t1,t1,31
    80008574:	0591                	add	a1,a1,4
    80008576:	8736                	mv	a4,a3
    80008578:	982a                	add	a6,a6,a0
    8000857a:	4188                	lw	a0,0(a1)
    8000857c:	0711                	add	a4,a4,4
    8000857e:	0591                	add	a1,a1,4
    80008580:	006518bb          	sllw	a7,a0,t1
    80008584:	0117e7b3          	or	a5,a5,a7
    80008588:	fef72e23          	sw	a5,-4(a4)
    8000858c:	00c557bb          	srlw	a5,a0,a2
    80008590:	feb815e3          	bne	a6,a1,8000857a <softfloat_shortShiftRightM+0x2e>
    80008594:	020e1713          	sll	a4,t3,0x20
    80008598:	01e75e13          	srl	t3,a4,0x1e
    8000859c:	96f2                	add	a3,a3,t3
    8000859e:	c29c                	sw	a5,0(a3)
    800085a0:	8082                	ret

00000000800085a2 <softfloat_shortShiftRightJam64>:
    800085a2:	57fd                	li	a5,-1
    800085a4:	00b797b3          	sll	a5,a5,a1
    800085a8:	fff7c793          	not	a5,a5
    800085ac:	8fe9                	and	a5,a5,a0
    800085ae:	00f037b3          	snez	a5,a5
    800085b2:	00b55533          	srl	a0,a0,a1
    800085b6:	8d5d                	or	a0,a0,a5
    800085b8:	8082                	ret

00000000800085ba <softfloat_shortShiftRightJamM>:
    800085ba:	0005a803          	lw	a6,0(a1)
    800085be:	fff50e1b          	addw	t3,a0,-1
    800085c2:	40c0033b          	negw	t1,a2
    800085c6:	00c8573b          	srlw	a4,a6,a2
    800085ca:	00c71ebb          	sllw	t4,a4,a2
    800085ce:	000e089b          	sext.w	a7,t3
    800085d2:	0007079b          	sext.w	a5,a4
    800085d6:	010e8663          	beq	t4,a6,800085e2 <softfloat_shortShiftRightJamM+0x28>
    800085da:	00176713          	or	a4,a4,1
    800085de:	0007079b          	sext.w	a5,a4
    800085e2:	04088163          	beqz	a7,80008624 <softfloat_shortShiftRightJamM+0x6a>
    800085e6:	ffe5081b          	addw	a6,a0,-2
    800085ea:	02081713          	sll	a4,a6,0x20
    800085ee:	01e75813          	srl	a6,a4,0x1e
    800085f2:	00858513          	add	a0,a1,8
    800085f6:	01f37313          	and	t1,t1,31
    800085fa:	0591                	add	a1,a1,4
    800085fc:	8736                	mv	a4,a3
    800085fe:	982a                	add	a6,a6,a0
    80008600:	4188                	lw	a0,0(a1)
    80008602:	0711                	add	a4,a4,4
    80008604:	0591                	add	a1,a1,4
    80008606:	006518bb          	sllw	a7,a0,t1
    8000860a:	0117e7b3          	or	a5,a5,a7
    8000860e:	fef72e23          	sw	a5,-4(a4)
    80008612:	00c557bb          	srlw	a5,a0,a2
    80008616:	feb815e3          	bne	a6,a1,80008600 <softfloat_shortShiftRightJamM+0x46>
    8000861a:	020e1713          	sll	a4,t3,0x20
    8000861e:	01e75e13          	srl	t3,a4,0x1e
    80008622:	96f2                	add	a3,a3,t3
    80008624:	c29c                	sw	a5,0(a3)
    80008626:	8082                	ret

0000000080008628 <softfloat_subM>:
    80008628:	0005a803          	lw	a6,0(a1)
    8000862c:	4218                	lw	a4,0(a2)
    8000862e:	40e807bb          	subw	a5,a6,a4
    80008632:	c29c                	sw	a5,0(a3)
    80008634:	4785                	li	a5,1
    80008636:	04f50663          	beq	a0,a5,80008682 <softfloat_subM+0x5a>
    8000863a:	ffe5089b          	addw	a7,a0,-2
    8000863e:	02089793          	sll	a5,a7,0x20
    80008642:	01e7d893          	srl	a7,a5,0x1e
    80008646:	00858793          	add	a5,a1,8
    8000864a:	0611                	add	a2,a2,4
    8000864c:	0591                	add	a1,a1,4
    8000864e:	0691                	add	a3,a3,4
    80008650:	98be                	add	a7,a7,a5
    80008652:	4501                	li	a0,0
    80008654:	a839                	j	80008672 <softfloat_subM+0x4a>
    80008656:	0007851b          	sext.w	a0,a5
    8000865a:	0005a803          	lw	a6,0(a1)
    8000865e:	4218                	lw	a4,0(a2)
    80008660:	0591                	add	a1,a1,4
    80008662:	0611                	add	a2,a2,4
    80008664:	40e807bb          	subw	a5,a6,a4
    80008668:	9f89                	subw	a5,a5,a0
    8000866a:	c29c                	sw	a5,0(a3)
    8000866c:	0691                	add	a3,a3,4
    8000866e:	00b88a63          	beq	a7,a1,80008682 <softfloat_subM+0x5a>
    80008672:	010737b3          	sltu	a5,a4,a6
    80008676:	0017c793          	xor	a5,a5,1
    8000867a:	fd71                	bnez	a0,80008656 <softfloat_subM+0x2e>
    8000867c:	00e83533          	sltu	a0,a6,a4
    80008680:	bfe9                	j	8000865a <softfloat_subM+0x32>
    80008682:	8082                	ret

0000000080008684 <softfloat_subMagsF32>:
    80008684:	7179                	add	sp,sp,-48
    80008686:	0175569b          	srlw	a3,a0,0x17
    8000868a:	0175d71b          	srlw	a4,a1,0x17
    8000868e:	008007b7          	lui	a5,0x800
    80008692:	17fd                	add	a5,a5,-1 # 7fffff <_ftext-0x7f800001>
    80008694:	0ff6fe13          	zext.b	t3,a3
    80008698:	e84a                	sd	s2,16(sp)
    8000869a:	0ff77813          	zext.b	a6,a4
    8000869e:	f406                	sd	ra,40(sp)
    800086a0:	f022                	sd	s0,32(sp)
    800086a2:	ec26                	sd	s1,24(sp)
    800086a4:	e44e                	sd	s3,8(sp)
    800086a6:	00f576b3          	and	a3,a0,a5
    800086aa:	00f5f633          	and	a2,a1,a5
    800086ae:	410e093b          	subw	s2,t3,a6
    800086b2:	050e1f63          	bne	t3,a6,80008710 <softfloat_subMagsF32+0x8c>
    800086b6:	0ff00713          	li	a4,255
    800086ba:	0eee0063          	beq	t3,a4,8000879a <softfloat_subMagsF32+0x116>
    800086be:	40c687bb          	subw	a5,a3,a2
    800086c2:	86be                	mv	a3,a5
    800086c4:	84be                	mv	s1,a5
    800086c6:	0e078d63          	beqz	a5,800087c0 <softfloat_subMagsF32+0x13c>
    800086ca:	000e0463          	beqz	t3,800086d2 <softfloat_subMagsF32+0x4e>
    800086ce:	fffe091b          	addw	s2,t3,-1
    800086d2:	0005041b          	sext.w	s0,a0
    800086d6:	1207c763          	bltz	a5,80008804 <softfloat_subMagsF32+0x180>
    800086da:	01f4541b          	srlw	s0,s0,0x1f
    800086de:	853e                	mv	a0,a5
    800086e0:	384000ef          	jal	80008a64 <softfloat_countLeadingZeros32>
    800086e4:	3561                	addw	a0,a0,-8
    800086e6:	40a906bb          	subw	a3,s2,a0
    800086ea:	4781                	li	a5,0
    800086ec:	0006c563          	bltz	a3,800086f6 <softfloat_subMagsF32+0x72>
    800086f0:	0176979b          	sllw	a5,a3,0x17
    800086f4:	892a                	mv	s2,a0
    800086f6:	70a2                	ld	ra,40(sp)
    800086f8:	01f4151b          	sllw	a0,s0,0x1f
    800086fc:	7402                	ld	s0,32(sp)
    800086fe:	012494bb          	sllw	s1,s1,s2
    80008702:	9d3d                	addw	a0,a0,a5
    80008704:	6942                	ld	s2,16(sp)
    80008706:	69a2                	ld	s3,8(sp)
    80008708:	9d25                	addw	a0,a0,s1
    8000870a:	64e2                	ld	s1,24(sp)
    8000870c:	6145                	add	sp,sp,48
    8000870e:	8082                	ret
    80008710:	0076969b          	sllw	a3,a3,0x7
    80008714:	0076161b          	sllw	a2,a2,0x7
    80008718:	8742                	mv	a4,a6
    8000871a:	0005079b          	sext.w	a5,a0
    8000871e:	00068e9b          	sext.w	t4,a3
    80008722:	0006089b          	sext.w	a7,a2
    80008726:	04094263          	bltz	s2,8000876a <softfloat_subMagsF32+0xe6>
    8000872a:	0ff00813          	li	a6,255
    8000872e:	0b0e0763          	beq	t3,a6,800087dc <softfloat_subMagsF32+0x158>
    80008732:	400005b7          	lui	a1,0x40000
    80008736:	8ecd                	or	a3,a3,a1
    80008738:	fffe049b          	addw	s1,t3,-1
    8000873c:	0006899b          	sext.w	s3,a3
    80008740:	c319                	beqz	a4,80008746 <softfloat_subMagsF32+0xc2>
    80008742:	400008b7          	lui	a7,0x40000
    80008746:	01f7d41b          	srlw	s0,a5,0x1f
    8000874a:	0116053b          	addw	a0,a2,a7
    8000874e:	85ca                	mv	a1,s2
    80008750:	c9dff0ef          	jal	800083ec <softfloat_shiftRightJam32>
    80008754:	40a9863b          	subw	a2,s3,a0
    80008758:	8522                	mv	a0,s0
    8000875a:	7402                	ld	s0,32(sp)
    8000875c:	70a2                	ld	ra,40(sp)
    8000875e:	6942                	ld	s2,16(sp)
    80008760:	69a2                	ld	s3,8(sp)
    80008762:	85a6                	mv	a1,s1
    80008764:	64e2                	ld	s1,24(sp)
    80008766:	6145                	add	sp,sp,48
    80008768:	ae8d                	j	80008ada <softfloat_normRoundPackToF32>
    8000876a:	fff7c793          	not	a5,a5
    8000876e:	0ff00f13          	li	t5,255
    80008772:	01f7d41b          	srlw	s0,a5,0x1f
    80008776:	07e80f63          	beq	a6,t5,800087f4 <softfloat_subMagsF32+0x170>
    8000877a:	400007b7          	lui	a5,0x40000
    8000877e:	8e5d                	or	a2,a2,a5
    80008780:	fff8049b          	addw	s1,a6,-1
    80008784:	0006099b          	sext.w	s3,a2
    80008788:	40000537          	lui	a0,0x40000
    8000878c:	000e1363          	bnez	t3,80008792 <softfloat_subMagsF32+0x10e>
    80008790:	8576                	mv	a0,t4
    80008792:	9d35                	addw	a0,a0,a3
    80008794:	41c8093b          	subw	s2,a6,t3
    80008798:	bf5d                	j	8000874e <softfloat_subMagsF32+0xca>
    8000879a:	88aa                	mv	a7,a0
    8000879c:	0115e8b3          	or	a7,a1,a7
    800087a0:	00f8f8b3          	and	a7,a7,a5
    800087a4:	2881                	sext.w	a7,a7
    800087a6:	02089d63          	bnez	a7,800087e0 <softfloat_subMagsF32+0x15c>
    800087aa:	001867f3          	csrrs	a5,fflags,16
    800087ae:	7fc00537          	lui	a0,0x7fc00
    800087b2:	70a2                	ld	ra,40(sp)
    800087b4:	7402                	ld	s0,32(sp)
    800087b6:	64e2                	ld	s1,24(sp)
    800087b8:	6942                	ld	s2,16(sp)
    800087ba:	69a2                	ld	s3,8(sp)
    800087bc:	6145                	add	sp,sp,48
    800087be:	8082                	ret
    800087c0:	70a2                	ld	ra,40(sp)
    800087c2:	7402                	ld	s0,32(sp)
    800087c4:	0002051b          	sext.w	a0,tp
    800087c8:	1579                	add	a0,a0,-2 # 7fbffffe <_ftext-0x400002>
    800087ca:	00153513          	seqz	a0,a0
    800087ce:	64e2                	ld	s1,24(sp)
    800087d0:	6942                	ld	s2,16(sp)
    800087d2:	69a2                	ld	s3,8(sp)
    800087d4:	01f5151b          	sllw	a0,a0,0x1f
    800087d8:	6145                	add	sp,sp,48
    800087da:	8082                	ret
    800087dc:	fc0e8be3          	beqz	t4,800087b2 <softfloat_subMagsF32+0x12e>
    800087e0:	1be000ef          	jal	8000899e <softfloat_propagateNaNF32UI>
    800087e4:	70a2                	ld	ra,40(sp)
    800087e6:	7402                	ld	s0,32(sp)
    800087e8:	64e2                	ld	s1,24(sp)
    800087ea:	6942                	ld	s2,16(sp)
    800087ec:	69a2                	ld	s3,8(sp)
    800087ee:	2501                	sext.w	a0,a0
    800087f0:	6145                	add	sp,sp,48
    800087f2:	8082                	ret
    800087f4:	fe0896e3          	bnez	a7,800087e0 <softfloat_subMagsF32+0x15c>
    800087f8:	01f4179b          	sllw	a5,s0,0x1f
    800087fc:	7f800537          	lui	a0,0x7f800
    80008800:	9d3d                	addw	a0,a0,a5
    80008802:	bf45                	j	800087b2 <softfloat_subMagsF32+0x12e>
    80008804:	fff44513          	not	a0,s0
    80008808:	40d004bb          	negw	s1,a3
    8000880c:	01f5541b          	srlw	s0,a0,0x1f
    80008810:	87a6                	mv	a5,s1
    80008812:	b5f1                	j	800086de <softfloat_subMagsF32+0x5a>

0000000080008814 <softfloat_subMagsF64>:
    80008814:	7179                	add	sp,sp,-48
    80008816:	f022                	sd	s0,32(sp)
    80008818:	ec26                	sd	s1,24(sp)
    8000881a:	03455413          	srl	s0,a0,0x34
    8000881e:	0345d493          	srl	s1,a1,0x34
    80008822:	57fd                	li	a5,-1
    80008824:	83b1                	srl	a5,a5,0xc
    80008826:	e44e                	sd	s3,8(sp)
    80008828:	7ff47413          	and	s0,s0,2047
    8000882c:	7ff4f493          	and	s1,s1,2047
    80008830:	f406                	sd	ra,40(sp)
    80008832:	e84a                	sd	s2,16(sp)
    80008834:	e052                	sd	s4,0(sp)
    80008836:	89b2                	mv	s3,a2
    80008838:	00f57733          	and	a4,a0,a5
    8000883c:	00f5f6b3          	and	a3,a1,a5
    80008840:	4094063b          	subw	a2,s0,s1
    80008844:	04941d63          	bne	s0,s1,8000889e <softfloat_subMagsF64+0x8a>
    80008848:	7ff00613          	li	a2,2047
    8000884c:	0cc40163          	beq	s0,a2,8000890e <softfloat_subMagsF64+0xfa>
    80008850:	40d704b3          	sub	s1,a4,a3
    80008854:	0cd70e63          	beq	a4,a3,80008930 <softfloat_subMagsF64+0x11c>
    80008858:	c011                	beqz	s0,8000885c <softfloat_subMagsF64+0x48>
    8000885a:	347d                	addw	s0,s0,-1
    8000885c:	0004d663          	bgez	s1,80008868 <softfloat_subMagsF64+0x54>
    80008860:	0019c993          	xor	s3,s3,1
    80008864:	409004b3          	neg	s1,s1
    80008868:	8526                	mv	a0,s1
    8000886a:	22c000ef          	jal	80008a96 <softfloat_countLeadingZeros64>
    8000886e:	3555                	addw	a0,a0,-11 # 7f7ffff5 <_ftext-0x80000b>
    80008870:	40a4073b          	subw	a4,s0,a0
    80008874:	4781                	li	a5,0
    80008876:	00074563          	bltz	a4,80008880 <softfloat_subMagsF64+0x6c>
    8000887a:	03471793          	sll	a5,a4,0x34
    8000887e:	842a                	mv	s0,a0
    80008880:	008494b3          	sll	s1,s1,s0
    80008884:	70a2                	ld	ra,40(sp)
    80008886:	7402                	ld	s0,32(sp)
    80008888:	03f99613          	sll	a2,s3,0x3f
    8000888c:	00f60533          	add	a0,a2,a5
    80008890:	6942                	ld	s2,16(sp)
    80008892:	69a2                	ld	s3,8(sp)
    80008894:	6a02                	ld	s4,0(sp)
    80008896:	9526                	add	a0,a0,s1
    80008898:	64e2                	ld	s1,24(sp)
    8000889a:	6145                	add	sp,sp,48
    8000889c:	8082                	ret
    8000889e:	00a71913          	sll	s2,a4,0xa
    800088a2:	00a69a13          	sll	s4,a3,0xa
    800088a6:	7ff00793          	li	a5,2047
    800088aa:	02064d63          	bltz	a2,800088e4 <softfloat_subMagsF64+0xd0>
    800088ae:	08f40f63          	beq	s0,a5,8000894c <softfloat_subMagsF64+0x138>
    800088b2:	8552                	mv	a0,s4
    800088b4:	c099                	beqz	s1,800088ba <softfloat_subMagsF64+0xa6>
    800088b6:	4505                	li	a0,1
    800088b8:	157a                	sll	a0,a0,0x3e
    800088ba:	85b2                	mv	a1,a2
    800088bc:	9552                	add	a0,a0,s4
    800088be:	b53ff0ef          	jal	80008410 <softfloat_shiftRightJam64>
    800088c2:	4785                	li	a5,1
    800088c4:	17fa                	sll	a5,a5,0x3e
    800088c6:	00f96733          	or	a4,s2,a5
    800088ca:	40a70633          	sub	a2,a4,a0
    800088ce:	fff4059b          	addw	a1,s0,-1
    800088d2:	7402                	ld	s0,32(sp)
    800088d4:	70a2                	ld	ra,40(sp)
    800088d6:	64e2                	ld	s1,24(sp)
    800088d8:	6942                	ld	s2,16(sp)
    800088da:	6a02                	ld	s4,0(sp)
    800088dc:	854e                	mv	a0,s3
    800088de:	69a2                	ld	s3,8(sp)
    800088e0:	6145                	add	sp,sp,48
    800088e2:	a485                	j	80008b42 <softfloat_normRoundPackToF64>
    800088e4:	0019c993          	xor	s3,s3,1
    800088e8:	06f48e63          	beq	s1,a5,80008964 <softfloat_subMagsF64+0x150>
    800088ec:	854a                	mv	a0,s2
    800088ee:	c019                	beqz	s0,800088f4 <softfloat_subMagsF64+0xe0>
    800088f0:	4505                	li	a0,1
    800088f2:	157a                	sll	a0,a0,0x3e
    800088f4:	408485bb          	subw	a1,s1,s0
    800088f8:	954a                	add	a0,a0,s2
    800088fa:	b17ff0ef          	jal	80008410 <softfloat_shiftRightJam64>
    800088fe:	4785                	li	a5,1
    80008900:	17fa                	sll	a5,a5,0x3e
    80008902:	00fa66b3          	or	a3,s4,a5
    80008906:	40a68633          	sub	a2,a3,a0
    8000890a:	8426                	mv	s0,s1
    8000890c:	b7c9                	j	800088ce <softfloat_subMagsF64+0xba>
    8000890e:	00b56733          	or	a4,a0,a1
    80008912:	8ff9                	and	a5,a5,a4
    80008914:	ef95                	bnez	a5,80008950 <softfloat_subMagsF64+0x13c>
    80008916:	001867f3          	csrrs	a5,fflags,16
    8000891a:	00fff537          	lui	a0,0xfff
    8000891e:	151e                	sll	a0,a0,0x27
    80008920:	70a2                	ld	ra,40(sp)
    80008922:	7402                	ld	s0,32(sp)
    80008924:	64e2                	ld	s1,24(sp)
    80008926:	6942                	ld	s2,16(sp)
    80008928:	69a2                	ld	s3,8(sp)
    8000892a:	6a02                	ld	s4,0(sp)
    8000892c:	6145                	add	sp,sp,48
    8000892e:	8082                	ret
    80008930:	70a2                	ld	ra,40(sp)
    80008932:	7402                	ld	s0,32(sp)
    80008934:	0002051b          	sext.w	a0,tp
    80008938:	1579                	add	a0,a0,-2 # ffeffe <_ftext-0x7f001002>
    8000893a:	00153513          	seqz	a0,a0
    8000893e:	64e2                	ld	s1,24(sp)
    80008940:	6942                	ld	s2,16(sp)
    80008942:	69a2                	ld	s3,8(sp)
    80008944:	6a02                	ld	s4,0(sp)
    80008946:	157e                	sll	a0,a0,0x3f
    80008948:	6145                	add	sp,sp,48
    8000894a:	8082                	ret
    8000894c:	fc090ae3          	beqz	s2,80008920 <softfloat_subMagsF64+0x10c>
    80008950:	088000ef          	jal	800089d8 <softfloat_propagateNaNF64UI>
    80008954:	70a2                	ld	ra,40(sp)
    80008956:	7402                	ld	s0,32(sp)
    80008958:	64e2                	ld	s1,24(sp)
    8000895a:	6942                	ld	s2,16(sp)
    8000895c:	69a2                	ld	s3,8(sp)
    8000895e:	6a02                	ld	s4,0(sp)
    80008960:	6145                	add	sp,sp,48
    80008962:	8082                	ret
    80008964:	fe0a16e3          	bnez	s4,80008950 <softfloat_subMagsF64+0x13c>
    80008968:	03f99513          	sll	a0,s3,0x3f
    8000896c:	14d2                	sll	s1,s1,0x34
    8000896e:	9526                	add	a0,a0,s1
    80008970:	bf45                	j	80008920 <softfloat_subMagsF64+0x10c>

0000000080008972 <ui64_to_f64>:
    80008972:	c50d                	beqz	a0,8000899c <ui64_to_f64+0x2a>
    80008974:	862a                	mv	a2,a0
    80008976:	00054663          	bltz	a0,80008982 <ui64_to_f64+0x10>
    8000897a:	43c00593          	li	a1,1084
    8000897e:	4501                	li	a0,0
    80008980:	a2c9                	j	80008b42 <softfloat_normRoundPackToF64>
    80008982:	1141                	add	sp,sp,-16
    80008984:	4585                	li	a1,1
    80008986:	e406                	sd	ra,8(sp)
    80008988:	c1bff0ef          	jal	800085a2 <softfloat_shortShiftRightJam64>
    8000898c:	60a2                	ld	ra,8(sp)
    8000898e:	862a                	mv	a2,a0
    80008990:	43d00593          	li	a1,1085
    80008994:	4501                	li	a0,0
    80008996:	0141                	add	sp,sp,16
    80008998:	8c5ff06f          	j	8000825c <softfloat_roundPackToF64>
    8000899c:	8082                	ret

000000008000899e <softfloat_propagateNaNF32UI>:
    8000899e:	7fc007b7          	lui	a5,0x7fc00
    800089a2:	8fe9                	and	a5,a5,a0
    800089a4:	7f800737          	lui	a4,0x7f800
    800089a8:	00e78c63          	beq	a5,a4,800089c0 <softfloat_propagateNaNF32UI+0x22>
    800089ac:	7fc007b7          	lui	a5,0x7fc00
    800089b0:	8fed                	and	a5,a5,a1
    800089b2:	7f800737          	lui	a4,0x7f800
    800089b6:	00e78c63          	beq	a5,a4,800089ce <softfloat_propagateNaNF32UI+0x30>
    800089ba:	7fc00537          	lui	a0,0x7fc00
    800089be:	8082                	ret
    800089c0:	152a                	sll	a0,a0,0x2a
    800089c2:	d56d                	beqz	a0,800089ac <softfloat_propagateNaNF32UI+0xe>
    800089c4:	001867f3          	csrrs	a5,fflags,16
    800089c8:	7fc00537          	lui	a0,0x7fc00
    800089cc:	8082                	ret
    800089ce:	15aa                	sll	a1,a1,0x2a
    800089d0:	d5ed                	beqz	a1,800089ba <softfloat_propagateNaNF32UI+0x1c>
    800089d2:	001867f3          	csrrs	a5,fflags,16
    800089d6:	bfcd                	j	800089c8 <softfloat_propagateNaNF32UI+0x2a>

00000000800089d8 <softfloat_propagateNaNF64UI>:
    800089d8:	00fff7b7          	lui	a5,0xfff
    800089dc:	179e                	sll	a5,a5,0x27
    800089de:	7ff00713          	li	a4,2047
    800089e2:	8fe9                	and	a5,a5,a0
    800089e4:	1752                	sll	a4,a4,0x34
    800089e6:	00e78f63          	beq	a5,a4,80008a04 <softfloat_propagateNaNF64UI+0x2c>
    800089ea:	00fff7b7          	lui	a5,0xfff
    800089ee:	179e                	sll	a5,a5,0x27
    800089f0:	7ff00713          	li	a4,2047
    800089f4:	8fed                	and	a5,a5,a1
    800089f6:	1752                	sll	a4,a4,0x34
    800089f8:	00e78e63          	beq	a5,a4,80008a14 <softfloat_propagateNaNF64UI+0x3c>
    800089fc:	00fff537          	lui	a0,0xfff
    80008a00:	151e                	sll	a0,a0,0x27
    80008a02:	8082                	ret
    80008a04:	0536                	sll	a0,a0,0xd
    80008a06:	d175                	beqz	a0,800089ea <softfloat_propagateNaNF64UI+0x12>
    80008a08:	001867f3          	csrrs	a5,fflags,16
    80008a0c:	00fff537          	lui	a0,0xfff
    80008a10:	151e                	sll	a0,a0,0x27
    80008a12:	8082                	ret
    80008a14:	05b6                	sll	a1,a1,0xd
    80008a16:	d1fd                	beqz	a1,800089fc <softfloat_propagateNaNF64UI+0x24>
    80008a18:	001867f3          	csrrs	a5,fflags,16
    80008a1c:	bfc5                	j	80008a0c <softfloat_propagateNaNF64UI+0x34>

0000000080008a1e <softfloat_addM>:
    80008a1e:	4198                	lw	a4,0(a1)
    80008a20:	421c                	lw	a5,0(a2)
    80008a22:	4805                	li	a6,1
    80008a24:	9fb9                	addw	a5,a5,a4
    80008a26:	c29c                	sw	a5,0(a3)
    80008a28:	03050d63          	beq	a0,a6,80008a62 <softfloat_addM+0x44>
    80008a2c:	3579                	addw	a0,a0,-2 # ffeffe <_ftext-0x7f001002>
    80008a2e:	02051813          	sll	a6,a0,0x20
    80008a32:	01e85513          	srl	a0,a6,0x1e
    80008a36:	00858813          	add	a6,a1,8 # 40000008 <_ftext-0x3ffffff8>
    80008a3a:	9542                	add	a0,a0,a6
    80008a3c:	0591                	add	a1,a1,4
    80008a3e:	0611                	add	a2,a2,4
    80008a40:	0691                	add	a3,a3,4
    80008a42:	4801                	li	a6,0
    80008a44:	00e78463          	beq	a5,a4,80008a4c <softfloat_addM+0x2e>
    80008a48:	00e7b833          	sltu	a6,a5,a4
    80008a4c:	4198                	lw	a4,0(a1)
    80008a4e:	421c                	lw	a5,0(a2)
    80008a50:	0591                	add	a1,a1,4
    80008a52:	0611                	add	a2,a2,4
    80008a54:	9fb9                	addw	a5,a5,a4
    80008a56:	010787bb          	addw	a5,a5,a6
    80008a5a:	c29c                	sw	a5,0(a3)
    80008a5c:	0691                	add	a3,a3,4
    80008a5e:	fea593e3          	bne	a1,a0,80008a44 <softfloat_addM+0x26>
    80008a62:	8082                	ret

0000000080008a64 <softfloat_countLeadingZeros32>:
    80008a64:	67c1                	lui	a5,0x10
    80008a66:	4701                	li	a4,0
    80008a68:	00f57563          	bgeu	a0,a5,80008a72 <softfloat_countLeadingZeros32+0xe>
    80008a6c:	0105151b          	sllw	a0,a0,0x10
    80008a70:	4741                	li	a4,16
    80008a72:	010007b7          	lui	a5,0x1000
    80008a76:	00f57563          	bgeu	a0,a5,80008a80 <softfloat_countLeadingZeros32+0x1c>
    80008a7a:	0085151b          	sllw	a0,a0,0x8
    80008a7e:	2721                	addw	a4,a4,8 # 7f800008 <_ftext-0x7ffff8>
    80008a80:	0185551b          	srlw	a0,a0,0x18
    80008a84:	00001797          	auipc	a5,0x1
    80008a88:	1b478793          	add	a5,a5,436 # 80009c38 <softfloat_countLeadingZeros8>
    80008a8c:	97aa                	add	a5,a5,a0
    80008a8e:	0007c503          	lbu	a0,0(a5)
    80008a92:	9d39                	addw	a0,a0,a4
    80008a94:	8082                	ret

0000000080008a96 <softfloat_countLeadingZeros64>:
    80008a96:	02055793          	srl	a5,a0,0x20
    80008a9a:	cb9d                	beqz	a5,80008ad0 <softfloat_countLeadingZeros64+0x3a>
    80008a9c:	2781                	sext.w	a5,a5
    80008a9e:	4701                	li	a4,0
    80008aa0:	66c1                	lui	a3,0x10
    80008aa2:	00d7f563          	bgeu	a5,a3,80008aac <softfloat_countLeadingZeros64+0x16>
    80008aa6:	0107979b          	sllw	a5,a5,0x10
    80008aaa:	2741                	addw	a4,a4,16
    80008aac:	010006b7          	lui	a3,0x1000
    80008ab0:	00d7f563          	bgeu	a5,a3,80008aba <softfloat_countLeadingZeros64+0x24>
    80008ab4:	0087979b          	sllw	a5,a5,0x8
    80008ab8:	2721                	addw	a4,a4,8
    80008aba:	00001697          	auipc	a3,0x1
    80008abe:	17e68693          	add	a3,a3,382 # 80009c38 <softfloat_countLeadingZeros8>
    80008ac2:	0187d79b          	srlw	a5,a5,0x18
    80008ac6:	97b6                	add	a5,a5,a3
    80008ac8:	0007c503          	lbu	a0,0(a5)
    80008acc:	9d39                	addw	a0,a0,a4
    80008ace:	8082                	ret
    80008ad0:	0005079b          	sext.w	a5,a0
    80008ad4:	02000713          	li	a4,32
    80008ad8:	b7e1                	j	80008aa0 <softfloat_countLeadingZeros64+0xa>

0000000080008ada <softfloat_normRoundPackToF32>:
    80008ada:	1101                	add	sp,sp,-32
    80008adc:	e04a                	sd	s2,0(sp)
    80008ade:	892a                	mv	s2,a0
    80008ae0:	8532                	mv	a0,a2
    80008ae2:	e822                	sd	s0,16(sp)
    80008ae4:	e426                	sd	s1,8(sp)
    80008ae6:	8432                	mv	s0,a2
    80008ae8:	84ae                	mv	s1,a1
    80008aea:	ec06                	sd	ra,24(sp)
    80008aec:	f79ff0ef          	jal	80008a64 <softfloat_countLeadingZeros32>
    80008af0:	fff5061b          	addw	a2,a0,-1
    80008af4:	4699                	li	a3,6
    80008af6:	40c485bb          	subw	a1,s1,a2
    80008afa:	02c6da63          	bge	a3,a2,80008b2e <softfloat_normRoundPackToF32+0x54>
    80008afe:	0fc00693          	li	a3,252
    80008b02:	02b6e663          	bltu	a3,a1,80008b2e <softfloat_normRoundPackToF32+0x54>
    80008b06:	0005071b          	sext.w	a4,a0
    80008b0a:	01f9191b          	sllw	s2,s2,0x1f
    80008b0e:	4681                	li	a3,0
    80008b10:	c019                	beqz	s0,80008b16 <softfloat_normRoundPackToF32+0x3c>
    80008b12:	0175969b          	sllw	a3,a1,0x17
    80008b16:	3761                	addw	a4,a4,-8
    80008b18:	00e4143b          	sllw	s0,s0,a4
    80008b1c:	0124053b          	addw	a0,s0,s2
    80008b20:	60e2                	ld	ra,24(sp)
    80008b22:	6442                	ld	s0,16(sp)
    80008b24:	64a2                	ld	s1,8(sp)
    80008b26:	6902                	ld	s2,0(sp)
    80008b28:	9d35                	addw	a0,a0,a3
    80008b2a:	6105                	add	sp,sp,32
    80008b2c:	8082                	ret
    80008b2e:	00c4163b          	sllw	a2,s0,a2
    80008b32:	6442                	ld	s0,16(sp)
    80008b34:	60e2                	ld	ra,24(sp)
    80008b36:	64a2                	ld	s1,8(sp)
    80008b38:	854a                	mv	a0,s2
    80008b3a:	6902                	ld	s2,0(sp)
    80008b3c:	6105                	add	sp,sp,32
    80008b3e:	e1aff06f          	j	80008158 <softfloat_roundPackToF32>

0000000080008b42 <softfloat_normRoundPackToF64>:
    80008b42:	1101                	add	sp,sp,-32
    80008b44:	e04a                	sd	s2,0(sp)
    80008b46:	892a                	mv	s2,a0
    80008b48:	8532                	mv	a0,a2
    80008b4a:	e822                	sd	s0,16(sp)
    80008b4c:	e426                	sd	s1,8(sp)
    80008b4e:	8432                	mv	s0,a2
    80008b50:	84ae                	mv	s1,a1
    80008b52:	ec06                	sd	ra,24(sp)
    80008b54:	f43ff0ef          	jal	80008a96 <softfloat_countLeadingZeros64>
    80008b58:	fff5061b          	addw	a2,a0,-1
    80008b5c:	46a5                	li	a3,9
    80008b5e:	40c485bb          	subw	a1,s1,a2
    80008b62:	02c6d963          	bge	a3,a2,80008b94 <softfloat_normRoundPackToF64+0x52>
    80008b66:	7fc00713          	li	a4,2044
    80008b6a:	02b76563          	bltu	a4,a1,80008b94 <softfloat_normRoundPackToF64+0x52>
    80008b6e:	0005079b          	sext.w	a5,a0
    80008b72:	197e                	sll	s2,s2,0x3f
    80008b74:	4701                	li	a4,0
    80008b76:	c019                	beqz	s0,80008b7c <softfloat_normRoundPackToF64+0x3a>
    80008b78:	03459713          	sll	a4,a1,0x34
    80008b7c:	37d5                	addw	a5,a5,-11
    80008b7e:	00f41433          	sll	s0,s0,a5
    80008b82:	01240533          	add	a0,s0,s2
    80008b86:	60e2                	ld	ra,24(sp)
    80008b88:	6442                	ld	s0,16(sp)
    80008b8a:	64a2                	ld	s1,8(sp)
    80008b8c:	6902                	ld	s2,0(sp)
    80008b8e:	953a                	add	a0,a0,a4
    80008b90:	6105                	add	sp,sp,32
    80008b92:	8082                	ret
    80008b94:	00c41633          	sll	a2,s0,a2
    80008b98:	6442                	ld	s0,16(sp)
    80008b9a:	60e2                	ld	ra,24(sp)
    80008b9c:	64a2                	ld	s1,8(sp)
    80008b9e:	854a                	mv	a0,s2
    80008ba0:	6902                	ld	s2,0(sp)
    80008ba2:	6105                	add	sp,sp,32
    80008ba4:	eb8ff06f          	j	8000825c <softfloat_roundPackToF64>

0000000080008ba8 <vsnprintf>:
    80008ba8:	00064783          	lbu	a5,0(a2)
    80008bac:	832a                	mv	t1,a0
    80008bae:	20078a63          	beqz	a5,80008dc2 <vsnprintf+0x21a>
    80008bb2:	1101                	add	sp,sp,-32
    80008bb4:	4505                	li	a0,1
    80008bb6:	e826                	sd	s1,16(sp)
    80008bb8:	ec22                	sd	s0,24(sp)
    80008bba:	e44a                	sd	s2,8(sp)
    80008bbc:	e04e                	sd	s3,0(sp)
    80008bbe:	4801                	li	a6,0
    80008bc0:	4381                	li	t2,0
    80008bc2:	4481                	li	s1,0
    80008bc4:	4701                	li	a4,0
    80008bc6:	02500293          	li	t0,37
    80008bca:	4fd5                	li	t6,21
    80008bcc:	00001e97          	auipc	t4,0x1
    80008bd0:	16ce8e93          	add	t4,t4,364 # 80009d38 <softfloat_countLeadingZeros8+0x100>
    80008bd4:	40650533          	sub	a0,a0,t1
    80008bd8:	4f25                	li	t5,9
    80008bda:	5e71                	li	t3,-4
    80008bdc:	16070d63          	beqz	a4,80008d56 <vsnprintf+0x1ae>
    80008be0:	f9d7879b          	addw	a5,a5,-99
    80008be4:	0ff7f793          	zext.b	a5,a5
    80008be8:	00ffe763          	bltu	t6,a5,80008bf6 <vsnprintf+0x4e>
    80008bec:	078a                	sll	a5,a5,0x2
    80008bee:	97f6                	add	a5,a5,t4
    80008bf0:	439c                	lw	a5,0(a5)
    80008bf2:	97f6                	add	a5,a5,t4
    80008bf4:	8782                	jr	a5
    80008bf6:	00164783          	lbu	a5,1(a2)
    80008bfa:	0605                	add	a2,a2,1
    80008bfc:	f3e5                	bnez	a5,80008bdc <vsnprintf+0x34>
    80008bfe:	0008051b          	sext.w	a0,a6
    80008c02:	16b86b63          	bltu	a6,a1,80008d78 <vsnprintf+0x1d0>
    80008c06:	c581                	beqz	a1,80008c0e <vsnprintf+0x66>
    80008c08:	932e                	add	t1,t1,a1
    80008c0a:	fe030fa3          	sb	zero,-1(t1)
    80008c0e:	6462                	ld	s0,24(sp)
    80008c10:	64c2                	ld	s1,16(sp)
    80008c12:	6922                	ld	s2,8(sp)
    80008c14:	6982                	ld	s3,0(sp)
    80008c16:	6105                	add	sp,sp,32
    80008c18:	8082                	ret
    80008c1a:	18048a63          	beqz	s1,80008dae <vsnprintf+0x206>
    80008c1e:	0006b903          	ld	s2,0(a3)
    80008c22:	49bd                	li	s3,15
    80008c24:	06a1                	add	a3,a3,8
    80008c26:	01030733          	add	a4,t1,a6
    80008c2a:	00299793          	sll	a5,s3,0x2
    80008c2e:	00e508b3          	add	a7,a0,a4
    80008c32:	00b8fe63          	bgeu	a7,a1,80008c4e <vsnprintf+0xa6>
    80008c36:	40f958b3          	sra	a7,s2,a5
    80008c3a:	00f8f493          	and	s1,a7,15
    80008c3e:	05748413          	add	s0,s1,87
    80008c42:	009f4463          	blt	t5,s1,80008c4a <vsnprintf+0xa2>
    80008c46:	03048413          	add	s0,s1,48
    80008c4a:	00870023          	sb	s0,0(a4)
    80008c4e:	37f1                	addw	a5,a5,-4
    80008c50:	0705                	add	a4,a4,1
    80008c52:	fdc79ee3          	bne	a5,t3,80008c2e <vsnprintf+0x86>
    80008c56:	0805                	add	a6,a6,1
    80008c58:	00164783          	lbu	a5,1(a2)
    80008c5c:	984e                	add	a6,a6,s3
    80008c5e:	4481                	li	s1,0
    80008c60:	4701                	li	a4,0
    80008c62:	bf61                	j	80008bfa <vsnprintf+0x52>
    80008c64:	0006b883          	ld	a7,0(a3)
    80008c68:	8742                	mv	a4,a6
    80008c6a:	06a1                	add	a3,a3,8
    80008c6c:	0008c783          	lbu	a5,0(a7) # 40000000 <_ftext-0x40000000>
    80008c70:	14078f63          	beqz	a5,80008dce <vsnprintf+0x226>
    80008c74:	0705                	add	a4,a4,1
    80008c76:	00b77663          	bgeu	a4,a1,80008c82 <vsnprintf+0xda>
    80008c7a:	00e30433          	add	s0,t1,a4
    80008c7e:	fef40fa3          	sb	a5,-1(s0)
    80008c82:	410707b3          	sub	a5,a4,a6
    80008c86:	97c6                	add	a5,a5,a7
    80008c88:	0007c783          	lbu	a5,0(a5)
    80008c8c:	f7e5                	bnez	a5,80008c74 <vsnprintf+0xcc>
    80008c8e:	883a                	mv	a6,a4
    80008c90:	00164783          	lbu	a5,1(a2)
    80008c94:	4481                	li	s1,0
    80008c96:	4701                	li	a4,0
    80008c98:	b78d                	j	80008bfa <vsnprintf+0x52>
    80008c9a:	00180793          	add	a5,a6,1
    80008c9e:	00b7f863          	bgeu	a5,a1,80008cae <vsnprintf+0x106>
    80008ca2:	01030733          	add	a4,t1,a6
    80008ca6:	03000893          	li	a7,48
    80008caa:	01170023          	sb	a7,0(a4)
    80008cae:	0809                	add	a6,a6,2
    80008cb0:	f6b877e3          	bgeu	a6,a1,80008c1e <vsnprintf+0x76>
    80008cb4:	979a                	add	a5,a5,t1
    80008cb6:	07800713          	li	a4,120
    80008cba:	00e78023          	sb	a4,0(a5)
    80008cbe:	b785                	j	80008c1e <vsnprintf+0x76>
    80008cc0:	00164783          	lbu	a5,1(a2)
    80008cc4:	06c00893          	li	a7,108
    80008cc8:	0f178863          	beq	a5,a7,80008db8 <vsnprintf+0x210>
    80008ccc:	84ba                	mv	s1,a4
    80008cce:	b735                	j	80008bfa <vsnprintf+0x52>
    80008cd0:	00868413          	add	s0,a3,8
    80008cd4:	c8dd                	beqz	s1,80008d8a <vsnprintf+0x1e2>
    80008cd6:	6294                	ld	a3,0(a3)
    80008cd8:	0a06ce63          	bltz	a3,80008d94 <vsnprintf+0x1ec>
    80008cdc:	47a9                	li	a5,10
    80008cde:	02f6c7b3          	div	a5,a3,a5
    80008ce2:	c3fd                	beqz	a5,80008dc8 <vsnprintf+0x220>
    80008ce4:	4705                	li	a4,1
    80008ce6:	48a9                	li	a7,10
    80008ce8:	0317c7b3          	div	a5,a5,a7
    80008cec:	0705                	add	a4,a4,1
    80008cee:	ffed                	bnez	a5,80008ce8 <vsnprintf+0x140>
    80008cf0:	fff7079b          	addw	a5,a4,-1
    80008cf4:	88ba                	mv	a7,a4
    80008cf6:	0207c963          	bltz	a5,80008d28 <vsnprintf+0x180>
    80008cfa:	00180913          	add	s2,a6,1
    80008cfe:	44a9                	li	s1,10
    80008d00:	00f90733          	add	a4,s2,a5
    80008d04:	00b77b63          	bgeu	a4,a1,80008d1a <vsnprintf+0x172>
    80008d08:	0296e733          	rem	a4,a3,s1
    80008d0c:	00f803b3          	add	t2,a6,a5
    80008d10:	939a                	add	t2,t2,t1
    80008d12:	0307071b          	addw	a4,a4,48
    80008d16:	00e38023          	sb	a4,0(t2)
    80008d1a:	17fd                	add	a5,a5,-1
    80008d1c:	0007871b          	sext.w	a4,a5
    80008d20:	0296c6b3          	div	a3,a3,s1
    80008d24:	fc075ee3          	bgez	a4,80008d00 <vsnprintf+0x158>
    80008d28:	00164783          	lbu	a5,1(a2)
    80008d2c:	9846                	add	a6,a6,a7
    80008d2e:	86a2                	mv	a3,s0
    80008d30:	4381                	li	t2,0
    80008d32:	4481                	li	s1,0
    80008d34:	4701                	li	a4,0
    80008d36:	b5d1                	j	80008bfa <vsnprintf+0x52>
    80008d38:	00180713          	add	a4,a6,1
    80008d3c:	f4b779e3          	bgeu	a4,a1,80008c8e <vsnprintf+0xe6>
    80008d40:	429c                	lw	a5,0(a3)
    80008d42:	981a                	add	a6,a6,t1
    80008d44:	06a1                	add	a3,a3,8
    80008d46:	00f80023          	sb	a5,0(a6)
    80008d4a:	00164783          	lbu	a5,1(a2)
    80008d4e:	883a                	mv	a6,a4
    80008d50:	4481                	li	s1,0
    80008d52:	4701                	li	a4,0
    80008d54:	b55d                	j	80008bfa <vsnprintf+0x52>
    80008d56:	00578d63          	beq	a5,t0,80008d70 <vsnprintf+0x1c8>
    80008d5a:	00180893          	add	a7,a6,1
    80008d5e:	00b8f563          	bgeu	a7,a1,80008d68 <vsnprintf+0x1c0>
    80008d62:	981a                	add	a6,a6,t1
    80008d64:	00f80023          	sb	a5,0(a6)
    80008d68:	00164783          	lbu	a5,1(a2)
    80008d6c:	8846                	mv	a6,a7
    80008d6e:	b571                	j	80008bfa <vsnprintf+0x52>
    80008d70:	00164783          	lbu	a5,1(a2)
    80008d74:	4705                	li	a4,1
    80008d76:	b551                	j	80008bfa <vsnprintf+0x52>
    80008d78:	9342                	add	t1,t1,a6
    80008d7a:	00030023          	sb	zero,0(t1)
    80008d7e:	6462                	ld	s0,24(sp)
    80008d80:	64c2                	ld	s1,16(sp)
    80008d82:	6922                	ld	s2,8(sp)
    80008d84:	6982                	ld	s3,0(sp)
    80008d86:	6105                	add	sp,sp,32
    80008d88:	8082                	ret
    80008d8a:	f40396e3          	bnez	t2,80008cd6 <vsnprintf+0x12e>
    80008d8e:	4294                	lw	a3,0(a3)
    80008d90:	f406d6e3          	bgez	a3,80008cdc <vsnprintf+0x134>
    80008d94:	00180793          	add	a5,a6,1
    80008d98:	00b7f763          	bgeu	a5,a1,80008da6 <vsnprintf+0x1fe>
    80008d9c:	981a                	add	a6,a6,t1
    80008d9e:	02d00713          	li	a4,45
    80008da2:	00e80023          	sb	a4,0(a6)
    80008da6:	40d006b3          	neg	a3,a3
    80008daa:	883e                	mv	a6,a5
    80008dac:	bf05                	j	80008cdc <vsnprintf+0x134>
    80008dae:	0006a903          	lw	s2,0(a3)
    80008db2:	499d                	li	s3,7
    80008db4:	06a1                	add	a3,a3,8
    80008db6:	bd85                	j	80008c26 <vsnprintf+0x7e>
    80008db8:	00264783          	lbu	a5,2(a2)
    80008dbc:	83ba                	mv	t2,a4
    80008dbe:	0605                	add	a2,a2,1
    80008dc0:	bd2d                	j	80008bfa <vsnprintf+0x52>
    80008dc2:	4501                	li	a0,0
    80008dc4:	e991                	bnez	a1,80008dd8 <vsnprintf+0x230>
    80008dc6:	8082                	ret
    80008dc8:	4885                	li	a7,1
    80008dca:	4781                	li	a5,0
    80008dcc:	b73d                	j	80008cfa <vsnprintf+0x152>
    80008dce:	00164783          	lbu	a5,1(a2)
    80008dd2:	4481                	li	s1,0
    80008dd4:	4701                	li	a4,0
    80008dd6:	b515                	j	80008bfa <vsnprintf+0x52>
    80008dd8:	00030023          	sb	zero,0(t1)
    80008ddc:	8082                	ret

0000000080008dde <snprintf>:
    80008dde:	715d                	add	sp,sp,-80
    80008de0:	02810313          	add	t1,sp,40
    80008de4:	f436                	sd	a3,40(sp)
    80008de6:	869a                	mv	a3,t1
    80008de8:	ec06                	sd	ra,24(sp)
    80008dea:	f83a                	sd	a4,48(sp)
    80008dec:	fc3e                	sd	a5,56(sp)
    80008dee:	e0c2                	sd	a6,64(sp)
    80008df0:	e4c6                	sd	a7,72(sp)
    80008df2:	e41a                	sd	t1,8(sp)
    80008df4:	db5ff0ef          	jal	80008ba8 <vsnprintf>
    80008df8:	60e2                	ld	ra,24(sp)
    80008dfa:	6161                	add	sp,sp,80
    80008dfc:	8082                	ret

0000000080008dfe <memcpy>:
    80008dfe:	00a5e7b3          	or	a5,a1,a0
    80008e02:	8b9d                	and	a5,a5,7
    80008e04:	ef85                	bnez	a5,80008e3c <memcpy+0x3e>
    80008e06:	ff960813          	add	a6,a2,-7
    80008e0a:	982a                	add	a6,a6,a0
    80008e0c:	03057863          	bgeu	a0,a6,80008e3c <memcpy+0x3e>
    80008e10:	87aa                	mv	a5,a0
    80008e12:	872e                	mv	a4,a1
    80008e14:	6314                	ld	a3,0(a4)
    80008e16:	07a1                	add	a5,a5,8
    80008e18:	0721                	add	a4,a4,8
    80008e1a:	fed7bc23          	sd	a3,-8(a5)
    80008e1e:	ff07ebe3          	bltu	a5,a6,80008e14 <memcpy+0x16>
    80008e22:	ff860793          	add	a5,a2,-8
    80008e26:	9be1                	and	a5,a5,-8
    80008e28:	07a1                	add	a5,a5,8
    80008e2a:	95be                	add	a1,a1,a5
    80008e2c:	962a                	add	a2,a2,a0
    80008e2e:	97aa                	add	a5,a5,a0
    80008e30:	40f606b3          	sub	a3,a2,a5
    80008e34:	96ae                	add	a3,a3,a1
    80008e36:	00c7ea63          	bltu	a5,a2,80008e4a <memcpy+0x4c>
    80008e3a:	8082                	ret
    80008e3c:	87aa                	mv	a5,a0
    80008e3e:	962a                	add	a2,a2,a0
    80008e40:	40f606b3          	sub	a3,a2,a5
    80008e44:	96ae                	add	a3,a3,a1
    80008e46:	fec7fae3          	bgeu	a5,a2,80008e3a <memcpy+0x3c>
    80008e4a:	0005c703          	lbu	a4,0(a1)
    80008e4e:	0585                	add	a1,a1,1
    80008e50:	0785                	add	a5,a5,1
    80008e52:	fee78fa3          	sb	a4,-1(a5)
    80008e56:	fed59ae3          	bne	a1,a3,80008e4a <memcpy+0x4c>
    80008e5a:	8082                	ret

0000000080008e5c <memset>:
    80008e5c:	00c567b3          	or	a5,a0,a2
    80008e60:	8b9d                	and	a5,a5,7
    80008e62:	962a                	add	a2,a2,a0
    80008e64:	0ff5f713          	zext.b	a4,a1
    80008e68:	cb91                	beqz	a5,80008e7c <memset+0x20>
    80008e6a:	87aa                	mv	a5,a0
    80008e6c:	02c57763          	bgeu	a0,a2,80008e9a <memset+0x3e>
    80008e70:	0785                	add	a5,a5,1
    80008e72:	fee78fa3          	sb	a4,-1(a5)
    80008e76:	fef61de3          	bne	a2,a5,80008e70 <memset+0x14>
    80008e7a:	8082                	ret
    80008e7c:	00003797          	auipc	a5,0x3
    80008e80:	6147b783          	ld	a5,1556(a5) # 8000c490 <trap_table+0x90>
    80008e84:	02f70733          	mul	a4,a4,a5
    80008e88:	fec579e3          	bgeu	a0,a2,80008e7a <memset+0x1e>
    80008e8c:	87aa                	mv	a5,a0
    80008e8e:	07a1                	add	a5,a5,8
    80008e90:	fee7bc23          	sd	a4,-8(a5)
    80008e94:	fec7ede3          	bltu	a5,a2,80008e8e <memset+0x32>
    80008e98:	8082                	ret
    80008e9a:	8082                	ret

0000000080008e9c <strlen>:
    80008e9c:	00054783          	lbu	a5,0(a0)
    80008ea0:	cb89                	beqz	a5,80008eb2 <strlen+0x16>
    80008ea2:	87aa                	mv	a5,a0
    80008ea4:	0017c703          	lbu	a4,1(a5)
    80008ea8:	0785                	add	a5,a5,1
    80008eaa:	ff6d                	bnez	a4,80008ea4 <strlen+0x8>
    80008eac:	40a78533          	sub	a0,a5,a0
    80008eb0:	8082                	ret
    80008eb2:	4501                	li	a0,0
    80008eb4:	8082                	ret

0000000080008eb6 <strcmp>:
    80008eb6:	00054783          	lbu	a5,0(a0)
    80008eba:	0585                	add	a1,a1,1
    80008ebc:	0505                	add	a0,a0,1
    80008ebe:	fff5c703          	lbu	a4,-1(a1)
    80008ec2:	c799                	beqz	a5,80008ed0 <strcmp+0x1a>
    80008ec4:	fee789e3          	beq	a5,a4,80008eb6 <strcmp>
    80008ec8:	0007851b          	sext.w	a0,a5
    80008ecc:	9d19                	subw	a0,a0,a4
    80008ece:	8082                	ret
    80008ed0:	4501                	li	a0,0
    80008ed2:	bfed                	j	80008ecc <strcmp+0x16>

0000000080008ed4 <strcpy>:
    80008ed4:	87aa                	mv	a5,a0
    80008ed6:	0005c703          	lbu	a4,0(a1)
    80008eda:	0785                	add	a5,a5,1
    80008edc:	0585                	add	a1,a1,1
    80008ede:	fee78fa3          	sb	a4,-1(a5)
    80008ee2:	fb75                	bnez	a4,80008ed6 <strcpy+0x2>
    80008ee4:	8082                	ret

0000000080008ee6 <atol>:
    80008ee6:	00054703          	lbu	a4,0(a0)
    80008eea:	02000693          	li	a3,32
    80008eee:	87aa                	mv	a5,a0
    80008ef0:	00d71763          	bne	a4,a3,80008efe <atol+0x18>
    80008ef4:	0017c703          	lbu	a4,1(a5)
    80008ef8:	0785                	add	a5,a5,1
    80008efa:	fed70de3          	beq	a4,a3,80008ef4 <atol+0xe>
    80008efe:	02d00693          	li	a3,45
    80008f02:	04d70263          	beq	a4,a3,80008f46 <atol+0x60>
    80008f06:	02b00693          	li	a3,43
    80008f0a:	02d70763          	beq	a4,a3,80008f38 <atol+0x52>
    80008f0e:	0007c683          	lbu	a3,0(a5)
    80008f12:	4581                	li	a1,0
    80008f14:	c69d                	beqz	a3,80008f42 <atol+0x5c>
    80008f16:	4501                	li	a0,0
    80008f18:	0785                	add	a5,a5,1
    80008f1a:	00251713          	sll	a4,a0,0x2
    80008f1e:	fd06861b          	addw	a2,a3,-48
    80008f22:	0007c683          	lbu	a3,0(a5)
    80008f26:	972a                	add	a4,a4,a0
    80008f28:	0706                	sll	a4,a4,0x1
    80008f2a:	00e60533          	add	a0,a2,a4
    80008f2e:	f6ed                	bnez	a3,80008f18 <atol+0x32>
    80008f30:	c991                	beqz	a1,80008f44 <atol+0x5e>
    80008f32:	40a00533          	neg	a0,a0
    80008f36:	8082                	ret
    80008f38:	0017c683          	lbu	a3,1(a5)
    80008f3c:	4581                	li	a1,0
    80008f3e:	0785                	add	a5,a5,1
    80008f40:	faf9                	bnez	a3,80008f16 <atol+0x30>
    80008f42:	4501                	li	a0,0
    80008f44:	8082                	ret
    80008f46:	0017c683          	lbu	a3,1(a5)
    80008f4a:	4585                	li	a1,1
    80008f4c:	0785                	add	a5,a5,1
    80008f4e:	f6e1                	bnez	a3,80008f16 <atol+0x30>
    80008f50:	4501                	li	a0,0
    80008f52:	bfcd                	j	80008f44 <atol+0x5e>

Disassembly of section .rodata:

0000000080008f58 <regnames.0>:
    80008f58:	207a                	fld	ft0,408(sp)
    80008f5a:	7200                	ld	s0,32(a2)
    80008f5c:	0061                	c.nop	24
    80008f5e:	67007073          	csrc	0x670,0
    80008f62:	0070                	add	a2,sp,12
    80008f64:	7074                	ld	a3,224(s0)
    80008f66:	7400                	ld	s0,40(s0)
    80008f68:	0030                	add	a2,sp,8
    80008f6a:	3174                	fld	fa3,224(a0)
    80008f6c:	7400                	ld	s0,40(s0)
    80008f6e:	0032                	c.slli	zero,0xc
    80008f70:	73003073          	csrc	mhpmevent16h,zero
    80008f74:	0031                	c.nop	12
    80008f76:	3061                	.2byte	0x3061
    80008f78:	6100                	ld	s0,0(a0)
    80008f7a:	0031                	c.nop	12
    80008f7c:	3261                	addw	tp,tp,-8 # fffffffffffffff8 <_end+0xffffffff7ffe7ff8>
    80008f7e:	6100                	ld	s0,0(a0)
    80008f80:	34610033          	.4byte	0x34610033
    80008f84:	6100                	ld	s0,0(a0)
    80008f86:	0035                	c.nop	13
    80008f88:	3661                	addw	a2,a2,-8
    80008f8a:	6100                	ld	s0,0(a0)
    80008f8c:	32730037          	lui	zero,0x32730
    80008f90:	7300                	ld	s0,32(a4)
    80008f92:	34730033          	.4byte	0x34730033
    80008f96:	7300                	ld	s0,32(a4)
    80008f98:	0035                	c.nop	13
    80008f9a:	73003673          	csrrc	a2,mhpmevent16h,zero
    80008f9e:	38730037          	lui	zero,0x38730
    80008fa2:	7300                	ld	s0,32(a4)
    80008fa4:	0039                	c.nop	14
    80008fa6:	73004173          	.4byte	0x73004173
    80008faa:	0042                	c.slli	zero,0x10
    80008fac:	3374                	fld	fa3,224(a4)
    80008fae:	7400                	ld	s0,40(s0)
    80008fb0:	0034                	add	a3,sp,8
    80008fb2:	3574                	fld	fa3,232(a0)
    80008fb4:	7400                	ld	s0,40(s0)
    80008fb6:	0036                	c.slli	zero,0xd

0000000080008fb8 <trap_handlers.0>:
    80008fb8:	1f94                	add	a3,sp,1008
    80008fba:	8000                	.2byte	0x8000
    80008fbc:	0000                	unimp
    80008fbe:	0000                	unimp
    80008fc0:	1f80                	add	s0,sp,1008
    80008fc2:	8000                	.2byte	0x8000
    80008fc4:	0000                	unimp
    80008fc6:	0000                	unimp
    80008fc8:	1f6c                	add	a1,sp,956
    80008fca:	8000                	.2byte	0x8000
    80008fcc:	0000                	unimp
    80008fce:	0000                	unimp
    80008fd0:	1f58                	add	a4,sp,948
    80008fd2:	8000                	.2byte	0x8000
    80008fd4:	0000                	unimp
    80008fd6:	0000                	unimp
    80008fd8:	1f44                	add	s1,sp,948
    80008fda:	8000                	.2byte	0x8000
    80008fdc:	0000                	unimp
    80008fde:	0000                	unimp
    80008fe0:	1f30                	add	a2,sp,952
    80008fe2:	8000                	.2byte	0x8000
    80008fe4:	0000                	unimp
    80008fe6:	0000                	unimp
    80008fe8:	1f1c                	add	a5,sp,944
    80008fea:	8000                	.2byte	0x8000
    80008fec:	0000                	unimp
    80008fee:	0000                	unimp
    80008ff0:	1f08                	add	a0,sp,944
    80008ff2:	8000                	.2byte	0x8000
    80008ff4:	0000                	unimp
    80008ff6:	0000                	unimp
    80008ff8:	1fa8                	add	a0,sp,1016
    80008ffa:	8000                	.2byte	0x8000
	...
    80009018:	2034                	fld	fa3,64(s0)
    8000901a:	8000                	.2byte	0x8000
    8000901c:	0000                	unimp
    8000901e:	0000                	unimp
    80009020:	2006                	fld	ft0,64(sp)
    80009022:	8000                	.2byte	0x8000
	...
    80009030:	1fd8                	add	a4,sp,1012
    80009032:	8000                	.2byte	0x8000
    80009034:	0000                	unimp
	...

0000000080009038 <old_syscall_table.0>:
    80009038:	2882                	fld	fa7,0(sp)
    8000903a:	8000                	.2byte	0x8000
    8000903c:	0000                	unimp
    8000903e:	0000                	unimp
    80009040:	2e72                	fld	ft8,280(sp)
    80009042:	8000                	.2byte	0x8000
    80009044:	0000                	unimp
    80009046:	0000                	unimp
    80009048:	293e                	fld	fs2,456(sp)
    8000904a:	8000                	.2byte	0x8000
	...
    80009068:	29f8                	fld	fa4,208(a1)
    8000906a:	8000                	.2byte	0x8000
	...
    80009080:	2ab2                	fld	fs5,264(sp)
    80009082:	8000                	.2byte	0x8000
	...
    800090a8:	2b7a                	fld	fs6,408(sp)
    800090aa:	8000                	.2byte	0x8000
    800090ac:	0000                	unimp
    800090ae:	0000                	unimp
    800090b0:	2694                	fld	fa3,8(a3)
    800090b2:	8000                	.2byte	0x8000
	...
    80009168:	2144                	fld	fs1,128(a0)
    8000916a:	8000                	.2byte	0x8000
    8000916c:	0000                	unimp
	...

0000000080009170 <syscall_table.1>:
	...
    800091f8:	2524                	fld	fs1,72(a0)
    800091fa:	8000                	.2byte	0x8000
	...
    80009228:	243c                	fld	fa5,72(s0)
    8000922a:	8000                	.2byte	0x8000
    8000922c:	0000                	unimp
    8000922e:	0000                	unimp
    80009230:	261a                	fld	fa2,384(sp)
    80009232:	8000                	.2byte	0x8000
    80009234:	0000                	unimp
    80009236:	0000                	unimp
    80009238:	24dc                	fld	fa5,136(s1)
    8000923a:	8000                	.2byte	0x8000
	...
    80009280:	2948                	fld	fa0,144(a0)
    80009282:	8000                	.2byte	0x8000
    80009284:	0000                	unimp
    80009286:	0000                	unimp
    80009288:	288e                	fld	fa7,192(sp)
    8000928a:	8000                	.2byte	0x8000
	...
    80009298:	2d6c                	fld	fa1,216(a0)
    8000929a:	8000                	.2byte	0x8000
    8000929c:	0000                	unimp
    8000929e:	0000                	unimp
    800092a0:	2c52                	fld	fs8,272(sp)
    800092a2:	8000                	.2byte	0x8000
	...
    800092e0:	25e8                	fld	fa0,200(a1)
    800092e2:	8000                	.2byte	0x8000
	...
    800092f0:	2a02                	fld	fs4,0(sp)
    800092f2:	8000                	.2byte	0x8000
    800092f4:	0000                	unimp
    800092f6:	0000                	unimp
    800092f8:	2596                	fld	fa1,320(sp)
    800092fa:	8000                	.2byte	0x8000
	...
    80009330:	27e8                	fld	fa0,200(a5)
    80009332:	8000                	.2byte	0x8000
    80009334:	0000                	unimp
    80009336:	0000                	unimp
    80009338:	2466                	fld	fs0,88(sp)
    8000933a:	8000                	.2byte	0x8000
	...
    80009358:	20a6                	fld	ft1,72(sp)
    8000935a:	8000                	.2byte	0x8000
    8000935c:	0000                	unimp
    8000935e:	0000                	unimp
    80009360:	265a                	fld	fa2,400(sp)
    80009362:	8000                	.2byte	0x8000
    80009364:	0000                	unimp
    80009366:	0000                	unimp
    80009368:	21fa                	fld	ft3,408(sp)
    8000936a:	8000                	.2byte	0x8000
    8000936c:	0000                	unimp
    8000936e:	0000                	unimp
    80009370:	2348                	fld	fa0,128(a4)
    80009372:	8000                	.2byte	0x8000
	...
    80009380:	23e8                	fld	fa0,192(a5)
    80009382:	8000                	.2byte	0x8000
    80009384:	0000                	unimp
    80009386:	0000                	unimp
    80009388:	229a                	fld	ft5,384(sp)
    8000938a:	8000                	.2byte	0x8000
	...
    800093e8:	2abc                	fld	fa5,80(a3)
    800093ea:	8000                	.2byte	0x8000
    800093ec:	0000                	unimp
    800093ee:	0000                	unimp
    800093f0:	247c                	fld	fa5,200(s0)
    800093f2:	8000                	.2byte	0x8000
	...
    80009458:	20aa                	fld	ft1,136(sp)
    8000945a:	8000                	.2byte	0x8000
    8000945c:	0000                	unimp
    8000945e:	0000                	unimp
    80009460:	20aa                	fld	ft1,136(sp)
    80009462:	8000                	.2byte	0x8000
	...
    800094f8:	21cc                	fld	fa1,128(a1)
    800094fa:	8000                	.2byte	0x8000
	...
    80009588:	213a                	fld	ft2,392(sp)
    8000958a:	8000                	.2byte	0x8000
	...
    800095a0:	27be                	fld	fa5,456(sp)
    800095a2:	8000                	.2byte	0x8000
    800095a4:	0000                	unimp
    800095a6:	0000                	unimp
    800095a8:	27e0                	fld	fs0,200(a5)
    800095aa:	8000                	.2byte	0x8000
	...
    80009638:	216e                	fld	ft2,216(sp)
    8000963a:	8000                	.2byte	0x8000
	...
    80009670:	2718                	fld	fa4,8(a4)
    80009672:	8000                	.2byte	0x8000
	...
    800096b8:	2198                	fld	fa4,0(a1)
    800096ba:	8000                	.2byte	0x8000
	...
    800096d0:	20a2                	fld	ft1,8(sp)
    800096d2:	8000                	.2byte	0x8000
	...
    800096e0:	27e4                	fld	fs1,200(a5)
    800096e2:	8000                	.2byte	0x8000
    800096e4:	0000                	unimp
    800096e6:	0000                	unimp
    800096e8:	27e4                	fld	fs1,200(a5)
    800096ea:	8000                	.2byte	0x8000
    800096ec:	0000                	unimp
    800096ee:	0000                	unimp
    800096f0:	27e4                	fld	fs1,200(a5)
    800096f2:	8000                	.2byte	0x8000
    800096f4:	0000                	unimp
    800096f6:	0000                	unimp
    800096f8:	27e4                	fld	fs1,200(a5)
    800096fa:	8000                	.2byte	0x8000
    800096fc:	0000                	unimp
    800096fe:	0000                	unimp
    80009700:	27e4                	fld	fs1,200(a5)
    80009702:	8000                	.2byte	0x8000
	...
    80009820:	2714                	fld	fa3,8(a4)
    80009822:	8000                	.2byte	0x8000
    80009824:	0000                	unimp
    80009826:	0000                	unimp
    80009828:	27b2                	fld	fa5,264(sp)
    8000982a:	8000                	.2byte	0x8000
    8000982c:	0000                	unimp
    8000982e:	0000                	unimp
    80009830:	27b6                	fld	fa5,328(sp)
    80009832:	8000                	.2byte	0x8000
	...
    80009860:	27ae                	fld	fa5,200(sp)
    80009862:	8000                	.2byte	0x8000
	...
    80009880:	27ba                	fld	fa5,392(sp)
    80009882:	8000                	.2byte	0x8000
	...
    80009a88:	2b86                	fld	fs7,64(sp)
    80009a8a:	8000                	.2byte	0x8000
    80009a8c:	0000                	unimp
    80009a8e:	0000                	unimp
    80009a90:	9826                	add	a6,a6,s1
    80009a92:	ffff                	.2byte	0xffff
    80009a94:	9848                	.2byte	0x9848
    80009a96:	ffff                	.2byte	0xffff
    80009a98:	985e                	add	a6,a6,s7
    80009a9a:	ffff                	.2byte	0xffff
    80009a9c:	988e                	add	a7,a7,gp
    80009a9e:	ffff                	.2byte	0xffff
    80009aa0:	98a0                	.2byte	0x98a0
    80009aa2:	ffff                	.2byte	0xffff
    80009aa4:	98a4                	.2byte	0x98a4
    80009aa6:	ffff                	.2byte	0xffff
    80009aa8:	981c                	.2byte	0x981c
    80009aaa:	ffff                	.2byte	0xffff
    80009aac:	981c                	.2byte	0x981c
    80009aae:	ffff                	.2byte	0xffff
    80009ab0:	98ba                	add	a7,a7,a4
    80009ab2:	ffff                	.2byte	0xffff

0000000080009ab4 <illegal_insn_trap_table>:
    80009ab4:	bf44                	fsd	fs1,184(a4)
    80009ab6:	ffff                	.2byte	0xffff
    80009ab8:	bf44                	fsd	fs1,184(a4)
    80009aba:	ffff                	.2byte	0xffff
    80009abc:	bf44                	fsd	fs1,184(a4)
    80009abe:	ffff                	.2byte	0xffff
    80009ac0:	bf44                	fsd	fs1,184(a4)
    80009ac2:	ffff                	.2byte	0xffff
    80009ac4:	bf44                	fsd	fs1,184(a4)
    80009ac6:	ffff                	.2byte	0xffff
    80009ac8:	bf44                	fsd	fs1,184(a4)
    80009aca:	ffff                	.2byte	0xffff
    80009acc:	bf44                	fsd	fs1,184(a4)
    80009ace:	ffff                	.2byte	0xffff
    80009ad0:	bf44                	fsd	fs1,184(a4)
    80009ad2:	ffff                	.2byte	0xffff
    80009ad4:	bf44                	fsd	fs1,184(a4)
    80009ad6:	ffff                	.2byte	0xffff
    80009ad8:	bf44                	fsd	fs1,184(a4)
    80009ada:	ffff                	.2byte	0xffff
    80009adc:	bf44                	fsd	fs1,184(a4)
    80009ade:	ffff                	.2byte	0xffff
    80009ae0:	bf44                	fsd	fs1,184(a4)
    80009ae2:	ffff                	.2byte	0xffff
    80009ae4:	bf44                	fsd	fs1,184(a4)
    80009ae6:	ffff                	.2byte	0xffff
    80009ae8:	bf44                	fsd	fs1,184(a4)
    80009aea:	ffff                	.2byte	0xffff
    80009aec:	bf44                	fsd	fs1,184(a4)
    80009aee:	ffff                	.2byte	0xffff
    80009af0:	bf44                	fsd	fs1,184(a4)
    80009af2:	ffff                	.2byte	0xffff
    80009af4:	c94e                	sw	s3,144(sp)
    80009af6:	ffff                	.2byte	0xffff
    80009af8:	c94e                	sw	s3,144(sp)
    80009afa:	ffff                	.2byte	0xffff
    80009afc:	c94e                	sw	s3,144(sp)
    80009afe:	ffff                	.2byte	0xffff
    80009b00:	c94e                	sw	s3,144(sp)
    80009b02:	ffff                	.2byte	0xffff
    80009b04:	bfe2                	fsd	fs8,504(sp)
    80009b06:	ffff                	.2byte	0xffff
    80009b08:	bf44                	fsd	fs1,184(a4)
    80009b0a:	ffff                	.2byte	0xffff
    80009b0c:	bf44                	fsd	fs1,184(a4)
    80009b0e:	ffff                	.2byte	0xffff
    80009b10:	bf44                	fsd	fs1,184(a4)
    80009b12:	ffff                	.2byte	0xffff
    80009b14:	bf44                	fsd	fs1,184(a4)
    80009b16:	ffff                	.2byte	0xffff
    80009b18:	bf44                	fsd	fs1,184(a4)
    80009b1a:	ffff                	.2byte	0xffff
    80009b1c:	bf44                	fsd	fs1,184(a4)
    80009b1e:	ffff                	.2byte	0xffff
    80009b20:	bf44                	fsd	fs1,184(a4)
    80009b22:	ffff                	.2byte	0xffff
    80009b24:	bf4e                	fsd	fs3,440(sp)
    80009b26:	ffff                	.2byte	0xffff
    80009b28:	bf44                	fsd	fs1,184(a4)
    80009b2a:	ffff                	.2byte	0xffff
    80009b2c:	bf44                	fsd	fs1,184(a4)
    80009b2e:	ffff                	.2byte	0xffff
    80009b30:	bf44                	fsd	fs1,184(a4)
    80009b32:	ffff                	.2byte	0xffff

0000000080009b34 <fp_emulation_table>:
    80009b34:	c05e                	sw	s7,0(sp)
    80009b36:	ffff                	.2byte	0xffff
    80009b38:	c062                	sw	s8,0(sp)
    80009b3a:	ffff                	.2byte	0xffff
    80009b3c:	c068                	sw	a0,68(s0)
    80009b3e:	ffff                	.2byte	0xffff
    80009b40:	c112                	sw	tp,128(sp)
    80009b42:	ffff                	.2byte	0xffff
    80009b44:	c242                	sw	a6,4(sp)
    80009b46:	ffff                	.2byte	0xffff
    80009b48:	c30e                	sw	gp,132(sp)
    80009b4a:	ffff                	.2byte	0xffff
    80009b4c:	bec4                	fsd	fs1,184(a3)
    80009b4e:	ffff                	.2byte	0xffff
    80009b50:	bec4                	fsd	fs1,184(a3)
    80009b52:	ffff                	.2byte	0xffff
    80009b54:	c440                	sw	s0,12(s0)
    80009b56:	ffff                	.2byte	0xffff
    80009b58:	bec4                	fsd	fs1,184(a3)
    80009b5a:	ffff                	.2byte	0xffff
    80009b5c:	bec4                	fsd	fs1,184(a3)
    80009b5e:	ffff                	.2byte	0xffff
    80009b60:	c1bc                	sw	a5,64(a1)
    80009b62:	ffff                	.2byte	0xffff
    80009b64:	bec4                	fsd	fs1,184(a3)
    80009b66:	ffff                	.2byte	0xffff
    80009b68:	bec4                	fsd	fs1,184(a3)
    80009b6a:	ffff                	.2byte	0xffff
    80009b6c:	bec4                	fsd	fs1,184(a3)
    80009b6e:	ffff                	.2byte	0xffff
    80009b70:	bec4                	fsd	fs1,184(a3)
    80009b72:	ffff                	.2byte	0xffff
    80009b74:	bec4                	fsd	fs1,184(a3)
    80009b76:	ffff                	.2byte	0xffff
    80009b78:	bec4                	fsd	fs1,184(a3)
    80009b7a:	ffff                	.2byte	0xffff
    80009b7c:	bec4                	fsd	fs1,184(a3)
    80009b7e:	ffff                	.2byte	0xffff
    80009b80:	bec4                	fsd	fs1,184(a3)
    80009b82:	ffff                	.2byte	0xffff
    80009b84:	c6c0                	sw	s0,12(a3)
    80009b86:	ffff                	.2byte	0xffff
    80009b88:	bec4                	fsd	fs1,184(a3)
    80009b8a:	ffff                	.2byte	0xffff
    80009b8c:	bec4                	fsd	fs1,184(a3)
    80009b8e:	ffff                	.2byte	0xffff
    80009b90:	bec4                	fsd	fs1,184(a3)
    80009b92:	ffff                	.2byte	0xffff
    80009b94:	c588                	sw	a0,8(a1)
    80009b96:	ffff                	.2byte	0xffff
    80009b98:	bec4                	fsd	fs1,184(a3)
    80009b9a:	ffff                	.2byte	0xffff
    80009b9c:	c4ca                	sw	s2,72(sp)
    80009b9e:	ffff                	.2byte	0xffff
    80009ba0:	bec4                	fsd	fs1,184(a3)
    80009ba2:	ffff                	.2byte	0xffff
    80009ba4:	c7a6                	sw	s1,204(sp)
    80009ba6:	ffff                	.2byte	0xffff
    80009ba8:	bec4                	fsd	fs1,184(a3)
    80009baa:	ffff                	.2byte	0xffff
    80009bac:	c868                	sw	a0,84(s0)
    80009bae:	ffff                	.2byte	0xffff
    80009bb0:	bec4                	fsd	fs1,184(a3)
    80009bb2:	ffff                	.2byte	0xffff
    80009bb4:	0000                	unimp
	...

0000000080009bb8 <softfloat_approxRecip_1k1s>:
    80009bb8:	f0f1                	bnez	s1,80009b7c <fp_emulation_table+0x48>
    80009bba:	d62c                	sw	a1,104(a2)
    80009bbc:	bfa1                	j	80009b14 <illegal_insn_trap_table+0x60>
    80009bbe:	9c0aac77          	.4byte	0x9c0aac77
    80009bc2:	81858ddb          	.4byte	0x81858ddb
    80009bc6:	76ba                	ld	a3,424(sp)
    80009bc8:	64d46d3b          	.4byte	0x64d46d3b
    80009bcc:	5d5c                	lw	a5,60(a0)
    80009bce:	56b1                	li	a3,-20
    80009bd0:	50b6                	lw	ra,108(sp)
    80009bd2:	4b55                	li	s6,21
    80009bd4:	4679                	li	a2,30
    80009bd6:	4211                	li	tp,4

0000000080009bd8 <softfloat_approxRecip_1k0s>:
    80009bd8:	ffc4                	sd	s1,184(a5)
    80009bda:	f0be                	sd	a5,96(sp)
    80009bdc:	d76fe363          	bltu	t6,s6,80009142 <old_syscall_table.0+0x10a>
    80009be0:	ccad                	beqz	s1,80009c5a <softfloat_countLeadingZeros8+0x22>
    80009be2:	c2f0                	sw	a2,68(a3)
    80009be4:	ba16                	fsd	ft5,304(sp)
    80009be6:	b201                	j	800094e6 <syscall_table.1+0x376>
    80009be8:	a3c6aa97          	auipc	s5,0xa3c6a
    80009bec:	9d7a                	add	s10,s10,t5
    80009bee:	97a6                	add	a5,a5,s1
    80009bf0:	923c                	.2byte	0x923c
    80009bf2:	8d32                	mv	s10,a2
    80009bf4:	887e                	mv	a6,t6
    80009bf6:	          	auipc	s0,0xa5a58

0000000080009bf8 <softfloat_approxRecipSqrt_1k1s>:
    80009bf8:	a5a5                	j	8000a260 <softfloat_countLeadingZeros8+0x628>
    80009bfa:	ea42                	sd	a6,272(sp)
    80009bfc:	8c21                	xor	s0,s0,s0
    80009bfe:	c62d                	beqz	a2,80009c68 <softfloat_countLeadingZeros8+0x30>
    80009c00:	aa7f788f          	.4byte	0xaa7f788f
    80009c04:	6928                	ld	a0,80(a0)
    80009c06:	94b6                	add	s1,s1,a3
    80009c08:	83355cc7          	fmsub.d	fs9,fa0,fs3,fa6,unknown
    80009c0c:	52a6                	lw	t0,104(sp)
    80009c0e:	74e2                	ld	s1,56(sp)
    80009c10:	4a3e                	lw	s4,204(sp)
    80009c12:	68fe                	ld	a7,472(sp)
    80009c14:	5efd432b          	.4byte	0x5efd432b

0000000080009c18 <softfloat_approxRecipSqrt_1k0s>:
    80009c18:	b4c9                	j	800096da <syscall_table.1+0x56a>
    80009c1a:	aa7dffab          	.4byte	0xaa7dffab
    80009c1e:	f11c                	sd	a5,32(a0)
    80009c20:	a1c5                	j	8000a100 <softfloat_countLeadingZeros8+0x4c8>
    80009c22:	9a43e4c7          	fmsub.d	fs1,ft7,ft4,fs3,unknown
    80009c26:	da29                	beqz	a2,80009b78 <fp_emulation_table+0x44>
    80009c28:	93b5                	srl	a5,a5,0x2d
    80009c2a:	d0e5                	beqz	s1,80009c0a <softfloat_approxRecipSqrt_1k1s+0x12>
    80009c2c:	8ded                	and	a1,a1,a1
    80009c2e:	88c6c8b7          	lui	a7,0x88c6c
    80009c32:	c16d                	beqz	a0,80009d14 <softfloat_countLeadingZeros8+0xdc>
    80009c34:	8424                	.2byte	0x8424
    80009c36:	bae1                	j	8000960e <syscall_table.1+0x49e>

0000000080009c38 <softfloat_countLeadingZeros8>:
    80009c38:	0708                	add	a0,sp,896
    80009c3a:	0606                	sll	a2,a2,0x1
    80009c3c:	0505                	add	a0,a0,1
    80009c3e:	0505                	add	a0,a0,1
    80009c40:	0404                	add	s1,sp,512
    80009c42:	0404                	add	s1,sp,512
    80009c44:	0404                	add	s1,sp,512
    80009c46:	0404                	add	s1,sp,512
    80009c48:	03030303          	lb	t1,48(t1)
    80009c4c:	03030303          	lb	t1,48(t1)
    80009c50:	03030303          	lb	t1,48(t1)
    80009c54:	03030303          	lb	t1,48(t1)
    80009c58:	0202                	c.slli64	tp
    80009c5a:	0202                	c.slli64	tp
    80009c5c:	0202                	c.slli64	tp
    80009c5e:	0202                	c.slli64	tp
    80009c60:	0202                	c.slli64	tp
    80009c62:	0202                	c.slli64	tp
    80009c64:	0202                	c.slli64	tp
    80009c66:	0202                	c.slli64	tp
    80009c68:	0202                	c.slli64	tp
    80009c6a:	0202                	c.slli64	tp
    80009c6c:	0202                	c.slli64	tp
    80009c6e:	0202                	c.slli64	tp
    80009c70:	0202                	c.slli64	tp
    80009c72:	0202                	c.slli64	tp
    80009c74:	0202                	c.slli64	tp
    80009c76:	0202                	c.slli64	tp
    80009c78:	0101                	add	sp,sp,0
    80009c7a:	0101                	add	sp,sp,0
    80009c7c:	0101                	add	sp,sp,0
    80009c7e:	0101                	add	sp,sp,0
    80009c80:	0101                	add	sp,sp,0
    80009c82:	0101                	add	sp,sp,0
    80009c84:	0101                	add	sp,sp,0
    80009c86:	0101                	add	sp,sp,0
    80009c88:	0101                	add	sp,sp,0
    80009c8a:	0101                	add	sp,sp,0
    80009c8c:	0101                	add	sp,sp,0
    80009c8e:	0101                	add	sp,sp,0
    80009c90:	0101                	add	sp,sp,0
    80009c92:	0101                	add	sp,sp,0
    80009c94:	0101                	add	sp,sp,0
    80009c96:	0101                	add	sp,sp,0
    80009c98:	0101                	add	sp,sp,0
    80009c9a:	0101                	add	sp,sp,0
    80009c9c:	0101                	add	sp,sp,0
    80009c9e:	0101                	add	sp,sp,0
    80009ca0:	0101                	add	sp,sp,0
    80009ca2:	0101                	add	sp,sp,0
    80009ca4:	0101                	add	sp,sp,0
    80009ca6:	0101                	add	sp,sp,0
    80009ca8:	0101                	add	sp,sp,0
    80009caa:	0101                	add	sp,sp,0
    80009cac:	0101                	add	sp,sp,0
    80009cae:	0101                	add	sp,sp,0
    80009cb0:	0101                	add	sp,sp,0
    80009cb2:	0101                	add	sp,sp,0
    80009cb4:	0101                	add	sp,sp,0
    80009cb6:	0101                	add	sp,sp,0
	...
    80009d38:	f000                	sd	s0,32(s0)
    80009d3a:	ffff                	.2byte	0xffff
    80009d3c:	ef98                	sd	a4,24(a5)
    80009d3e:	ffff                	.2byte	0xffff
    80009d40:	eebe                	sd	a5,344(sp)
    80009d42:	ffff                	.2byte	0xffff
    80009d44:	eebe                	sd	a5,344(sp)
    80009d46:	ffff                	.2byte	0xffff
    80009d48:	eebe                	sd	a5,344(sp)
    80009d4a:	ffff                	.2byte	0xffff
    80009d4c:	eebe                	sd	a5,344(sp)
    80009d4e:	ffff                	.2byte	0xffff
    80009d50:	eebe                	sd	a5,344(sp)
    80009d52:	ffff                	.2byte	0xffff
    80009d54:	eebe                	sd	a5,344(sp)
    80009d56:	ffff                	.2byte	0xffff
    80009d58:	eebe                	sd	a5,344(sp)
    80009d5a:	ffff                	.2byte	0xffff
    80009d5c:	ef88                	sd	a0,24(a5)
    80009d5e:	ffff                	.2byte	0xffff
    80009d60:	eebe                	sd	a5,344(sp)
    80009d62:	ffff                	.2byte	0xffff
    80009d64:	eebe                	sd	a5,344(sp)
    80009d66:	ffff                	.2byte	0xffff
    80009d68:	eebe                	sd	a5,344(sp)
    80009d6a:	ffff                	.2byte	0xffff
    80009d6c:	ef62                	sd	s8,408(sp)
    80009d6e:	ffff                	.2byte	0xffff
    80009d70:	eebe                	sd	a5,344(sp)
    80009d72:	ffff                	.2byte	0xffff
    80009d74:	eebe                	sd	a5,344(sp)
    80009d76:	ffff                	.2byte	0xffff
    80009d78:	ef2c                	sd	a1,88(a4)
    80009d7a:	ffff                	.2byte	0xffff
    80009d7c:	eebe                	sd	a5,344(sp)
    80009d7e:	ffff                	.2byte	0xffff
    80009d80:	eebe                	sd	a5,344(sp)
    80009d82:	ffff                	.2byte	0xffff
    80009d84:	eebe                	sd	a5,344(sp)
    80009d86:	ffff                	.2byte	0xffff
    80009d88:	eebe                	sd	a5,344(sp)
    80009d8a:	ffff                	.2byte	0xffff
    80009d8c:	eee2                	sd	s8,344(sp)
    80009d8e:	ffff                	.2byte	0xffff
    80009d90:	63617473          	csrrc	s0,0x636,2
    80009d94:	6f625f6b          	.4byte	0x6f625f6b
    80009d98:	7474                	ld	a3,232(s0)
    80009d9a:	21206d6f          	jal	s10,8000ffac <stacks+0xfac>
    80009d9e:	203d                	.2byte	0x203d
    80009da0:	7528                	ld	a0,104(a0)
    80009da2:	6e69                	lui	t3,0x1a
    80009da4:	7074                	ld	a3,224(s0)
    80009da6:	7274                	ld	a3,224(a2)
    80009da8:	745f 2d29 0031      	.byte	0x5f, 0x74, 0x29, 0x2d, 0x31, 0x00
    80009dae:	0000                	unimp
    80009db0:	7261                	lui	tp,0xffff8
    80009db2:	6d207367          	.4byte	0x6d207367
    80009db6:	7375                	lui	t1,0xffffd
    80009db8:	2074                	fld	fa3,192(s0)
    80009dba:	6f6e                	ld	t5,216(sp)
    80009dbc:	2074                	fld	fa3,192(s0)
    80009dbe:	7865                	lui	a6,0xffff9
    80009dc0:	64656563          	bltu	a0,t1,8000a40a <softfloat_countLeadingZeros8+0x7d2>
    80009dc4:	2520                	fld	fs0,72(a0)
    80009dc6:	2064                	fld	fs1,192(s0)
    80009dc8:	7962                	ld	s2,56(sp)
    80009dca:	6574                	ld	a3,200(a0)
    80009dcc:	00000a73          	.4byte	0xa73
    80009dd0:	2d2d                	addw	s10,s10,11
    80009dd2:	6568                	ld	a0,200(a0)
    80009dd4:	706c                	ld	a1,224(s0)
    80009dd6:	0000                	unimp
    80009dd8:	7250                	ld	a2,160(a2)
    80009dda:	2079786f          	jal	a6,800a17e0 <_end+0x897e0>
    80009dde:	6e72656b          	.4byte	0x6e72656b
    80009de2:	6c65                	lui	s8,0x19
    80009de4:	0a0a                	sll	s4,s4,0x2
    80009de6:	0000                	unimp
    80009de8:	7375                	lui	t1,0xffffd
    80009dea:	6761                	lui	a4,0x18
    80009dec:	3a65                	addw	s4,s4,-7 # 3fff9 <MEM_START-0x7ffc0007>
    80009dee:	7020                	ld	s0,96(s0)
    80009df0:	705b206b          	.4byte	0x705b206b
    80009df4:	706f206b          	.4byte	0x706f206b
    80009df8:	6974                	ld	a3,208(a0)
    80009dfa:	5d736e6f          	jal	t3,80040bd0 <_end+0x28bd0>
    80009dfe:	3c20                	fld	fs0,120(s0)
    80009e00:	7375                	lui	t1,0xffffd
    80009e02:	7265                	lui	tp,0xffff9
    80009e04:	7020                	ld	s0,96(s0)
    80009e06:	6f72                	ld	t5,280(sp)
    80009e08:	6d617267          	.4byte	0x6d617267
    80009e0c:	203e                	fld	ft0,456(sp)
    80009e0e:	6f72705b          	.4byte	0x6f72705b
    80009e12:	6d617267          	.4byte	0x6d617267
    80009e16:	6f20                	ld	s0,88(a4)
    80009e18:	7470                	ld	a2,232(s0)
    80009e1a:	6f69                	lui	t5,0x1a
    80009e1c:	736e                	ld	t1,248(sp)
    80009e1e:	0a5d                	add	s4,s4,23
	...
    80009e28:	6974704f          	fnmadd.s	ft0,fs0,fs7,fa3
    80009e2c:	3a736e6f          	jal	t3,800409d2 <_end+0x289d2>
    80009e30:	000a                	c.slli	zero,0x2
    80009e32:	0000                	unimp
    80009e34:	0000                	unimp
    80009e36:	0000                	unimp
    80009e38:	2020                	fld	fs0,64(s0)
    80009e3a:	682d                	lui	a6,0xb
    80009e3c:	202c                	fld	fa1,64(s0)
    80009e3e:	2d2d                	addw	s10,s10,11
    80009e40:	6568                	ld	a0,200(a0)
    80009e42:	706c                	ld	a1,224(s0)
    80009e44:	2020                	fld	fs0,64(s0)
    80009e46:	2020                	fld	fs0,64(s0)
    80009e48:	2020                	fld	fs0,64(s0)
    80009e4a:	2020                	fld	fs0,64(s0)
    80009e4c:	2020                	fld	fs0,64(s0)
    80009e4e:	2020                	fld	fs0,64(s0)
    80009e50:	7250                	ld	a2,160(a2)
    80009e52:	6e69                	lui	t3,0x1a
    80009e54:	2074                	fld	fa3,192(s0)
    80009e56:	6874                	ld	a3,208(s0)
    80009e58:	7369                	lui	t1,0xffffa
    80009e5a:	6820                	ld	s0,80(s0)
    80009e5c:	6c65                	lui	s8,0x19
    80009e5e:	2070                	fld	fa2,192(s0)
    80009e60:	656d                	lui	a0,0x1b
    80009e62:	67617373          	csrrc	t1,0x676,2
    80009e66:	0a65                	add	s4,s4,25
	...
    80009e70:	2020                	fld	fs0,64(s0)
    80009e72:	702d                	c.lui	zero,0xfffeb
    80009e74:	2020                	fld	fs0,64(s0)
    80009e76:	2020                	fld	fs0,64(s0)
    80009e78:	2020                	fld	fs0,64(s0)
    80009e7a:	2020                	fld	fs0,64(s0)
    80009e7c:	2020                	fld	fs0,64(s0)
    80009e7e:	2020                	fld	fs0,64(s0)
    80009e80:	2020                	fld	fs0,64(s0)
    80009e82:	2020                	fld	fs0,64(s0)
    80009e84:	2020                	fld	fs0,64(s0)
    80009e86:	2020                	fld	fs0,64(s0)
    80009e88:	6944                	ld	s1,144(a0)
    80009e8a:	6c626173          	csrrs	sp,0x6c6,4
    80009e8e:	2065                	.2byte	0x2065
    80009e90:	642d6e6f          	jal	t3,800e04d2 <_end+0xc84d2>
    80009e94:	6d65                	lui	s10,0x19
    80009e96:	6e61                	lui	t3,0x18
    80009e98:	2064                	fld	fs1,192(s0)
    80009e9a:	7270                	ld	a2,224(a2)
    80009e9c:	6172676f          	jal	a4,80030cb2 <_end+0x18cb2>
    80009ea0:	206d                	.2byte	0x206d
    80009ea2:	6170                	ld	a2,192(a0)
    80009ea4:	676e6967          	.4byte	0x676e6967
    80009ea8:	000a                	c.slli	zero,0x2
    80009eaa:	0000                	unimp
    80009eac:	0000                	unimp
    80009eae:	0000                	unimp
    80009eb0:	2020                	fld	fs0,64(s0)
    80009eb2:	732d                	lui	t1,0xfffeb
    80009eb4:	2020                	fld	fs0,64(s0)
    80009eb6:	2020                	fld	fs0,64(s0)
    80009eb8:	2020                	fld	fs0,64(s0)
    80009eba:	2020                	fld	fs0,64(s0)
    80009ebc:	2020                	fld	fs0,64(s0)
    80009ebe:	2020                	fld	fs0,64(s0)
    80009ec0:	2020                	fld	fs0,64(s0)
    80009ec2:	2020                	fld	fs0,64(s0)
    80009ec4:	2020                	fld	fs0,64(s0)
    80009ec6:	2020                	fld	fs0,64(s0)
    80009ec8:	7250                	ld	a2,160(a2)
    80009eca:	6e69                	lui	t3,0x1a
    80009ecc:	2074                	fld	fa3,192(s0)
    80009ece:	6c637963          	bgeu	t1,t1,8000a5a0 <softfloat_countLeadingZeros8+0x968>
    80009ed2:	7365                	lui	t1,0xffff9
    80009ed4:	7520                	ld	s0,104(a0)
    80009ed6:	6f70                	ld	a2,216(a4)
    80009ed8:	206e                	fld	ft0,216(sp)
    80009eda:	6574                	ld	a3,200(a0)
    80009edc:	6d72                	ld	s10,280(sp)
    80009ede:	6e69                	lui	t3,0x1a
    80009ee0:	7461                	lui	s0,0xffff8
    80009ee2:	6f69                	lui	t5,0x1a
    80009ee4:	0a6e                	sll	s4,s4,0x1b
    80009ee6:	0000                	unimp
    80009ee8:	2d2d                	addw	s10,s10,11 # 1900b <MEM_START-0x7ffe6ff5>
    80009eea:	6172                	ld	sp,280(sp)
    80009eec:	646e                	ld	s0,216(sp)
    80009eee:	7a696d6f          	jal	s10,800a0694 <_end+0x88694>
    80009ef2:	2d65                	addw	s10,s10,25
    80009ef4:	616d                	add	sp,sp,240
    80009ef6:	7070                	ld	a2,224(s0)
    80009ef8:	6e69                	lui	t3,0x1a
    80009efa:	00000067          	jr	zero # 0 <MEM_START-0x80000000>
    80009efe:	0000                	unimp
    80009f00:	6e75                	lui	t3,0x1d
    80009f02:	6572                	ld	a0,280(sp)
    80009f04:	6e676f63          	bltu	a4,t1,8000a602 <softfloat_countLeadingZeros8+0x9ca>
    80009f08:	7a69                	lui	s4,0xffffa
    80009f0a:	6465                	lui	s0,0x19
    80009f0c:	6f20                	ld	s0,88(a4)
    80009f0e:	7470                	ld	a2,232(s0)
    80009f10:	6f69                	lui	t5,0x1a
    80009f12:	3a6e                	fld	fs4,248(sp)
    80009f14:	6020                	ld	s0,64(s0)
    80009f16:	7325                	lui	t1,0xfffe9
    80009f18:	00000a27          	.4byte	0xa27
    80009f1c:	0000                	unimp
    80009f1e:	0000                	unimp
    80009f20:	6574                	ld	a3,200(a0)
    80009f22:	6c6c                	ld	a1,216(s0)
    80009f24:	6d20                	ld	s0,88(a0)
    80009f26:	2065                	.2byte	0x2065
    80009f28:	74616877          	.4byte	0x74616877
    80009f2c:	4520                	lw	s0,72(a0)
    80009f2e:	464c                	lw	a1,12(a2)
    80009f30:	7420                	ld	s0,104(s0)
    80009f32:	6f6c206f          	j	800cc628 <_end+0xb4628>
    80009f36:	6461                	lui	s0,0x18
    80009f38:	0a21                	add	s4,s4,8 # ffffffffffffa008 <_end+0xffffffff7ffe2008>
    80009f3a:	0000                	unimp
    80009f3c:	0000                	unimp
    80009f3e:	0000                	unimp
    80009f40:	7270                	ld	a2,224(a2)
    80009f42:	7665                	lui	a2,0xffff9
    80009f44:	3e20                	fld	fs0,120(a2)
    80009f46:	3020                	fld	fs0,96(s0)
	...
    80009f50:	5349                	li	t1,-14
    80009f52:	455f 464c 3436      	.byte	0x5f, 0x45, 0x4c, 0x46, 0x36, 0x34
    80009f58:	6528                	ld	a0,72(a0)
    80009f5a:	2968                	fld	fa0,208(a0)
    80009f5c:	0000                	unimp
    80009f5e:	0000                	unimp
    80009f60:	2e2e                	fld	ft8,200(sp)
    80009f62:	2f6b702f          	.4byte	0x2f6b702f
    80009f66:	6c65                	lui	s8,0x19
    80009f68:	2e66                	fld	ft8,88(sp)
    80009f6a:	00000063          	beqz	zero,80009f6a <softfloat_countLeadingZeros8+0x332>
    80009f6e:	0000                	unimp
    80009f70:	7325                	lui	t1,0xfffe9
    80009f72:	253a                	fld	fa0,392(sp)
    80009f74:	3a64                	fld	fs1,240(a2)
    80009f76:	6120                	ld	s0,64(a0)
    80009f78:	72657373          	csrrc	t1,mhpmevent6h,10
    80009f7c:	6974                	ld	a3,208(a0)
    80009f7e:	66206e6f          	jal	t3,800105e0 <stacks+0x15e0>
    80009f82:	6961                	lui	s2,0x18
    80009f84:	656c                	ld	a1,200(a0)
    80009f86:	3a64                	fld	fs1,240(a2)
    80009f88:	2520                	fld	fs0,72(a0)
    80009f8a:	00000a73          	.4byte	0xa73
    80009f8e:	0000                	unimp
    80009f90:	6f6e                	ld	t5,216(sp)
    80009f92:	2074                	fld	fa3,192(s0)
    80009f94:	2061                	.2byte	0x2061
    80009f96:	74617473          	csrrc	s0,0x746,2
    80009f9a:	6369                	lui	t1,0x1a
    80009f9c:	6c61                	lui	s8,0x18
    80009f9e:	796c                	ld	a1,240(a0)
    80009fa0:	6c20                	ld	s0,88(s0)
    80009fa2:	6e69                	lui	t3,0x1a
    80009fa4:	2064656b          	.4byte	0x2064656b
    80009fa8:	4c45                	li	s8,17
    80009faa:	2046                	fld	ft0,80(sp)
    80009fac:	7270                	ld	a2,224(a2)
    80009fae:	6172676f          	jal	a4,80030dc4 <_end+0x18dc4>
    80009fb2:	0a6d                	add	s4,s4,27
    80009fb4:	0000                	unimp
    80009fb6:	0000                	unimp
    80009fb8:	6c756f63          	bltu	a0,t2,8000a696 <softfloat_countLeadingZeros8+0xa5e>
    80009fbc:	6e64                	ld	s1,216(a2)
    80009fbe:	6f207427          	.4byte	0x6f207427
    80009fc2:	6570                	ld	a2,200(a0)
    80009fc4:	206e                	fld	ft0,216(sp)
    80009fc6:	4c45                	li	s8,17
    80009fc8:	2046                	fld	ft0,80(sp)
    80009fca:	7270                	ld	a2,224(a2)
    80009fcc:	6172676f          	jal	a4,80030de2 <_end+0x18de2>
    80009fd0:	3a6d                	addw	s4,s4,-5
    80009fd2:	2520                	fld	fs0,72(a0)
    80009fd4:	000a2173          	csrrs	sp,ustatus,s4
    80009fd8:	7325                	lui	t1,0xfffe9
    80009fda:	2520                	fld	fs0,72(a0)
    80009fdc:	786c                	ld	a1,240(s0)
    80009fde:	6325                	lui	t1,0x9
	...
    80009fe8:	6370                	ld	a2,192(a4)
    80009fea:	2520                	fld	fs0,72(a0)
    80009fec:	786c                	ld	a1,240(s0)
    80009fee:	7620                	ld	s0,104(a2)
    80009ff0:	2f61                	addw	t5,t5,24 # 1a018 <MEM_START-0x7ffe5fe8>
    80009ff2:	6e69                	lui	t3,0x1a
    80009ff4:	25207473          	csrrc	s0,0x252,0
    80009ff8:	786c                	ld	a1,240(s0)
    80009ffa:	7320                	ld	s0,96(a4)
    80009ffc:	2072                	fld	ft0,280(sp)
    80009ffe:	6c25                	lui	s8,0x9
    8000a000:	0a78                	add	a4,sp,284
    8000a002:	0000                	unimp
    8000a004:	0000                	unimp
    8000a006:	0000                	unimp
    8000a008:	7361                	lui	t1,0xffff8
    8000a00a:	74726573          	csrrs	a0,0x747,4
    8000a00e:	6f69                	lui	t5,0x1a
    8000a010:	206e                	fld	ft0,216(sp)
    8000a012:	6166                	ld	sp,88(sp)
    8000a014:	6c69                	lui	s8,0x1a
    8000a016:	6465                	lui	s0,0x19
    8000a018:	4020                	lw	s0,64(s0)
    8000a01a:	2520                	fld	fs0,72(a0)
    8000a01c:	3a70                	fld	fa2,240(a2)
    8000a01e:	2520                	fld	fs0,72(a0)
    8000a020:	00000a73          	.4byte	0xa73
    8000a024:	0000                	unimp
    8000a026:	0000                	unimp
    8000a028:	2074754f          	fnmadd.s	fa0,fs0,ft7,ft4
    8000a02c:	6d20666f          	jal	a2,800106fe <stacks+0x16fe>
    8000a030:	6d65                	lui	s10,0x19
    8000a032:	2179726f          	jal	tp,800a1a48 <_end+0x89a48>
    8000a036:	000a                	c.slli	zero,0x2
    8000a038:	6572                	ld	a0,280(sp)
    8000a03a:	2074                	fld	fa3,192(s0)
    8000a03c:	203e                	fld	ft0,456(sp)
    8000a03e:	0030                	add	a2,sp,8
    8000a040:	7470                	ld	a2,232(s0)
    8000a042:	0065                	c.nop	25
    8000a044:	0000                	unimp
    8000a046:	0000                	unimp
    8000a048:	5f5f 6168 646e      	.byte	0x5f, 0x5f, 0x68, 0x61, 0x6e, 0x64
    8000a04e:	656c                	ld	a1,200(a0)
    8000a050:	705f 6761 5f65      	.byte	0x5f, 0x70, 0x61, 0x67, 0x65, 0x5f
    8000a056:	6166                	ld	sp,88(sp)
    8000a058:	6c75                	lui	s8,0x1d
    8000a05a:	2874                	fld	fa3,208(s0)
    8000a05c:	2c61                	addw	s8,s8,24 # 1d018 <MEM_START-0x7ffe2fe8>
    8000a05e:	7020                	ld	s0,96(s0)
    8000a060:	6f72                	ld	t5,280(sp)
    8000a062:	2974                	fld	fa3,208(a0)
    8000a064:	3d20                	fld	fs0,120(a0)
    8000a066:	203d                	.2byte	0x203d
    8000a068:	0030                	add	a2,sp,8
    8000a06a:	0000                	unimp
    8000a06c:	0000                	unimp
    8000a06e:	0000                	unimp
    8000a070:	7628                	ld	a0,104(a2)
    8000a072:	6461                	lui	s0,0x18
    8000a074:	7264                	ld	s1,224(a2)
    8000a076:	7c20                	ld	s0,120(s0)
    8000a078:	7020                	ld	s0,96(s0)
    8000a07a:	6461                	lui	s0,0x18
    8000a07c:	7264                	ld	s1,224(a2)
    8000a07e:	7c20                	ld	s0,120(s0)
    8000a080:	6c20                	ld	s0,88(s0)
    8000a082:	6e65                	lui	t3,0x19
    8000a084:	2029                	.2byte	0x2029
    8000a086:	2025                	.2byte	0x2025
    8000a088:	656d                	lui	a0,0x1b
    8000a08a:	61706167          	.4byte	0x61706167
    8000a08e:	735f6567          	.4byte	0x735f6567
    8000a092:	7a69                	lui	s4,0xffffa
    8000a094:	2065                	.2byte	0x2065
    8000a096:	3d3d                	addw	s10,s10,-17 # 18fef <MEM_START-0x7ffe7011>
    8000a098:	3020                	fld	fs0,96(s0)
    8000a09a:	0000                	unimp
    8000a09c:	0000                	unimp
    8000a09e:	0000                	unimp
    8000a0a0:	6e72654b          	.4byte	0x6e72654b
    8000a0a4:	6c65                	lui	s8,0x19
    8000a0a6:	0000                	unimp
    8000a0a8:	7355                	lui	t1,0xffff5
    8000a0aa:	7265                	lui	tp,0xffff9
    8000a0ac:	0000                	unimp
    8000a0ae:	0000                	unimp
    8000a0b0:	7325                	lui	t1,0xfffe9
    8000a0b2:	2520                	fld	fs0,72(a0)
    8000a0b4:	65732073          	csrs	hviprio2h,t1
    8000a0b8:	75616667          	.4byte	0x75616667
    8000a0bc:	746c                	ld	a1,232(s0)
    8000a0be:	4020                	lw	s0,64(s0)
    8000a0c0:	2520                	fld	fs0,72(a0)
    8000a0c2:	0a70                	add	a2,sp,284
    8000a0c4:	0000                	unimp
    8000a0c6:	0000                	unimp
    8000a0c8:	726f7453          	.4byte	0x726f7453
    8000a0cc:	2f65                	addw	t5,t5,25 # 1a019 <MEM_START-0x7ffe5fe7>
    8000a0ce:	4d41                	li	s10,16
    8000a0d0:	6361204f          	fnmadd.d	ft0,ft2,fs6,fa2,rdn
    8000a0d4:	73736563          	bltu	t1,s7,8000a7fe <softfloat_countLeadingZeros8+0xbc6>
    8000a0d8:	6620                	ld	s0,72(a2)
    8000a0da:	7561                	lui	a0,0xffff8
    8000a0dc:	746c                	ld	a1,232(s0)
    8000a0de:	0a21                	add	s4,s4,8 # ffffffffffffa008 <_end+0xffffffff7ffe2008>
	...
    8000a0e8:	694d                	lui	s2,0x13
    8000a0ea:	696c6173          	csrrs	sp,0x696,24
    8000a0ee:	64656e67          	.4byte	0x64656e67
    8000a0f2:	4120                	lw	s0,64(a0)
    8000a0f4:	4f4d                	li	t5,19
    8000a0f6:	0a21                	add	s4,s4,8
	...
    8000a100:	6f4c                	ld	a1,152(a4)
    8000a102:	6461                	lui	s0,0x18
    8000a104:	6120                	ld	s0,64(a0)
    8000a106:	73656363          	bltu	a0,s6,8000a82c <softfloat_countLeadingZeros8+0xbf4>
    8000a10a:	61662073          	csrs	0x616,a2
    8000a10e:	6c75                	lui	s8,0x1d
    8000a110:	2174                	fld	fa3,192(a0)
    8000a112:	000a                	c.slli	zero,0x2
    8000a114:	0000                	unimp
    8000a116:	0000                	unimp
    8000a118:	694d                	lui	s2,0x13
    8000a11a:	696c6173          	csrrs	sp,0x696,24
    8000a11e:	64656e67          	.4byte	0x64656e67
    8000a122:	4c20                	lw	s0,88(s0)
    8000a124:	2164616f          	jal	sp,8005033a <_end+0x3833a>
    8000a128:	000a                	c.slli	zero,0x2
    8000a12a:	0000                	unimp
    8000a12c:	0000                	unimp
    8000a12e:	0000                	unimp
    8000a130:	7242                	ld	tp,48(sp)
    8000a132:	6165                	add	sp,sp,112
    8000a134:	696f706b          	.4byte	0x696f706b
    8000a138:	746e                	ld	s0,248(sp)
    8000a13a:	0a21                	add	s4,s4,8
    8000a13c:	0000                	unimp
    8000a13e:	0000                	unimp
    8000a140:	6e41                	lui	t3,0x10
    8000a142:	6920                	ld	s0,80(a0)
    8000a144:	6c6c                	ld	a1,216(s0)
    8000a146:	6765                	lui	a4,0x19
    8000a148:	6c61                	lui	s8,0x18
    8000a14a:	6920                	ld	s0,80(a0)
    8000a14c:	736e                	ld	t1,248(sp)
    8000a14e:	7274                	ld	a3,224(a2)
    8000a150:	6375                	lui	t1,0x1d
    8000a152:	6974                	ld	a3,208(a0)
    8000a154:	77206e6f          	jal	t3,800108c6 <stacks+0x18c6>
    8000a158:	7361                	lui	t1,0xffff8
    8000a15a:	6520                	ld	s0,72(a0)
    8000a15c:	6578                	ld	a4,200(a0)
    8000a15e:	65747563          	bgeu	s0,s7,8000a7a8 <softfloat_countLeadingZeros8+0xb70>
    8000a162:	2164                	fld	fs1,192(a0)
    8000a164:	000a                	c.slli	zero,0x2
    8000a166:	0000                	unimp
    8000a168:	6e49                	lui	t3,0x12
    8000a16a:	75727473          	csrrc	s0,0x757,4
    8000a16e:	6f697463          	bgeu	s2,s6,8000a856 <softfloat_countLeadingZeros8+0xc1e>
    8000a172:	206e                	fld	ft0,216(sp)
    8000a174:	6361                	lui	t1,0x18
    8000a176:	73736563          	bltu	t1,s7,8000a8a0 <softfloat_countLeadingZeros8+0xc68>
    8000a17a:	6620                	ld	s0,72(a2)
    8000a17c:	7561                	lui	a0,0xffff8
    8000a17e:	746c                	ld	a1,232(s0)
    8000a180:	0a21                	add	s4,s4,8
    8000a182:	0000                	unimp
    8000a184:	0000                	unimp
    8000a186:	0000                	unimp
    8000a188:	694d                	lui	s2,0x13
    8000a18a:	696c6173          	csrrs	sp,0x696,24
    8000a18e:	64656e67          	.4byte	0x64656e67
    8000a192:	6920                	ld	s0,80(a0)
    8000a194:	736e                	ld	t1,248(sp)
    8000a196:	7274                	ld	a3,224(a2)
    8000a198:	6375                	lui	t1,0x1d
    8000a19a:	6974                	ld	a3,208(a0)
    8000a19c:	61206e6f          	jal	t3,800107ae <stacks+0x17ae>
    8000a1a0:	73656363          	bltu	a0,s6,8000a8c6 <softfloat_countLeadingZeros8+0xc8e>
    8000a1a4:	000a2173          	csrrs	sp,ustatus,s4
    8000a1a8:	726f7473          	csrrc	s0,mhpmevent6h,30
    8000a1ac:	0065                	c.nop	25
    8000a1ae:	0000                	unimp
    8000a1b0:	6f6c                	ld	a1,216(a4)
    8000a1b2:	6461                	lui	s0,0x18
    8000a1b4:	0000                	unimp
    8000a1b6:	0000                	unimp
    8000a1b8:	6566                	ld	a0,88(sp)
    8000a1ba:	6374                	ld	a3,192(a4)
    8000a1bc:	0068                	add	a0,sp,12
    8000a1be:	0000                	unimp
    8000a1c0:	6674                	ld	a3,200(a2)
    8000a1c2:	3e2d                	addw	t3,t3,-21 # 11feb <MEM_START-0x7ffee015>
    8000a1c4:	73756163          	bltu	a0,s7,8000a8e6 <softfloat_countLeadingZeros8+0xcae>
    8000a1c8:	2065                	.2byte	0x2065
    8000a1ca:	203c                	fld	fa5,64(s0)
    8000a1cc:	5241                	li	tp,-16
    8000a1ce:	4152                	lw	sp,20(sp)
    8000a1d0:	5f59                	li	t5,-10
    8000a1d2:	455a4953          	.4byte	0x455a4953
    8000a1d6:	7428                	ld	a0,104(s0)
    8000a1d8:	6172                	ld	sp,280(sp)
    8000a1da:	5f70                	lw	a2,124(a4)
    8000a1dc:	6168                	ld	a0,192(a0)
    8000a1de:	646e                	ld	s0,216(sp)
    8000a1e0:	656c                	ld	a1,200(a0)
    8000a1e2:	7372                	ld	t1,312(sp)
    8000a1e4:	2029                	.2byte	0x2029
    8000a1e6:	2626                	fld	fa2,72(sp)
    8000a1e8:	7420                	ld	s0,104(s0)
    8000a1ea:	6172                	ld	sp,280(sp)
    8000a1ec:	5f70                	lw	a2,124(a4)
    8000a1ee:	6168                	ld	a0,192(a0)
    8000a1f0:	646e                	ld	s0,216(sp)
    8000a1f2:	656c                	ld	a1,200(a0)
    8000a1f4:	7372                	ld	t1,312(sp)
    8000a1f6:	2d66745b          	.4byte	0x2d66745b
    8000a1fa:	633e                	ld	t1,456(sp)
    8000a1fc:	7561                	lui	a0,0xffff8
    8000a1fe:	005d6573          	csrrs	a0,utvec,26
    8000a202:	0000                	unimp
    8000a204:	0000                	unimp
    8000a206:	0000                	unimp
    8000a208:	6c25                	lui	s8,0x9
    8000a20a:	646c                	ld	a1,200(s0)
    8000a20c:	7420                	ld	s0,104(s0)
    8000a20e:	6369                	lui	t1,0x1a
    8000a210:	000a736b          	.4byte	0xa736b
    8000a214:	0000                	unimp
    8000a216:	0000                	unimp
    8000a218:	6c25                	lui	s8,0x9
    8000a21a:	646c                	ld	a1,200(s0)
    8000a21c:	6320                	ld	s0,64(a4)
    8000a21e:	6379                	lui	t1,0x1e
    8000a220:	656c                	ld	a1,200(a0)
    8000a222:	00000a73          	.4byte	0xa73
    8000a226:	0000                	unimp
    8000a228:	6c25                	lui	s8,0x9
    8000a22a:	646c                	ld	a1,200(s0)
    8000a22c:	6920                	ld	s0,80(a0)
    8000a22e:	736e                	ld	t1,248(sp)
    8000a230:	7274                	ld	a3,224(a2)
    8000a232:	6375                	lui	t1,0x1d
    8000a234:	6974                	ld	a3,208(a0)
    8000a236:	0a736e6f          	jal	t3,80040adc <_end+0x28adc>
    8000a23a:	0000                	unimp
    8000a23c:	0000                	unimp
    8000a23e:	0000                	unimp
    8000a240:	6425                	lui	s0,0x9
    8000a242:	252e                	fld	fa0,200(sp)
    8000a244:	2564                	fld	fs1,200(a0)
    8000a246:	2064                	fld	fs1,192(s0)
    8000a248:	0a495043          	fmadd.d	ft0,fs2,ft4,ft1,unknown
    8000a24c:	0000                	unimp
    8000a24e:	0000                	unimp
    8000a250:	6c66                	ld	s8,88(sp)
    8000a252:	6761                	lui	a4,0x18
    8000a254:	3d3d2073          	csrs	0x3d3,s10
    8000a258:	3020                	fld	fs0,96(s0)
    8000a25a:	0000                	unimp
    8000a25c:	0000                	unimp
    8000a25e:	0000                	unimp
    8000a260:	7250                	ld	a2,160(a2)
    8000a262:	2079786f          	jal	a6,800a1c68 <_end+0x89c68>
    8000a266:	6e72654b          	.4byte	0x6e72654b
    8000a26a:	6c65                	lui	s8,0x19
    8000a26c:	0000                	unimp
    8000a26e:	0000                	unimp
    8000a270:	2e34                	fld	fa3,88(a2)
    8000a272:	3531                	addw	a0,a0,-20 # ffffffffffff7fec <_end+0xffffffff7ffdffec>
    8000a274:	302e                	fld	ft0,232(sp)
    8000a276:	0000                	unimp
    8000a278:	6f50                	ld	a2,152(a4)
    8000a27a:	20726577          	.4byte	0x20726577
    8000a27e:	0d66666f          	jal	a2,80070354 <_end+0x58354>
    8000a282:	000a                	c.slli	zero,0x2
    8000a284:	0000                	unimp
    8000a286:	0000                	unimp
    8000a288:	2e2e                	fld	ft8,200(sp)
    8000a28a:	63616d2f          	.4byte	0x63616d2f
    8000a28e:	6968                	ld	a0,208(a0)
    8000a290:	656e                	ld	a0,216(sp)
    8000a292:	72746d2f          	.4byte	0x72746d2f
    8000a296:	7061                	c.lui	zero,0xffff8
    8000a298:	632e                	ld	t1,200(sp)
    8000a29a:	0000                	unimp
    8000a29c:	0000                	unimp
    8000a29e:	0000                	unimp
    8000a2a0:	7325                	lui	t1,0xfffe9
    8000a2a2:	253a                	fld	fa0,392(sp)
    8000a2a4:	3a64                	fld	fs1,240(a2)
    8000a2a6:	6d20                	ld	s0,88(a0)
    8000a2a8:	6361                	lui	t1,0x18
    8000a2aa:	6968                	ld	a0,208(a0)
    8000a2ac:	656e                	ld	a0,216(sp)
    8000a2ae:	6d20                	ld	s0,88(a0)
    8000a2b0:	3a65646f          	jal	s0,80060656 <_end+0x48656>
    8000a2b4:	7520                	ld	s0,104(a0)
    8000a2b6:	686e                	ld	a6,216(sp)
    8000a2b8:	6e61                	lui	t3,0x18
    8000a2ba:	6c64                	ld	s1,216(s0)
    8000a2bc:	6261                	lui	tp,0x18
    8000a2be:	656c                	ld	a1,200(a0)
    8000a2c0:	7420                	ld	s0,104(s0)
    8000a2c2:	6172                	ld	sp,280(sp)
    8000a2c4:	2070                	fld	fa2,192(s0)
    8000a2c6:	6425                	lui	s0,0x9
    8000a2c8:	4020                	lw	s0,64(s0)
    8000a2ca:	2520                	fld	fs0,72(a0)
    8000a2cc:	0a70                	add	a2,sp,284
    8000a2ce:	0000                	unimp
    8000a2d0:	6572                	ld	a0,280(sp)
    8000a2d2:	6461                	lui	s0,0x18
    8000a2d4:	635f 7273 6d28      	.byte	0x5f, 0x63, 0x73, 0x72, 0x28, 0x6d
    8000a2da:	74617473          	csrrc	s0,0x746,2
    8000a2de:	7375                	lui	t1,0xffffd
    8000a2e0:	2029                	.2byte	0x2029
    8000a2e2:	2026                	fld	ft0,72(sp)
    8000a2e4:	534d                	li	t1,-13
    8000a2e6:	4154                	lw	a3,4(a0)
    8000a2e8:	5554                	lw	a3,44(a0)
    8000a2ea:	53465f53          	.4byte	0x53465f53
    8000a2ee:	0000                	unimp
    8000a2f0:	2e2e                	fld	ft8,200(sp)
    8000a2f2:	63616d2f          	.4byte	0x63616d2f
    8000a2f6:	6968                	ld	a0,208(a0)
    8000a2f8:	656e                	ld	a0,216(sp)
    8000a2fa:	6e696d2f          	.4byte	0x6e696d2f
    8000a2fe:	7469                	lui	s0,0xffffa
    8000a300:	632e                	ld	t1,200(sp)
    8000a302:	0000                	unimp
    8000a304:	0000                	unimp
    8000a306:	0000                	unimp
    8000a308:	7228                	ld	a0,96(a2)
    8000a30a:	6165                	add	sp,sp,112
    8000a30c:	5f64                	lw	s1,124(a4)
    8000a30e:	28727363          	bgeu	tp,t2,8000a594 <softfloat_countLeadingZeros8+0x95c>
    8000a312:	696d                	lui	s2,0x1b
    8000a314:	6564                	ld	s1,200(a0)
    8000a316:	656c                	ld	a1,200(a0)
    8000a318:	26202967          	.4byte	0x26202967
    8000a31c:	6920                	ld	s0,80(a0)
    8000a31e:	746e                	ld	s0,248(sp)
    8000a320:	7265                	lui	tp,0xffff9
    8000a322:	7572                	ld	a0,312(sp)
    8000a324:	7470                	ld	a2,232(s0)
    8000a326:	3d202973          	csrr	s2,0x3d2
    8000a32a:	203d                	.2byte	0x203d
    8000a32c:	6e69                	lui	t3,0x1a
    8000a32e:	6574                	ld	a3,200(a0)
    8000a330:	7272                	ld	tp,312(sp)
    8000a332:	7075                	c.lui	zero,0xffffd
    8000a334:	7374                	ld	a3,224(a4)
    8000a336:	0000                	unimp
    8000a338:	6572                	ld	a0,280(sp)
    8000a33a:	6461                	lui	s0,0x18
    8000a33c:	635f 7273 6d28      	.byte	0x5f, 0x63, 0x73, 0x72, 0x28, 0x6d
    8000a342:	6465                	lui	s0,0x19
    8000a344:	6c65                	lui	s8,0x19
    8000a346:	6765                	lui	a4,0x19
    8000a348:	2029                	.2byte	0x2029
    8000a34a:	3d3d                	addw	s10,s10,-17
    8000a34c:	6520                	ld	s0,72(a0)
    8000a34e:	6378                	ld	a4,192(a4)
    8000a350:	7065                	c.lui	zero,0xffff9
    8000a352:	6974                	ld	a3,208(a0)
    8000a354:	00736e6f          	jal	t3,80040b5a <_end+0x28b5a>
    8000a358:	6262                	ld	tp,24(sp)
    8000a35a:	206c                	fld	fa1,192(s0)
    8000a35c:	6f6c                	ld	a1,216(a4)
    8000a35e:	6461                	lui	s0,0x18
    8000a360:	7265                	lui	tp,0xffff9
    8000a362:	0a0d                	add	s4,s4,3
    8000a364:	0000                	unimp
    8000a366:	0000                	unimp
    8000a368:	5246                	lw	tp,112(sp)
    8000a36a:	4f484d4f          	.4byte	0x4f484d4f
    8000a36e:	445f5453          	.4byte	0x445f5453
    8000a372:	5645                	li	a2,-15
    8000a374:	6628                	ld	a0,72(a2)
    8000a376:	2968                	fld	fa0,208(a0)
    8000a378:	3d20                	fld	fs0,120(a0)
    8000a37a:	203d                	.2byte	0x203d
    8000a37c:	0031                	c.nop	12
    8000a37e:	0000                	unimp
    8000a380:	2e2e                	fld	ft8,200(sp)
    8000a382:	63616d2f          	.4byte	0x63616d2f
    8000a386:	6968                	ld	a0,208(a0)
    8000a388:	656e                	ld	a0,216(sp)
    8000a38a:	6974682f          	.4byte	0x6974682f
    8000a38e:	2e66                	fld	ft8,88(sp)
    8000a390:	00000063          	beqz	zero,8000a390 <softfloat_countLeadingZeros8+0x758>
    8000a394:	0000                	unimp
    8000a396:	0000                	unimp
    8000a398:	706d6f63          	bltu	s10,t1,8000aab6 <softfloat_countLeadingZeros8+0xe7e>
    8000a39c:	7461                	lui	s0,0xffff8
    8000a39e:	6269                	lui	tp,0x1a
    8000a3a0:	656c                	ld	a1,200(a0)
    8000a3a2:	0000                	unimp
    8000a3a4:	0000                	unimp
    8000a3a6:	0000                	unimp
    8000a3a8:	6375                	lui	t1,0x1d
    8000a3aa:	2c62                	fld	fs8,24(sp)
    8000a3ac:	7468                	ld	a0,232(s0)
    8000a3ae:	6669                	lui	a2,0x1a
    8000a3b0:	0030                	add	a2,sp,8
    8000a3b2:	0000                	unimp
    8000a3b4:	0000                	unimp
    8000a3b6:	0000                	unimp
    8000a3b8:	69666973          	csrrs	s2,0x696,12
    8000a3bc:	6576                	ld	a0,344(sp)
    8000a3be:	752c                	ld	a1,104(a0)
    8000a3c0:	7261                	lui	tp,0xffff8
    8000a3c2:	3074                	fld	fa3,224(s0)
    8000a3c4:	0000                	unimp
    8000a3c6:	0000                	unimp
    8000a3c8:	6572                	ld	a0,280(sp)
    8000a3ca:	00000067          	jr	zero # 0 <MEM_START-0x80000000>
    8000a3ce:	0000                	unimp
    8000a3d0:	736e                	ld	t1,248(sp)
    8000a3d2:	3631                	addw	a2,a2,-20 # 19fec <MEM_START-0x7ffe6014>
    8000a3d4:	3535                	addw	a0,a0,-19
    8000a3d6:	6130                	ld	a2,64(a0)
	...
    8000a3e0:	736e                	ld	t1,248(sp)
    8000a3e2:	3631                	addw	a2,a2,-20
    8000a3e4:	00303537          	lui	a0,0x303
    8000a3e8:	6572                	ld	a0,280(sp)
    8000a3ea:	68732d67          	.4byte	0x68732d67
    8000a3ee:	6669                	lui	a2,0x1a
    8000a3f0:	0074                	add	a3,sp,12
    8000a3f2:	0000                	unimp
    8000a3f4:	0000                	unimp
    8000a3f6:	0000                	unimp
    8000a3f8:	6572                	ld	a0,280(sp)
    8000a3fa:	666f2d67          	.4byte	0x666f2d67
    8000a3fe:	7366                	ld	t1,120(sp)
    8000a400:	7465                	lui	s0,0xffff9
    8000a402:	0000                	unimp
    8000a404:	0000                	unimp
    8000a406:	0000                	unimp
    8000a408:	72727563          	bgeu	tp,t2,8000ab32 <softfloat_countLeadingZeros8+0xefa>
    8000a40c:	6e65                	lui	t3,0x19
    8000a40e:	2d74                	fld	fa3,216(a0)
    8000a410:	65657073          	csrc	hviprio1h,10
    8000a414:	0064                	add	s1,sp,12
    8000a416:	0000                	unimp
    8000a418:	636f6c63          	bltu	t5,s6,8000aa50 <softfloat_countLeadingZeros8+0xe18>
    8000a41c:	72662d6b          	.4byte	0x72662d6b
    8000a420:	7165                	add	sp,sp,-400
    8000a422:	6575                	lui	a0,0x1d
    8000a424:	636e                	ld	t1,216(sp)
    8000a426:	0079                	c.nop	30
    8000a428:	696c                	ld	a1,208(a0)
    8000a42a:	6574                	ld	a3,200(a0)
    8000a42c:	2c78                	fld	fa4,216(s0)
    8000a42e:	6175                	add	sp,sp,368
    8000a430:	7472                	ld	s0,312(sp)
    8000a432:	0030                	add	a2,sp,8
    8000a434:	0000                	unimp
    8000a436:	0000                	unimp
    8000a438:	696c                	ld	a1,208(a0)
    8000a43a:	6574                	ld	a3,200(a0)
    8000a43c:	2c78                	fld	fa4,216(s0)
    8000a43e:	696c                	ld	a1,208(a0)
    8000a440:	6574                	ld	a3,200(a0)
    8000a442:	6175                	add	sp,sp,368
    8000a444:	7472                	ld	s0,312(sp)
    8000a446:	0000                	unimp
    8000a448:	69666973          	csrrs	s2,0x696,12
    8000a44c:	6576                	ld	a0,344(sp)
    8000a44e:	742c                	ld	a1,104(s0)
    8000a450:	7365                	lui	t1,0xffff9
    8000a452:	3074                	fld	fa3,224(s0)
    8000a454:	0000                	unimp
    8000a456:	0000                	unimp
    8000a458:	6564                	ld	s1,200(a0)
    8000a45a:	6976                	ld	s2,344(sp)
    8000a45c:	745f6563          	bltu	t5,t0,8000aba6 <softfloat_countLeadingZeros8+0xf6e>
    8000a460:	7079                	c.lui	zero,0xffffe
    8000a462:	0065                	c.nop	25
    8000a464:	0000                	unimp
    8000a466:	0000                	unimp
    8000a468:	656d                	lui	a0,0x1b
    8000a46a:	6f6d                	lui	t5,0x1b
    8000a46c:	7972                	ld	s2,312(sp)
    8000a46e:	0000                	unimp
    8000a470:	736f6863          	bltu	t5,s6,8000aba0 <softfloat_countLeadingZeros8+0xf68>
    8000a474:	6e65                	lui	t3,0x19
    8000a476:	0000                	unimp
    8000a478:	6c21                	lui	s8,0x8
    8000a47a:	7361                	lui	t1,0xffff8
    8000a47c:	0074                	add	a3,sp,12
    8000a47e:	0000                	unimp
    8000a480:	2e2e                	fld	ft8,200(sp)
    8000a482:	63616d2f          	.4byte	0x63616d2f
    8000a486:	6968                	ld	a0,208(a0)
    8000a488:	656e                	ld	a0,216(sp)
    8000a48a:	7464662f          	.4byte	0x7464662f
    8000a48e:	632e                	ld	t1,200(sp)
	...
    8000a498:	64646123          	.4byte	0x64646123
    8000a49c:	6572                	ld	a0,280(sp)
    8000a49e:	632d7373          	csrrc	t1,0x632,26
    8000a4a2:	6c65                	lui	s8,0x19
    8000a4a4:	736c                	ld	a1,224(a4)
    8000a4a6:	0000                	unimp
    8000a4a8:	7a697323          	.4byte	0x7a697323
    8000a4ac:	2d65                	addw	s10,s10,25
    8000a4ae:	6c6c6563          	bltu	s8,t1,8000ab78 <softfloat_countLeadingZeros8+0xf40>
    8000a4b2:	00000073          	ecall
    8000a4b6:	0000                	unimp
    8000a4b8:	6e616373          	csrrs	t1,0x6e6,2
    8000a4bc:	3e2d                	addw	t3,t3,-21 # 18feb <MEM_START-0x7ffe7015>
    8000a4be:	6572                	ld	a0,280(sp)
    8000a4c0:	3d212067          	.4byte	0x3d212067
    8000a4c4:	3020                	fld	fs0,96(s0)
    8000a4c6:	0000                	unimp
    8000a4c8:	6e616373          	csrrs	t1,0x6e6,2
    8000a4cc:	3e2d                	addw	t3,t3,-21
    8000a4ce:	6e69                	lui	t3,0x1a
    8000a4d0:	5f74                	lw	a3,124(a4)
    8000a4d2:	6176                	ld	sp,344(sp)
    8000a4d4:	756c                	ld	a1,232(a0)
    8000a4d6:	2065                	.2byte	0x2065
    8000a4d8:	2626                	fld	fa2,72(sp)
    8000a4da:	7320                	ld	s0,96(a4)
    8000a4dc:	2d6e6163          	bltu	t3,s6,8000a79e <softfloat_countLeadingZeros8+0xb66>
    8000a4e0:	693e                	ld	s2,456(sp)
    8000a4e2:	746e                	ld	s0,248(sp)
    8000a4e4:	6c5f 6e65 2520      	.byte	0x5f, 0x6c, 0x65, 0x6e, 0x20, 0x25
    8000a4ea:	3120                	fld	fs0,96(a0)
    8000a4ec:	2036                	fld	ft0,328(sp)
    8000a4ee:	3d3d                	addw	s10,s10,-17
    8000a4f0:	3020                	fld	fs0,96(s0)
    8000a4f2:	0000                	unimp
    8000a4f4:	0000                	unimp
    8000a4f6:	0000                	unimp
    8000a4f8:	7321                	lui	t1,0xfffe8
    8000a4fa:	2d6e6163          	bltu	t3,s6,8000a7bc <softfloat_countLeadingZeros8+0xb84>
    8000a4fe:	643e                	ld	s0,456(sp)
    8000a500:	00656e6f          	jal	t3,80060506 <_end+0x48506>
    8000a504:	0000                	unimp
    8000a506:	0000                	unimp
    8000a508:	6e616373          	csrrs	t1,0x6e6,2
    8000a50c:	3e2d                	addw	t3,t3,-21 # 19feb <MEM_START-0x7ffe6015>
    8000a50e:	6e69                	lui	t3,0x1a
    8000a510:	5f74                	lw	a3,124(a4)
    8000a512:	6176                	ld	sp,344(sp)
    8000a514:	756c                	ld	a1,232(a0)
    8000a516:	2065                	.2byte	0x2065
    8000a518:	2626                	fld	fa2,72(sp)
    8000a51a:	7320                	ld	s0,96(a4)
    8000a51c:	2d6e6163          	bltu	t3,s6,8000a7de <softfloat_countLeadingZeros8+0xba6>
    8000a520:	693e                	ld	s2,456(sp)
    8000a522:	746e                	ld	s0,248(sp)
    8000a524:	6c5f 6e65 2520      	.byte	0x5f, 0x6c, 0x65, 0x6e, 0x20, 0x25
    8000a52a:	3820                	fld	fs0,112(s0)
    8000a52c:	3d20                	fld	fs0,120(a0)
    8000a52e:	203d                	.2byte	0x203d
    8000a530:	0030                	add	a2,sp,8
    8000a532:	0000                	unimp
    8000a534:	0000                	unimp
    8000a536:	0000                	unimp
    8000a538:	6e616373          	csrrs	t1,0x6e6,2
    8000a53c:	3e2d                	addw	t3,t3,-21 # 19feb <MEM_START-0x7ffe6015>
    8000a53e:	646e                	ld	s0,216(sp)
    8000a540:	7665                	lui	a2,0xffff9
    8000a542:	3e20                	fld	fs0,120(a2)
    8000a544:	203d                	.2byte	0x203d
    8000a546:	2030                	fld	fa2,64(s0)
    8000a548:	2626                	fld	fa2,72(sp)
    8000a54a:	7320                	ld	s0,96(a4)
    8000a54c:	2d6e6163          	bltu	t3,s6,8000a80e <softfloat_countLeadingZeros8+0xbd6>
    8000a550:	6e3e                	ld	t3,456(sp)
    8000a552:	6564                	ld	s1,200(a0)
    8000a554:	2076                	fld	ft0,344(sp)
    8000a556:	203c                	fld	fa5,64(s0)
    8000a558:	3031                	.2byte	0x3031
    8000a55a:	3432                	fld	fs0,296(sp)
    8000a55c:	0000                	unimp
    8000a55e:	0000                	unimp
    8000a560:	4c50                	lw	a2,28(s0)
    8000a562:	4349                	li	t1,18
    8000a564:	7720                	ld	s0,104(a4)
    8000a566:	7269                	lui	tp,0xffffa
    8000a568:	6465                	lui	s0,0x19
    8000a56a:	6820                	ld	s0,80(s0)
    8000a56c:	7261                	lui	tp,0xffff8
    8000a56e:	2074                	fld	fa3,192(s0)
    8000a570:	6425                	lui	s0,0x9
    8000a572:	7420                	ld	s0,104(s0)
    8000a574:	7277206f          	j	8007d49a <_end+0x6549a>
    8000a578:	20676e6f          	jal	t3,8008077e <_end+0x6877e>
    8000a57c:	6e69                	lui	t3,0x1a
    8000a57e:	6574                	ld	a3,200(a0)
    8000a580:	7272                	ld	tp,312(sp)
    8000a582:	7075                	c.lui	zero,0xffffd
    8000a584:	2074                	fld	fa3,192(s0)
    8000a586:	6425                	lui	s0,0x9
	...
    8000a590:	6e616373          	csrrs	t1,0x6e6,2
    8000a594:	3e2d                	addw	t3,t3,-21 # 19feb <MEM_START-0x7ffe6015>
    8000a596:	6168                	ld	a0,192(a0)
    8000a598:	7472                	ld	s0,312(sp)
    8000a59a:	3e20                	fld	fs0,120(a2)
    8000a59c:	203d                	.2byte	0x203d
    8000a59e:	0030                	add	a2,sp,8
    8000a5a0:	6e616373          	csrrs	t1,0x6e6,2
    8000a5a4:	3e2d                	addw	t3,t3,-21
    8000a5a6:	6870                	ld	a2,208(s0)
    8000a5a8:	6e61                	lui	t3,0x18
    8000a5aa:	6c64                	ld	s1,216(s0)
    8000a5ac:	2065                	.2byte	0x2065
    8000a5ae:	203e                	fld	ft0,456(sp)
    8000a5b0:	0030                	add	a2,sp,8
    8000a5b2:	0000                	unimp
    8000a5b4:	0000                	unimp
    8000a5b6:	0000                	unimp
    8000a5b8:	6e616373          	csrrs	t1,0x6e6,2
    8000a5bc:	3e2d                	addw	t3,t3,-21 # 17feb <MEM_START-0x7ffe8015>
    8000a5be:	6c6c6563          	bltu	s8,t1,8000ac88 <softfloat_countLeadingZeros8+0x1050>
    8000a5c2:	3d3d2073          	csrs	0x3d3,s10
    8000a5c6:	3120                	fld	fs0,96(a0)
	...
    8000a5d0:	6966                	ld	s2,88(sp)
    8000a5d2:	746c                	ld	a1,232(s0)
    8000a5d4:	7265                	lui	tp,0xffff9
    8000a5d6:	3e2d                	addw	t3,t3,-21
    8000a5d8:	74617473          	csrrc	s0,0x746,2
    8000a5dc:	7375                	lui	t1,0xffffd
    8000a5de:	0000                	unimp
    8000a5e0:	6966                	ld	s2,88(sp)
    8000a5e2:	746c                	ld	a1,232(s0)
    8000a5e4:	7265                	lui	tp,0xffff9
    8000a5e6:	3e2d                	addw	t3,t3,-21
    8000a5e8:	6168                	ld	a0,192(a0)
    8000a5ea:	7472                	ld	s0,312(sp)
    8000a5ec:	3e20                	fld	fs0,120(a2)
    8000a5ee:	203d                	.2byte	0x203d
    8000a5f0:	0030                	add	a2,sp,8
    8000a5f2:	0000                	unimp
    8000a5f4:	0000                	unimp
    8000a5f6:	0000                	unimp
    8000a5f8:	79616b6f          	jal	s6,80020d8e <_end+0x8d8e>
    8000a5fc:	0000                	unimp
    8000a5fe:	0000                	unimp
    8000a600:	6972                	ld	s2,280(sp)
    8000a602:	2c766373          	csrrs	t1,0x2c7,12
    8000a606:	39337673          	csrrc	a2,0x393,6
    8000a60a:	0000                	unimp
    8000a60c:	0000                	unimp
    8000a60e:	0000                	unimp
    8000a610:	6972                	ld	s2,280(sp)
    8000a612:	2c766373          	csrrs	t1,0x2c7,12
    8000a616:	38347673          	csrrc	a2,0x383,8
    8000a61a:	0000                	unimp
    8000a61c:	0000                	unimp
    8000a61e:	0000                	unimp
    8000a620:	6168                	ld	a0,192(a0)
    8000a622:	7472                	ld	s0,312(sp)
    8000a624:	665f 6c69 6574      	.byte	0x5f, 0x66, 0x69, 0x6c, 0x74, 0x65
    8000a62a:	5f72                	lw	t5,60(sp)
    8000a62c:	616d                	add	sp,sp,240
    8000a62e:	73206b73          	csrrs	s6,mhpmevent18h,0
    8000a632:	7761                	lui	a4,0xffff8
    8000a634:	7520                	ld	s0,104(a0)
    8000a636:	6b6e                	ld	s6,216(sp)
    8000a638:	6f6e                	ld	t5,216(sp)
    8000a63a:	68206e77          	.4byte	0x68206e77
    8000a63e:	7261                	lui	tp,0xffff8
    8000a640:	2074                	fld	fa3,192(s0)
    8000a642:	7974                	ld	a3,240(a0)
    8000a644:	6570                	ld	a2,200(a0)
    8000a646:	203a                	fld	ft0,392(sp)
    8000a648:	74617473          	csrrc	s0,0x746,2
    8000a64c:	7375                	lui	t1,0xffffd
    8000a64e:	223d                	addw	tp,tp,15 # ffffffffffff800f <_end+0xffffffff7ffe000f>
    8000a650:	7325                	lui	t1,0xfffe9
    8000a652:	2c22                	fld	fs8,8(sp)
    8000a654:	6d20                	ld	s0,88(a0)
    8000a656:	756d                	lui	a0,0xffffb
    8000a658:	745f 7079 3d65      	.byte	0x5f, 0x74, 0x79, 0x70, 0x65, 0x3d
    8000a65e:	2522                	fld	fa0,8(sp)
    8000a660:	000a2273          	csrrs	tp,ustatus,s4
    8000a664:	0000                	unimp
    8000a666:	0000                	unimp
    8000a668:	616d                	add	sp,sp,240
    8000a66a:	64656b73          	csrrs	s6,hviprio1,10
    8000a66e:	0000                	unimp
    8000a670:	6e616373          	csrrs	t1,0x6e6,2
    8000a674:	3e2d                	addw	t3,t3,-21
    8000a676:	6572                	ld	a0,280(sp)
    8000a678:	61765f67          	.4byte	0x61765f67
    8000a67c:	756c                	ld	a1,232(a0)
    8000a67e:	2065                	.2byte	0x2065
    8000a680:	2626                	fld	fa2,72(sp)
    8000a682:	7320                	ld	s0,96(a4)
    8000a684:	2d6e6163          	bltu	t3,s6,8000a946 <softfloat_countLeadingZeros8+0xd0e>
    8000a688:	723e                	ld	tp,488(sp)
    8000a68a:	6765                	lui	a4,0x19
    8000a68c:	6c5f 6e65 2520      	.byte	0x5f, 0x6c, 0x65, 0x6e, 0x20, 0x25
    8000a692:	3420                	fld	fs0,104(s0)
    8000a694:	3d20                	fld	fs0,120(a0)
    8000a696:	203d                	.2byte	0x203d
    8000a698:	0030                	add	a2,sp,8
    8000a69a:	0000                	unimp
    8000a69c:	0000                	unimp
    8000a69e:	0000                	unimp
    8000a6a0:	6e65                	lui	t3,0x19
    8000a6a2:	2064                	fld	fs1,192(s0)
    8000a6a4:	3d3d                	addw	s10,s10,-17
    8000a6a6:	7620                	ld	s0,104(a2)
    8000a6a8:	6c61                	lui	s8,0x18
    8000a6aa:	6575                	lui	a0,0x1d
    8000a6ac:	0000                	unimp
    8000a6ae:	0000                	unimp
    8000a6b0:	00757063          	bgeu	a0,t2,8000a6b0 <softfloat_countLeadingZeros8+0xa78>
    8000a6b4:	0000                	unimp
    8000a6b6:	0000                	unimp
    8000a6b8:	6d6d                	lui	s10,0x1b
    8000a6ba:	2d75                	addw	s10,s10,29 # 1b01d <MEM_START-0x7ffe4fe3>
    8000a6bc:	7974                	ld	a3,240(a0)
    8000a6be:	6570                	ld	a2,200(a0)
	...
    8000a6c8:	6972                	ld	s2,280(sp)
    8000a6ca:	2c766373          	csrrs	t1,0x2c7,12
    8000a6ce:	6e696c63          	bltu	s2,t1,8000adc6 <softfloat_countLeadingZeros8+0x118e>
    8000a6d2:	3074                	fld	fa3,224(s0)
    8000a6d4:	0000                	unimp
    8000a6d6:	0000                	unimp
    8000a6d8:	6e69                	lui	t3,0x1a
    8000a6da:	6574                	ld	a3,200(a0)
    8000a6dc:	7272                	ld	tp,312(sp)
    8000a6de:	7075                	c.lui	zero,0xffffd
    8000a6e0:	7374                	ld	a3,224(a4)
    8000a6e2:	652d                	lui	a0,0xb
    8000a6e4:	7478                	ld	a4,232(s0)
    8000a6e6:	6e65                	lui	t3,0x19
    8000a6e8:	6564                	ld	s1,200(a0)
    8000a6ea:	0064                	add	s1,sp,12
    8000a6ec:	0000                	unimp
    8000a6ee:	0000                	unimp
    8000a6f0:	6972                	ld	s2,280(sp)
    8000a6f2:	2c766373          	csrrs	t1,0x2c7,12
    8000a6f6:	6e72656b          	.4byte	0x6e72656b
    8000a6fa:	6c65                	lui	s8,0x19
    8000a6fc:	732d                	lui	t1,0xfffeb
    8000a6fe:	6174                	ld	a3,192(a0)
    8000a700:	7472                	ld	s0,312(sp)
    8000a702:	0000                	unimp
    8000a704:	0000                	unimp
    8000a706:	0000                	unimp
    8000a708:	6972                	ld	s2,280(sp)
    8000a70a:	2c766373          	csrrs	t1,0x2c7,12
    8000a70e:	6e72656b          	.4byte	0x6e72656b
    8000a712:	6c65                	lui	s8,0x19
    8000a714:	652d                	lui	a0,0xb
    8000a716:	646e                	ld	s0,216(sp)
	...
    8000a720:	6972                	ld	s2,280(sp)
    8000a722:	2c766373          	csrrs	t1,0x2c7,12
    8000a726:	6c70                	ld	a2,216(s0)
    8000a728:	6369                	lui	t1,0x1a
    8000a72a:	0030                	add	a2,sp,8
    8000a72c:	0000                	unimp
    8000a72e:	0000                	unimp
    8000a730:	6972                	ld	s2,280(sp)
    8000a732:	2c766373          	csrrs	t1,0x2c7,12
    8000a736:	646e                	ld	s0,216(sp)
    8000a738:	7665                	lui	a2,0xffff9
    8000a73a:	0000                	unimp
    8000a73c:	0000                	unimp
    8000a73e:	0000                	unimp
    8000a740:	7321                	lui	t1,0xfffe8
    8000a742:	2d6e6163          	bltu	t3,s6,8000aa04 <softfloat_countLeadingZeros8+0xdcc>
    8000a746:	633e                	ld	t1,456(sp)
    8000a748:	7570                	ld	a2,232(a0)
    8000a74a:	0000                	unimp
    8000a74c:	0000                	unimp
    8000a74e:	0000                	unimp
    8000a750:	6e69                	lui	t3,0x1a
    8000a752:	6574                	ld	a3,200(a0)
    8000a754:	7272                	ld	tp,312(sp)
    8000a756:	7075                	c.lui	zero,0xffffd
    8000a758:	2d74                	fld	fa3,216(a0)
    8000a75a:	746e6f63          	bltu	t3,t1,8000aeb8 <softfloat_countLeadingZeros8+0x1280>
    8000a75e:	6f72                	ld	t5,280(sp)
    8000a760:	6c6c                	ld	a1,216(s0)
    8000a762:	7265                	lui	tp,0xffff9
    8000a764:	0000                	unimp
    8000a766:	0000                	unimp
    8000a768:	7321                	lui	t1,0xfffe8
    8000a76a:	2d6e6163          	bltu	t3,s6,8000aa2c <softfloat_countLeadingZeros8+0xdf4>
    8000a76e:	633e                	ld	t1,456(sp)
    8000a770:	72746e6f          	jal	t3,80051696 <_end+0x39696>
    8000a774:	656c6c6f          	jal	s8,800d0dca <_end+0xb8dca>
    8000a778:	0072                	c.slli	zero,0x1c
    8000a77a:	0000                	unimp
    8000a77c:	0000                	unimp
    8000a77e:	0000                	unimp
    8000a780:	746e6923          	.4byte	0x746e6923
    8000a784:	7265                	lui	tp,0xffff9
    8000a786:	7572                	ld	a0,312(sp)
    8000a788:	7470                	ld	a2,232(s0)
    8000a78a:	632d                	lui	t1,0xb
    8000a78c:	6c65                	lui	s8,0x19
    8000a78e:	736c                	ld	a1,224(a4)
	...
    8000a798:	6870                	ld	a2,208(s0)
    8000a79a:	6e61                	lui	t3,0x18
    8000a79c:	6c64                	ld	s1,216(s0)
    8000a79e:	0065                	c.nop	25
    8000a7a0:	656d                	lui	a0,0x1b
    8000a7a2:	5f6d                	li	t5,-5
    8000a7a4:	657a6973          	csrrs	s2,hviprio2h,20
    8000a7a8:	3e20                	fld	fs0,120(a2)
    8000a7aa:	3020                	fld	fs0,96(s0)
    8000a7ac:	0000                	unimp
    8000a7ae:	0000                	unimp
    8000a7b0:	6828                	ld	a0,80(s0)
    8000a7b2:	7261                	lui	tp,0xffff8
    8000a7b4:	5f74                	lw	a3,124(a4)
    8000a7b6:	616d                	add	sp,sp,240
    8000a7b8:	3e206b73          	csrrs	s6,0x3e2,0
    8000a7bc:	203e                	fld	ft0,456(sp)
    8000a7be:	6572                	ld	a0,280(sp)
    8000a7c0:	6461                	lui	s0,0x18
    8000a7c2:	635f 7273 6d28      	.byte	0x5f, 0x63, 0x73, 0x72, 0x28, 0x6d
    8000a7c8:	6168                	ld	a0,192(a0)
    8000a7ca:	7472                	ld	s0,312(sp)
    8000a7cc:	6469                	lui	s0,0x1a
    8000a7ce:	2929                	addw	s2,s2,10 # 1b00a <MEM_START-0x7ffe4ff6>
    8000a7d0:	2120                	fld	fs0,64(a0)
    8000a7d2:	203d                	.2byte	0x203d
    8000a7d4:	0030                	add	a2,sp,8
    8000a7d6:	0000                	unimp
    8000a7d8:	6e616373          	csrrs	t1,0x6e6,2
    8000a7dc:	642e                	ld	s0,200(sp)
    8000a7de:	00656e6f          	jal	t3,800607e4 <_end+0x487e4>

Disassembly of section .htif:

000000008000b000 <fromhost>:
	...

000000008000b008 <tohost>:
	...

Disassembly of section .data:

000000008000c000 <files>:
    8000c000:	ffff                	.2byte	0xffff
    8000c002:	ffff                	.2byte	0xffff
    8000c004:	0000                	unimp
    8000c006:	0000                	unimp
    8000c008:	ffff                	.2byte	0xffff
    8000c00a:	ffff                	.2byte	0xffff
    8000c00c:	0000                	unimp
    8000c00e:	0000                	unimp
    8000c010:	ffff                	.2byte	0xffff
    8000c012:	ffff                	.2byte	0xffff
    8000c014:	0000                	unimp
    8000c016:	0000                	unimp
    8000c018:	ffff                	.2byte	0xffff
    8000c01a:	ffff                	.2byte	0xffff
    8000c01c:	0000                	unimp
    8000c01e:	0000                	unimp
    8000c020:	ffff                	.2byte	0xffff
    8000c022:	ffff                	.2byte	0xffff
    8000c024:	0000                	unimp
    8000c026:	0000                	unimp
    8000c028:	ffff                	.2byte	0xffff
    8000c02a:	ffff                	.2byte	0xffff
    8000c02c:	0000                	unimp
    8000c02e:	0000                	unimp
    8000c030:	ffff                	.2byte	0xffff
    8000c032:	ffff                	.2byte	0xffff
    8000c034:	0000                	unimp
    8000c036:	0000                	unimp
    8000c038:	ffff                	.2byte	0xffff
    8000c03a:	ffff                	.2byte	0xffff
    8000c03c:	0000                	unimp
    8000c03e:	0000                	unimp
    8000c040:	ffff                	.2byte	0xffff
    8000c042:	ffff                	.2byte	0xffff
    8000c044:	0000                	unimp
    8000c046:	0000                	unimp
    8000c048:	ffff                	.2byte	0xffff
    8000c04a:	ffff                	.2byte	0xffff
    8000c04c:	0000                	unimp
    8000c04e:	0000                	unimp
    8000c050:	ffff                	.2byte	0xffff
    8000c052:	ffff                	.2byte	0xffff
    8000c054:	0000                	unimp
    8000c056:	0000                	unimp
    8000c058:	ffff                	.2byte	0xffff
    8000c05a:	ffff                	.2byte	0xffff
    8000c05c:	0000                	unimp
    8000c05e:	0000                	unimp
    8000c060:	ffff                	.2byte	0xffff
    8000c062:	ffff                	.2byte	0xffff
    8000c064:	0000                	unimp
    8000c066:	0000                	unimp
    8000c068:	ffff                	.2byte	0xffff
    8000c06a:	ffff                	.2byte	0xffff
    8000c06c:	0000                	unimp
    8000c06e:	0000                	unimp
    8000c070:	ffff                	.2byte	0xffff
    8000c072:	ffff                	.2byte	0xffff
    8000c074:	0000                	unimp
    8000c076:	0000                	unimp
    8000c078:	ffff                	.2byte	0xffff
    8000c07a:	ffff                	.2byte	0xffff
    8000c07c:	0000                	unimp
    8000c07e:	0000                	unimp
    8000c080:	ffff                	.2byte	0xffff
    8000c082:	ffff                	.2byte	0xffff
    8000c084:	0000                	unimp
    8000c086:	0000                	unimp
    8000c088:	ffff                	.2byte	0xffff
    8000c08a:	ffff                	.2byte	0xffff
    8000c08c:	0000                	unimp
    8000c08e:	0000                	unimp
    8000c090:	ffff                	.2byte	0xffff
    8000c092:	ffff                	.2byte	0xffff
    8000c094:	0000                	unimp
    8000c096:	0000                	unimp
    8000c098:	ffff                	.2byte	0xffff
    8000c09a:	ffff                	.2byte	0xffff
    8000c09c:	0000                	unimp
    8000c09e:	0000                	unimp
    8000c0a0:	ffff                	.2byte	0xffff
    8000c0a2:	ffff                	.2byte	0xffff
    8000c0a4:	0000                	unimp
    8000c0a6:	0000                	unimp
    8000c0a8:	ffff                	.2byte	0xffff
    8000c0aa:	ffff                	.2byte	0xffff
    8000c0ac:	0000                	unimp
    8000c0ae:	0000                	unimp
    8000c0b0:	ffff                	.2byte	0xffff
    8000c0b2:	ffff                	.2byte	0xffff
    8000c0b4:	0000                	unimp
    8000c0b6:	0000                	unimp
    8000c0b8:	ffff                	.2byte	0xffff
    8000c0ba:	ffff                	.2byte	0xffff
    8000c0bc:	0000                	unimp
    8000c0be:	0000                	unimp
    8000c0c0:	ffff                	.2byte	0xffff
    8000c0c2:	ffff                	.2byte	0xffff
    8000c0c4:	0000                	unimp
    8000c0c6:	0000                	unimp
    8000c0c8:	ffff                	.2byte	0xffff
    8000c0ca:	ffff                	.2byte	0xffff
    8000c0cc:	0000                	unimp
    8000c0ce:	0000                	unimp
    8000c0d0:	ffff                	.2byte	0xffff
    8000c0d2:	ffff                	.2byte	0xffff
    8000c0d4:	0000                	unimp
    8000c0d6:	0000                	unimp
    8000c0d8:	ffff                	.2byte	0xffff
    8000c0da:	ffff                	.2byte	0xffff
    8000c0dc:	0000                	unimp
    8000c0de:	0000                	unimp
    8000c0e0:	ffff                	.2byte	0xffff
    8000c0e2:	ffff                	.2byte	0xffff
    8000c0e4:	0000                	unimp
    8000c0e6:	0000                	unimp
    8000c0e8:	ffff                	.2byte	0xffff
    8000c0ea:	ffff                	.2byte	0xffff
    8000c0ec:	0000                	unimp
    8000c0ee:	0000                	unimp
    8000c0f0:	ffff                	.2byte	0xffff
    8000c0f2:	ffff                	.2byte	0xffff
    8000c0f4:	0000                	unimp
    8000c0f6:	0000                	unimp
    8000c0f8:	ffff                	.2byte	0xffff
    8000c0fa:	ffff                	.2byte	0xffff
    8000c0fc:	0000                	unimp
    8000c0fe:	0000                	unimp
    8000c100:	ffff                	.2byte	0xffff
    8000c102:	ffff                	.2byte	0xffff
    8000c104:	0000                	unimp
    8000c106:	0000                	unimp
    8000c108:	ffff                	.2byte	0xffff
    8000c10a:	ffff                	.2byte	0xffff
    8000c10c:	0000                	unimp
    8000c10e:	0000                	unimp
    8000c110:	ffff                	.2byte	0xffff
    8000c112:	ffff                	.2byte	0xffff
    8000c114:	0000                	unimp
    8000c116:	0000                	unimp
    8000c118:	ffff                	.2byte	0xffff
    8000c11a:	ffff                	.2byte	0xffff
    8000c11c:	0000                	unimp
    8000c11e:	0000                	unimp
    8000c120:	ffff                	.2byte	0xffff
    8000c122:	ffff                	.2byte	0xffff
    8000c124:	0000                	unimp
    8000c126:	0000                	unimp
    8000c128:	ffff                	.2byte	0xffff
    8000c12a:	ffff                	.2byte	0xffff
    8000c12c:	0000                	unimp
    8000c12e:	0000                	unimp
    8000c130:	ffff                	.2byte	0xffff
    8000c132:	ffff                	.2byte	0xffff
    8000c134:	0000                	unimp
    8000c136:	0000                	unimp
    8000c138:	ffff                	.2byte	0xffff
    8000c13a:	ffff                	.2byte	0xffff
    8000c13c:	0000                	unimp
    8000c13e:	0000                	unimp
    8000c140:	ffff                	.2byte	0xffff
    8000c142:	ffff                	.2byte	0xffff
    8000c144:	0000                	unimp
    8000c146:	0000                	unimp
    8000c148:	ffff                	.2byte	0xffff
    8000c14a:	ffff                	.2byte	0xffff
    8000c14c:	0000                	unimp
    8000c14e:	0000                	unimp
    8000c150:	ffff                	.2byte	0xffff
    8000c152:	ffff                	.2byte	0xffff
    8000c154:	0000                	unimp
    8000c156:	0000                	unimp
    8000c158:	ffff                	.2byte	0xffff
    8000c15a:	ffff                	.2byte	0xffff
    8000c15c:	0000                	unimp
    8000c15e:	0000                	unimp
    8000c160:	ffff                	.2byte	0xffff
    8000c162:	ffff                	.2byte	0xffff
    8000c164:	0000                	unimp
    8000c166:	0000                	unimp
    8000c168:	ffff                	.2byte	0xffff
    8000c16a:	ffff                	.2byte	0xffff
    8000c16c:	0000                	unimp
    8000c16e:	0000                	unimp
    8000c170:	ffff                	.2byte	0xffff
    8000c172:	ffff                	.2byte	0xffff
    8000c174:	0000                	unimp
    8000c176:	0000                	unimp
    8000c178:	ffff                	.2byte	0xffff
    8000c17a:	ffff                	.2byte	0xffff
    8000c17c:	0000                	unimp
    8000c17e:	0000                	unimp
    8000c180:	ffff                	.2byte	0xffff
    8000c182:	ffff                	.2byte	0xffff
    8000c184:	0000                	unimp
    8000c186:	0000                	unimp
    8000c188:	ffff                	.2byte	0xffff
    8000c18a:	ffff                	.2byte	0xffff
    8000c18c:	0000                	unimp
    8000c18e:	0000                	unimp
    8000c190:	ffff                	.2byte	0xffff
    8000c192:	ffff                	.2byte	0xffff
    8000c194:	0000                	unimp
    8000c196:	0000                	unimp
    8000c198:	ffff                	.2byte	0xffff
    8000c19a:	ffff                	.2byte	0xffff
    8000c19c:	0000                	unimp
    8000c19e:	0000                	unimp
    8000c1a0:	ffff                	.2byte	0xffff
    8000c1a2:	ffff                	.2byte	0xffff
    8000c1a4:	0000                	unimp
    8000c1a6:	0000                	unimp
    8000c1a8:	ffff                	.2byte	0xffff
    8000c1aa:	ffff                	.2byte	0xffff
    8000c1ac:	0000                	unimp
    8000c1ae:	0000                	unimp
    8000c1b0:	ffff                	.2byte	0xffff
    8000c1b2:	ffff                	.2byte	0xffff
    8000c1b4:	0000                	unimp
    8000c1b6:	0000                	unimp
    8000c1b8:	ffff                	.2byte	0xffff
    8000c1ba:	ffff                	.2byte	0xffff
    8000c1bc:	0000                	unimp
    8000c1be:	0000                	unimp
    8000c1c0:	ffff                	.2byte	0xffff
    8000c1c2:	ffff                	.2byte	0xffff
    8000c1c4:	0000                	unimp
    8000c1c6:	0000                	unimp
    8000c1c8:	ffff                	.2byte	0xffff
    8000c1ca:	ffff                	.2byte	0xffff
    8000c1cc:	0000                	unimp
    8000c1ce:	0000                	unimp
    8000c1d0:	ffff                	.2byte	0xffff
    8000c1d2:	ffff                	.2byte	0xffff
    8000c1d4:	0000                	unimp
    8000c1d6:	0000                	unimp
    8000c1d8:	ffff                	.2byte	0xffff
    8000c1da:	ffff                	.2byte	0xffff
    8000c1dc:	0000                	unimp
    8000c1de:	0000                	unimp
    8000c1e0:	ffff                	.2byte	0xffff
    8000c1e2:	ffff                	.2byte	0xffff
    8000c1e4:	0000                	unimp
    8000c1e6:	0000                	unimp
    8000c1e8:	ffff                	.2byte	0xffff
    8000c1ea:	ffff                	.2byte	0xffff
    8000c1ec:	0000                	unimp
    8000c1ee:	0000                	unimp
    8000c1f0:	ffff                	.2byte	0xffff
    8000c1f2:	ffff                	.2byte	0xffff
    8000c1f4:	0000                	unimp
    8000c1f6:	0000                	unimp
    8000c1f8:	ffff                	.2byte	0xffff
    8000c1fa:	ffff                	.2byte	0xffff
    8000c1fc:	0000                	unimp
    8000c1fe:	0000                	unimp
    8000c200:	ffff                	.2byte	0xffff
    8000c202:	ffff                	.2byte	0xffff
    8000c204:	0000                	unimp
    8000c206:	0000                	unimp
    8000c208:	ffff                	.2byte	0xffff
    8000c20a:	ffff                	.2byte	0xffff
    8000c20c:	0000                	unimp
    8000c20e:	0000                	unimp
    8000c210:	ffff                	.2byte	0xffff
    8000c212:	ffff                	.2byte	0xffff
    8000c214:	0000                	unimp
    8000c216:	0000                	unimp
    8000c218:	ffff                	.2byte	0xffff
    8000c21a:	ffff                	.2byte	0xffff
    8000c21c:	0000                	unimp
    8000c21e:	0000                	unimp
    8000c220:	ffff                	.2byte	0xffff
    8000c222:	ffff                	.2byte	0xffff
    8000c224:	0000                	unimp
    8000c226:	0000                	unimp
    8000c228:	ffff                	.2byte	0xffff
    8000c22a:	ffff                	.2byte	0xffff
    8000c22c:	0000                	unimp
    8000c22e:	0000                	unimp
    8000c230:	ffff                	.2byte	0xffff
    8000c232:	ffff                	.2byte	0xffff
    8000c234:	0000                	unimp
    8000c236:	0000                	unimp
    8000c238:	ffff                	.2byte	0xffff
    8000c23a:	ffff                	.2byte	0xffff
    8000c23c:	0000                	unimp
    8000c23e:	0000                	unimp
    8000c240:	ffff                	.2byte	0xffff
    8000c242:	ffff                	.2byte	0xffff
    8000c244:	0000                	unimp
    8000c246:	0000                	unimp
    8000c248:	ffff                	.2byte	0xffff
    8000c24a:	ffff                	.2byte	0xffff
    8000c24c:	0000                	unimp
    8000c24e:	0000                	unimp
    8000c250:	ffff                	.2byte	0xffff
    8000c252:	ffff                	.2byte	0xffff
    8000c254:	0000                	unimp
    8000c256:	0000                	unimp
    8000c258:	ffff                	.2byte	0xffff
    8000c25a:	ffff                	.2byte	0xffff
    8000c25c:	0000                	unimp
    8000c25e:	0000                	unimp
    8000c260:	ffff                	.2byte	0xffff
    8000c262:	ffff                	.2byte	0xffff
    8000c264:	0000                	unimp
    8000c266:	0000                	unimp
    8000c268:	ffff                	.2byte	0xffff
    8000c26a:	ffff                	.2byte	0xffff
    8000c26c:	0000                	unimp
    8000c26e:	0000                	unimp
    8000c270:	ffff                	.2byte	0xffff
    8000c272:	ffff                	.2byte	0xffff
    8000c274:	0000                	unimp
    8000c276:	0000                	unimp
    8000c278:	ffff                	.2byte	0xffff
    8000c27a:	ffff                	.2byte	0xffff
    8000c27c:	0000                	unimp
    8000c27e:	0000                	unimp
    8000c280:	ffff                	.2byte	0xffff
    8000c282:	ffff                	.2byte	0xffff
    8000c284:	0000                	unimp
    8000c286:	0000                	unimp
    8000c288:	ffff                	.2byte	0xffff
    8000c28a:	ffff                	.2byte	0xffff
    8000c28c:	0000                	unimp
    8000c28e:	0000                	unimp
    8000c290:	ffff                	.2byte	0xffff
    8000c292:	ffff                	.2byte	0xffff
    8000c294:	0000                	unimp
    8000c296:	0000                	unimp
    8000c298:	ffff                	.2byte	0xffff
    8000c29a:	ffff                	.2byte	0xffff
    8000c29c:	0000                	unimp
    8000c29e:	0000                	unimp
    8000c2a0:	ffff                	.2byte	0xffff
    8000c2a2:	ffff                	.2byte	0xffff
    8000c2a4:	0000                	unimp
    8000c2a6:	0000                	unimp
    8000c2a8:	ffff                	.2byte	0xffff
    8000c2aa:	ffff                	.2byte	0xffff
    8000c2ac:	0000                	unimp
    8000c2ae:	0000                	unimp
    8000c2b0:	ffff                	.2byte	0xffff
    8000c2b2:	ffff                	.2byte	0xffff
    8000c2b4:	0000                	unimp
    8000c2b6:	0000                	unimp
    8000c2b8:	ffff                	.2byte	0xffff
    8000c2ba:	ffff                	.2byte	0xffff
    8000c2bc:	0000                	unimp
    8000c2be:	0000                	unimp
    8000c2c0:	ffff                	.2byte	0xffff
    8000c2c2:	ffff                	.2byte	0xffff
    8000c2c4:	0000                	unimp
    8000c2c6:	0000                	unimp
    8000c2c8:	ffff                	.2byte	0xffff
    8000c2ca:	ffff                	.2byte	0xffff
    8000c2cc:	0000                	unimp
    8000c2ce:	0000                	unimp
    8000c2d0:	ffff                	.2byte	0xffff
    8000c2d2:	ffff                	.2byte	0xffff
    8000c2d4:	0000                	unimp
    8000c2d6:	0000                	unimp
    8000c2d8:	ffff                	.2byte	0xffff
    8000c2da:	ffff                	.2byte	0xffff
    8000c2dc:	0000                	unimp
    8000c2de:	0000                	unimp
    8000c2e0:	ffff                	.2byte	0xffff
    8000c2e2:	ffff                	.2byte	0xffff
    8000c2e4:	0000                	unimp
    8000c2e6:	0000                	unimp
    8000c2e8:	ffff                	.2byte	0xffff
    8000c2ea:	ffff                	.2byte	0xffff
    8000c2ec:	0000                	unimp
    8000c2ee:	0000                	unimp
    8000c2f0:	ffff                	.2byte	0xffff
    8000c2f2:	ffff                	.2byte	0xffff
    8000c2f4:	0000                	unimp
    8000c2f6:	0000                	unimp
    8000c2f8:	ffff                	.2byte	0xffff
    8000c2fa:	ffff                	.2byte	0xffff
    8000c2fc:	0000                	unimp
    8000c2fe:	0000                	unimp
    8000c300:	ffff                	.2byte	0xffff
    8000c302:	ffff                	.2byte	0xffff
    8000c304:	0000                	unimp
    8000c306:	0000                	unimp
    8000c308:	ffff                	.2byte	0xffff
    8000c30a:	ffff                	.2byte	0xffff
    8000c30c:	0000                	unimp
    8000c30e:	0000                	unimp
    8000c310:	ffff                	.2byte	0xffff
    8000c312:	ffff                	.2byte	0xffff
    8000c314:	0000                	unimp
    8000c316:	0000                	unimp
    8000c318:	ffff                	.2byte	0xffff
    8000c31a:	ffff                	.2byte	0xffff
    8000c31c:	0000                	unimp
    8000c31e:	0000                	unimp
    8000c320:	ffff                	.2byte	0xffff
    8000c322:	ffff                	.2byte	0xffff
    8000c324:	0000                	unimp
    8000c326:	0000                	unimp
    8000c328:	ffff                	.2byte	0xffff
    8000c32a:	ffff                	.2byte	0xffff
    8000c32c:	0000                	unimp
    8000c32e:	0000                	unimp
    8000c330:	ffff                	.2byte	0xffff
    8000c332:	ffff                	.2byte	0xffff
    8000c334:	0000                	unimp
    8000c336:	0000                	unimp
    8000c338:	ffff                	.2byte	0xffff
    8000c33a:	ffff                	.2byte	0xffff
    8000c33c:	0000                	unimp
    8000c33e:	0000                	unimp
    8000c340:	ffff                	.2byte	0xffff
    8000c342:	ffff                	.2byte	0xffff
    8000c344:	0000                	unimp
    8000c346:	0000                	unimp
    8000c348:	ffff                	.2byte	0xffff
    8000c34a:	ffff                	.2byte	0xffff
    8000c34c:	0000                	unimp
    8000c34e:	0000                	unimp
    8000c350:	ffff                	.2byte	0xffff
    8000c352:	ffff                	.2byte	0xffff
    8000c354:	0000                	unimp
    8000c356:	0000                	unimp
    8000c358:	ffff                	.2byte	0xffff
    8000c35a:	ffff                	.2byte	0xffff
    8000c35c:	0000                	unimp
    8000c35e:	0000                	unimp
    8000c360:	ffff                	.2byte	0xffff
    8000c362:	ffff                	.2byte	0xffff
    8000c364:	0000                	unimp
    8000c366:	0000                	unimp
    8000c368:	ffff                	.2byte	0xffff
    8000c36a:	ffff                	.2byte	0xffff
    8000c36c:	0000                	unimp
    8000c36e:	0000                	unimp
    8000c370:	ffff                	.2byte	0xffff
    8000c372:	ffff                	.2byte	0xffff
    8000c374:	0000                	unimp
    8000c376:	0000                	unimp
    8000c378:	ffff                	.2byte	0xffff
    8000c37a:	ffff                	.2byte	0xffff
    8000c37c:	0000                	unimp
    8000c37e:	0000                	unimp
    8000c380:	ffff                	.2byte	0xffff
    8000c382:	ffff                	.2byte	0xffff
    8000c384:	0000                	unimp
    8000c386:	0000                	unimp
    8000c388:	ffff                	.2byte	0xffff
    8000c38a:	ffff                	.2byte	0xffff
    8000c38c:	0000                	unimp
    8000c38e:	0000                	unimp
    8000c390:	ffff                	.2byte	0xffff
    8000c392:	ffff                	.2byte	0xffff
    8000c394:	0000                	unimp
    8000c396:	0000                	unimp
    8000c398:	ffff                	.2byte	0xffff
    8000c39a:	ffff                	.2byte	0xffff
    8000c39c:	0000                	unimp
    8000c39e:	0000                	unimp
    8000c3a0:	ffff                	.2byte	0xffff
    8000c3a2:	ffff                	.2byte	0xffff
    8000c3a4:	0000                	unimp
    8000c3a6:	0000                	unimp
    8000c3a8:	ffff                	.2byte	0xffff
    8000c3aa:	ffff                	.2byte	0xffff
    8000c3ac:	0000                	unimp
    8000c3ae:	0000                	unimp
    8000c3b0:	ffff                	.2byte	0xffff
    8000c3b2:	ffff                	.2byte	0xffff
    8000c3b4:	0000                	unimp
    8000c3b6:	0000                	unimp
    8000c3b8:	ffff                	.2byte	0xffff
    8000c3ba:	ffff                	.2byte	0xffff
    8000c3bc:	0000                	unimp
    8000c3be:	0000                	unimp
    8000c3c0:	ffff                	.2byte	0xffff
    8000c3c2:	ffff                	.2byte	0xffff
    8000c3c4:	0000                	unimp
    8000c3c6:	0000                	unimp
    8000c3c8:	ffff                	.2byte	0xffff
    8000c3ca:	ffff                	.2byte	0xffff
    8000c3cc:	0000                	unimp
    8000c3ce:	0000                	unimp
    8000c3d0:	ffff                	.2byte	0xffff
    8000c3d2:	ffff                	.2byte	0xffff
    8000c3d4:	0000                	unimp
    8000c3d6:	0000                	unimp
    8000c3d8:	ffff                	.2byte	0xffff
    8000c3da:	ffff                	.2byte	0xffff
    8000c3dc:	0000                	unimp
    8000c3de:	0000                	unimp
    8000c3e0:	ffff                	.2byte	0xffff
    8000c3e2:	ffff                	.2byte	0xffff
    8000c3e4:	0000                	unimp
    8000c3e6:	0000                	unimp
    8000c3e8:	ffff                	.2byte	0xffff
    8000c3ea:	ffff                	.2byte	0xffff
    8000c3ec:	0000                	unimp
    8000c3ee:	0000                	unimp
    8000c3f0:	ffff                	.2byte	0xffff
    8000c3f2:	ffff                	.2byte	0xffff
    8000c3f4:	0000                	unimp
    8000c3f6:	0000                	unimp
    8000c3f8:	ffff                	.2byte	0xffff
    8000c3fa:	ffff                	.2byte	0xffff
    8000c3fc:	0000                	unimp
	...

000000008000c400 <trap_table>:
    8000c400:	31b2                	fld	ft3,296(sp)
    8000c402:	8000                	.2byte	0x8000
    8000c404:	0000                	unimp
    8000c406:	0000                	unimp
    8000c408:	3134                	fld	fa3,96(a0)
    8000c40a:	8000                	.2byte	0x8000
    8000c40c:	0000                	unimp
    8000c40e:	0000                	unimp
    8000c410:	5970                	lw	a2,116(a0)
    8000c412:	8000                	.2byte	0x8000
    8000c414:	0000                	unimp
    8000c416:	0000                	unimp
    8000c418:	31b2                	fld	ft3,296(sp)
    8000c41a:	8000                	.2byte	0x8000
    8000c41c:	0000                	unimp
    8000c41e:	0000                	unimp
    8000c420:	652c                	ld	a1,72(a0)
    8000c422:	8000                	.2byte	0x8000
    8000c424:	0000                	unimp
    8000c426:	0000                	unimp
    8000c428:	3134                	fld	fa3,96(a0)
    8000c42a:	8000                	.2byte	0x8000
    8000c42c:	0000                	unimp
    8000c42e:	0000                	unimp
    8000c430:	670c                	ld	a1,8(a4)
    8000c432:	8000                	.2byte	0x8000
    8000c434:	0000                	unimp
    8000c436:	0000                	unimp
    8000c438:	3134                	fld	fa3,96(a0)
    8000c43a:	8000                	.2byte	0x8000
    8000c43c:	0000                	unimp
    8000c43e:	0000                	unimp
    8000c440:	31b2                	fld	ft3,296(sp)
    8000c442:	8000                	.2byte	0x8000
    8000c444:	0000                	unimp
    8000c446:	0000                	unimp
    8000c448:	327e                	fld	ft4,504(sp)
    8000c44a:	8000                	.2byte	0x8000
    8000c44c:	0000                	unimp
    8000c44e:	0000                	unimp
    8000c450:	31b2                	fld	ft3,296(sp)
    8000c452:	8000                	.2byte	0x8000
    8000c454:	0000                	unimp
    8000c456:	0000                	unimp
    8000c458:	31b2                	fld	ft3,296(sp)
    8000c45a:	8000                	.2byte	0x8000
    8000c45c:	0000                	unimp
    8000c45e:	0000                	unimp
    8000c460:	31b2                	fld	ft3,296(sp)
    8000c462:	8000                	.2byte	0x8000
    8000c464:	0000                	unimp
    8000c466:	0000                	unimp
    8000c468:	01f0                	add	a2,sp,204
    8000c46a:	8000                	.2byte	0x8000
    8000c46c:	0000                	unimp
    8000c46e:	0000                	unimp
    8000c470:	31b2                	fld	ft3,296(sp)
    8000c472:	8000                	.2byte	0x8000
    8000c474:	0000                	unimp
    8000c476:	0000                	unimp
    8000c478:	31b2                	fld	ft3,296(sp)
    8000c47a:	8000                	.2byte	0x8000
    8000c47c:	0000                	unimp
    8000c47e:	0000                	unimp
    8000c480:	457f 464c 0002 0000 	.byte	0x7f, 0x45, 0x4c, 0x46, 0x02, 0x00, 0x00, 0x00, 0x7f, 0x70, 0xf0, 0xff, 0x00, 0x00, 0x00, 0x00, 0x01, 0x01
    8000c488:	707f fff0 0000 0000 
    8000c490:	0101 
    8000c492:	0101                	add	sp,sp,0
    8000c494:	0101                	add	sp,sp,0
    8000c496:	0101                	add	sp,sp,0
    8000c498:	3a434347          	fmsub.d	ft6,ft6,ft4,ft7,rmm
    8000c49c:	2820                	fld	fs0,80(s0)
    8000c49e:	65653267          	.4byte	0x65653267
    8000c4a2:	6535                	lui	a0,0xd
    8000c4a4:	3334                	fld	fa3,96(a4)
    8000c4a6:	3030                	fld	fa2,96(s0)
    8000c4a8:	3831                	addw	a6,a6,-20 # afec <MEM_START-0x7fff5014>
    8000c4aa:	2029                	.2byte	0x2029
    8000c4ac:	3231                	addw	tp,tp,-20 # ffffffffffff7fec <_end+0xffffffff7ffdffec>
    8000c4ae:	322e                	fld	ft4,232(sp)
    8000c4b0:	302e                	fld	ft0,232(sp)
	...

Disassembly of section .sdata:

000000008000c4b4 <demand_paging>:
    8000c4b4:	0001                	nop
	...

000000008000c4b8 <uart16550_clock>:
    8000c4b8:	2000                	fld	fs0,0(s0)
    8000c4ba:	001c                	.2byte	0x1c

Disassembly of section .bss:

000000008000d000 <current>:
	...

000000008000d078 <phdrs.0>:
	...

000000008000d478 <args.1>:
	...

000000008000dc78 <fds>:
	...

000000008000e078 <magic_mem.0>:
	...

000000008000f000 <stacks>:
	...

0000000080017000 <hart_phandles>:
	...

0000000080017020 <disabled_hart_mask>:
	...

0000000080017028 <lock.1>:
	...

0000000080017030 <page_freelist_storage>:
	...

0000000080017038 <page_freelist_depth>:
	...

0000000080017040 <randomize_mapping>:
	...

0000000080017048 <pages_promised>:
	...

0000000080017050 <free_pages>:
	...

0000000080017058 <next_free_page>:
	...

0000000080017060 <first_free_page>:
	...

0000000080017068 <vm_lock>:
	...

0000000080017070 <root_page_table>:
	...

0000000080017078 <vmr_freelist_head>:
	...

0000000080017080 <kva2pa_offset>:
	...

0000000080017088 <kernel_end>:
	...

0000000080017090 <kernel_start>:
	...

0000000080017098 <plic_ndevs>:
	...

00000000800170a0 <plic_priorities>:
	...

00000000800170a8 <mtime>:
	...

00000000800170b0 <mem_size>:
	...

00000000800170b8 <htif>:
	...

00000000800170c0 <htif_lock>:
    800170c0:	0000                	unimp
	...

00000000800170c4 <htif_console_buf>:
    800170c4:	0000                	unimp
	...

00000000800170c8 <uart>:
	...

00000000800170d0 <uart16550_reg_shift>:
	...

00000000800170d8 <uart16550>:
	...

00000000800170e0 <uart_litex>:
	...

00000000800170e8 <finisher>:
	...

00000000800170f0 <hart_mask>:
	...

Disassembly of section .riscv.attributes:

0000000000000000 <.riscv.attributes>:
   0:	5641                	li	a2,-16
   2:	0000                	unimp
   4:	7200                	ld	s0,32(a2)
   6:	7369                	lui	t1,0xffffa
   8:	01007663          	bgeu	zero,a6,14 <MEM_START-0x7fffffec>
   c:	004c                	add	a1,sp,4
   e:	0000                	unimp
  10:	1004                	add	s1,sp,32
  12:	7205                	lui	tp,0xfffe1
  14:	3676                	fld	fa2,376(sp)
  16:	6934                	ld	a3,80(a0)
  18:	7032                	.2byte	0x7032
  1a:	5f31                	li	t5,-20
  1c:	326d                	addw	tp,tp,-5 # fffffffffffe0ffb <_end+0xffffffff7ffc8ffb>
  1e:	3070                	fld	fa2,224(s0)
  20:	615f 7032 5f31      	.byte	0x5f, 0x61, 0x32, 0x70, 0x31, 0x5f
  26:	3266                	fld	ft4,120(sp)
  28:	3270                	fld	fa2,224(a2)
  2a:	645f 7032 5f32      	.byte	0x5f, 0x64, 0x32, 0x70, 0x32, 0x5f
  30:	30703263          	.4byte	0x30703263
  34:	7a5f 6369 7273      	.byte	0x5f, 0x7a, 0x69, 0x63, 0x73, 0x72
  3a:	7032                	.2byte	0x7032
  3c:	5f30                	lw	a2,120(a4)
  3e:	697a                	ld	s2,408(sp)
  40:	6566                	ld	a0,88(sp)
  42:	636e                	ld	t1,216(sp)
  44:	6965                	lui	s2,0x19
  46:	7032                	.2byte	0x7032
  48:	5f30                	lw	a2,120(a4)
  4a:	6d7a                	ld	s10,408(sp)
  4c:	756d                	lui	a0,0xffffb
  4e:	316c                	fld	fa1,224(a0)
  50:	3070                	fld	fa2,224(s0)
  52:	0800                	add	s0,sp,16
  54:	0a01                	add	s4,s4,0
  56:	0b              	Address 0x56 is out of bounds.

